
FWCP_MK3.elf:     file format elf32-avr

Sections:
Idx Name          Size      VMA       LMA       File off  Algn
  0 .data         000001c8  00800100  00005174  00005208  2**0
                  CONTENTS, ALLOC, LOAD, DATA
  1 .text         00005174  00000000  00000000  00000094  2**1
                  CONTENTS, ALLOC, LOAD, READONLY, CODE
  2 .bss          00000597  008002c8  008002c8  000053d0  2**0
                  ALLOC
  3 .comment      0000005c  00000000  00000000  000053d0  2**0
                  CONTENTS, READONLY
  4 .note.gnu.avr.deviceinfo 00000040  00000000  00000000  0000542c  2**2
                  CONTENTS, READONLY
  5 .debug_aranges 000003f8  00000000  00000000  0000546c  2**0
                  CONTENTS, READONLY, DEBUGGING
  6 .debug_info   0000985f  00000000  00000000  00005864  2**0
                  CONTENTS, READONLY, DEBUGGING
  7 .debug_abbrev 00001939  00000000  00000000  0000f0c3  2**0
                  CONTENTS, READONLY, DEBUGGING
  8 .debug_line   000034b8  00000000  00000000  000109fc  2**0
                  CONTENTS, READONLY, DEBUGGING
  9 .debug_frame  00000fcc  00000000  00000000  00013eb4  2**2
                  CONTENTS, READONLY, DEBUGGING
 10 .debug_str    000013bf  00000000  00000000  00014e80  2**0
                  CONTENTS, READONLY, DEBUGGING
 11 .debug_loc    00006935  00000000  00000000  0001623f  2**0
                  CONTENTS, READONLY, DEBUGGING
 12 .debug_ranges 00000438  00000000  00000000  0001cb74  2**0
                  CONTENTS, READONLY, DEBUGGING

Disassembly of section .text:

00000000 <__vectors>:
       0:	c9 c2       	rjmp	.+1426   	; 0x594 <__dtors_end>
       2:	00 00       	nop
       4:	fd c2       	rjmp	.+1530   	; 0x600 <__bad_interrupt>
       6:	00 00       	nop
       8:	fb c2       	rjmp	.+1526   	; 0x600 <__bad_interrupt>
       a:	00 00       	nop
       c:	f9 c2       	rjmp	.+1522   	; 0x600 <__bad_interrupt>
       e:	00 00       	nop
      10:	f7 c2       	rjmp	.+1518   	; 0x600 <__bad_interrupt>
      12:	00 00       	nop
      14:	f5 c2       	rjmp	.+1514   	; 0x600 <__bad_interrupt>
      16:	00 00       	nop
      18:	f3 c2       	rjmp	.+1510   	; 0x600 <__bad_interrupt>
      1a:	00 00       	nop
      1c:	f1 c2       	rjmp	.+1506   	; 0x600 <__bad_interrupt>
      1e:	00 00       	nop
      20:	ef c2       	rjmp	.+1502   	; 0x600 <__bad_interrupt>
      22:	00 00       	nop
      24:	ed c2       	rjmp	.+1498   	; 0x600 <__bad_interrupt>
      26:	00 00       	nop
      28:	eb c2       	rjmp	.+1494   	; 0x600 <__bad_interrupt>
      2a:	00 00       	nop
      2c:	0c 94 38 0f 	jmp	0x1e70	; 0x1e70 <__vector_11>
      30:	e7 c2       	rjmp	.+1486   	; 0x600 <__bad_interrupt>
      32:	00 00       	nop
      34:	0c 94 54 0f 	jmp	0x1ea8	; 0x1ea8 <__vector_13>
      38:	e3 c2       	rjmp	.+1478   	; 0x600 <__bad_interrupt>
      3a:	00 00       	nop
      3c:	e1 c2       	rjmp	.+1474   	; 0x600 <__bad_interrupt>
      3e:	00 00       	nop
      40:	df c2       	rjmp	.+1470   	; 0x600 <__bad_interrupt>
      42:	00 00       	nop
      44:	dd c2       	rjmp	.+1466   	; 0x600 <__bad_interrupt>
      46:	00 00       	nop
      48:	db c2       	rjmp	.+1462   	; 0x600 <__bad_interrupt>
      4a:	00 00       	nop
      4c:	d9 c2       	rjmp	.+1458   	; 0x600 <__bad_interrupt>
      4e:	00 00       	nop
      50:	0c 94 65 0f 	jmp	0x1eca	; 0x1eca <__vector_20>
      54:	d5 c2       	rjmp	.+1450   	; 0x600 <__bad_interrupt>
      56:	00 00       	nop
      58:	d3 c2       	rjmp	.+1446   	; 0x600 <__bad_interrupt>
      5a:	00 00       	nop
      5c:	d1 c2       	rjmp	.+1442   	; 0x600 <__bad_interrupt>
      5e:	00 00       	nop
      60:	cf c2       	rjmp	.+1438   	; 0x600 <__bad_interrupt>
      62:	00 00       	nop
      64:	cd c2       	rjmp	.+1434   	; 0x600 <__bad_interrupt>
      66:	00 00       	nop
      68:	cb c2       	rjmp	.+1430   	; 0x600 <__bad_interrupt>
      6a:	00 00       	nop
      6c:	c9 c2       	rjmp	.+1426   	; 0x600 <__bad_interrupt>
      6e:	00 00       	nop
      70:	c7 c2       	rjmp	.+1422   	; 0x600 <__bad_interrupt>
      72:	00 00       	nop
      74:	c5 c2       	rjmp	.+1418   	; 0x600 <__bad_interrupt>
      76:	00 00       	nop
      78:	c3 c2       	rjmp	.+1414   	; 0x600 <__bad_interrupt>
      7a:	00 00       	nop
      7c:	c1 c2       	rjmp	.+1410   	; 0x600 <__bad_interrupt>
      7e:	00 00       	nop
      80:	bf c2       	rjmp	.+1406   	; 0x600 <__bad_interrupt>
      82:	00 00       	nop
      84:	bd c2       	rjmp	.+1402   	; 0x600 <__bad_interrupt>
      86:	00 00       	nop
      88:	bb c2       	rjmp	.+1398   	; 0x600 <__bad_interrupt>
      8a:	00 00       	nop
      8c:	7b 08       	sbc	r7, r11
      8e:	7d 08       	sbc	r7, r13
      90:	7d 08       	sbc	r7, r13
      92:	7d 08       	sbc	r7, r13
      94:	7d 08       	sbc	r7, r13
      96:	7d 08       	sbc	r7, r13
      98:	7d 08       	sbc	r7, r13
      9a:	79 08       	sbc	r7, r9
      9c:	7d 08       	sbc	r7, r13
      9e:	7d 08       	sbc	r7, r13
      a0:	7d 08       	sbc	r7, r13
      a2:	7d 08       	sbc	r7, r13
      a4:	7d 08       	sbc	r7, r13
      a6:	80 08       	sbc	r8, r0
      a8:	7f 08       	sbc	r7, r15
      aa:	69 08       	sbc	r6, r9
      ac:	6b 08       	sbc	r6, r11
      ae:	6d 08       	sbc	r6, r13
      b0:	6f 08       	sbc	r6, r15
      b2:	71 08       	sbc	r7, r1
      b4:	73 08       	sbc	r7, r3
      b6:	75 08       	sbc	r7, r5
      b8:	77 08       	sbc	r7, r7
      ba:	3c 12       	cpse	r3, r28
      bc:	4c 12       	cpse	r4, r28
      be:	4c 12       	cpse	r4, r28
      c0:	4c 12       	cpse	r4, r28
      c2:	4c 12       	cpse	r4, r28
      c4:	4c 12       	cpse	r4, r28
      c6:	4c 12       	cpse	r4, r28
      c8:	4c 12       	cpse	r4, r28
      ca:	4c 12       	cpse	r4, r28
      cc:	4c 12       	cpse	r4, r28
      ce:	4c 12       	cpse	r4, r28
      d0:	4c 12       	cpse	r4, r28
      d2:	4c 12       	cpse	r4, r28
      d4:	4c 12       	cpse	r4, r28
      d6:	4c 12       	cpse	r4, r28
      d8:	4c 12       	cpse	r4, r28
      da:	4c 12       	cpse	r4, r28
      dc:	4c 12       	cpse	r4, r28
      de:	4c 12       	cpse	r4, r28
      e0:	4c 12       	cpse	r4, r28
      e2:	4c 12       	cpse	r4, r28
      e4:	4c 12       	cpse	r4, r28
      e6:	4c 12       	cpse	r4, r28
      e8:	4c 12       	cpse	r4, r28
      ea:	4c 12       	cpse	r4, r28
      ec:	4c 12       	cpse	r4, r28
      ee:	4c 12       	cpse	r4, r28
      f0:	4c 12       	cpse	r4, r28
      f2:	4c 12       	cpse	r4, r28
      f4:	4c 12       	cpse	r4, r28
      f6:	4c 12       	cpse	r4, r28
      f8:	4c 12       	cpse	r4, r28
      fa:	4c 12       	cpse	r4, r28
      fc:	4c 12       	cpse	r4, r28
      fe:	4c 12       	cpse	r4, r28
     100:	4c 12       	cpse	r4, r28
     102:	4c 12       	cpse	r4, r28
     104:	4c 12       	cpse	r4, r28
     106:	4c 12       	cpse	r4, r28
     108:	4c 12       	cpse	r4, r28
     10a:	4c 12       	cpse	r4, r28
     10c:	4c 12       	cpse	r4, r28
     10e:	4c 12       	cpse	r4, r28
     110:	4c 12       	cpse	r4, r28
     112:	4c 12       	cpse	r4, r28
     114:	4c 12       	cpse	r4, r28
     116:	4c 12       	cpse	r4, r28
     118:	4c 12       	cpse	r4, r28
     11a:	4c 12       	cpse	r4, r28
     11c:	4c 12       	cpse	r4, r28
     11e:	4c 12       	cpse	r4, r28
     120:	4c 12       	cpse	r4, r28
     122:	18 12       	cpse	r1, r24
     124:	4c 12       	cpse	r4, r28
     126:	4c 12       	cpse	r4, r28
     128:	4c 12       	cpse	r4, r28
     12a:	4c 12       	cpse	r4, r28
     12c:	4c 12       	cpse	r4, r28
     12e:	4c 12       	cpse	r4, r28
     130:	4c 12       	cpse	r4, r28
     132:	e5 11       	cpse	r30, r5
     134:	e1 11       	cpse	r30, r1
     136:	4c 12       	cpse	r4, r28
     138:	05 12       	cpse	r0, r21
     13a:	4c 12       	cpse	r4, r28
     13c:	4c 12       	cpse	r4, r28
     13e:	f2 11       	cpse	r31, r2
     140:	4c 12       	cpse	r4, r28
     142:	4c 12       	cpse	r4, r28
     144:	2d 12       	cpse	r2, r29
     146:	8d 18       	sub	r8, r13
     148:	b3 18       	sub	r11, r3
     14a:	da 18       	sub	r13, r10
     14c:	02 19       	sub	r16, r2
     14e:	29 19       	sub	r18, r9
     150:	53 19       	sub	r21, r3
     152:	7c 19       	sub	r23, r12
     154:	a6 19       	sub	r26, r6
     156:	1d 1a       	sub	r1, r29
     158:	47 1a       	sub	r4, r23
     15a:	05 a8       	ldd	r0, Z+53	; 0x35
     15c:	4c cd       	rjmp	.-1384   	; 0xfffffbf6 <__eeprom_end+0xff7efbf6>
     15e:	b2 d4       	rcall	.+2404   	; 0xac4 <_ZN7Display6analogEhhhh+0x104>
     160:	4e b9       	out	0x0e, r20	; 14
     162:	38 36       	cpi	r19, 0x68	; 104
     164:	a9 02       	muls	r26, r25
     166:	0c 50       	subi	r16, 0x0C	; 12
     168:	b9 91       	ld	r27, Y+
     16a:	86 88       	ldd	r8, Z+22	; 0x16
     16c:	08 3c       	cpi	r16, 0xC8	; 200
     16e:	a6 aa       	std	Z+54, r10	; 0x36
     170:	aa 2a       	or	r10, r26
     172:	be 00       	.word	0x00be	; ????
     174:	00 00       	nop
     176:	80 3f       	cpi	r24, 0xF0	; 240

00000178 <__trampolines_end>:
     178:	00 e0       	ldi	r16, 0x00	; 0
     17a:	f8 fc       	.word	0xfcf8	; ????
     17c:	fe 1e       	adc	r15, r30
     17e:	07 07       	cpc	r16, r23
     180:	07 07       	cpc	r16, r23
     182:	1e fe       	.word	0xfe1e	; ????
     184:	fc f8       	.word	0xf8fc	; ????
     186:	f0 00       	.word	0x00f0	; ????
     188:	00 07       	cpc	r16, r16
     18a:	0f 3f       	cpi	r16, 0xFF	; 255
     18c:	3f 7c       	andi	r19, 0xCF	; 207
     18e:	70 70       	andi	r23, 0x00	; 0
     190:	70 70       	andi	r23, 0x00	; 0
     192:	7c 3f       	cpi	r23, 0xFC	; 252
     194:	1f 1f       	adc	r17, r31
     196:	07 00       	.word	0x0007	; ????
     198:	00 00       	nop
     19a:	00 06       	cpc	r0, r16
     19c:	07 07       	cpc	r16, r23
     19e:	ff ff       	.word	0xffff	; ????
     1a0:	ff ff       	.word	0xffff	; ????
	...
     1ae:	7f 7f       	andi	r23, 0xFF	; 255
     1b0:	7f 7f       	andi	r23, 0xFF	; 255
     1b2:	00 00       	nop
     1b4:	00 00       	nop
     1b6:	00 00       	nop
     1b8:	00 38       	cpi	r16, 0x80	; 128
     1ba:	3c 3e       	cpi	r19, 0xEC	; 236
     1bc:	3e 0f       	add	r19, r30
     1be:	07 07       	cpc	r16, r23
     1c0:	07 cf       	rjmp	.-498    	; 0xffffffd0 <__eeprom_end+0xff7effd0>
     1c2:	ff fe       	.word	0xfeff	; ????
     1c4:	fe 38       	cpi	r31, 0x8E	; 142
     1c6:	00 00       	nop
     1c8:	00 40       	sbci	r16, 0x00	; 0
     1ca:	40 60       	ori	r20, 0x00	; 0
     1cc:	70 78       	andi	r23, 0x80	; 128
     1ce:	7c 7e       	andi	r23, 0xEC	; 236
     1d0:	7f 77       	andi	r23, 0x7F	; 127
     1d2:	73 71       	andi	r23, 0x13	; 19
     1d4:	70 70       	andi	r23, 0x00	; 0
     1d6:	00 00       	nop
     1d8:	00 18       	sub	r0, r0
     1da:	1c 1e       	adc	r1, r28
     1dc:	1e 0f       	add	r17, r30
     1de:	c7 c7       	rjmp	.+3982   	; 0x116e <_ZN7LSM303D9acce_initEv+0x14>
     1e0:	e7 ff       	sbrs	r30, 7
     1e2:	fe be       	out	0x3e, r15	; 62
     1e4:	9c 00       	.word	0x009c	; ????
     1e6:	00 00       	nop
     1e8:	00 0c       	add	r0, r0
     1ea:	1c 3c       	cpi	r17, 0xCC	; 204
     1ec:	3c 78       	andi	r19, 0x8C	; 140
     1ee:	70 70       	andi	r23, 0x00	; 0
     1f0:	70 79       	andi	r23, 0x90	; 144
     1f2:	7f 3f       	cpi	r23, 0xFF	; 255
     1f4:	1f 0f       	add	r17, r31
     1f6:	00 00       	nop
     1f8:	00 00       	nop
     1fa:	80 c0       	rjmp	.+256    	; 0x2fc <_ZL7font5x8+0x44>
     1fc:	e0 70       	andi	r30, 0x00	; 0
     1fe:	38 1c       	adc	r3, r8
     200:	1e ff       	.word	0xff1e	; ????
     202:	ff ff       	.word	0xffff	; ????
     204:	ff 00       	.word	0x00ff	; ????
     206:	00 00       	nop
     208:	06 07       	cpc	r16, r22
     20a:	07 07       	cpc	r16, r23
     20c:	06 06       	cpc	r0, r22
     20e:	06 06       	cpc	r0, r22
     210:	06 7f       	andi	r16, 0xF6	; 246
     212:	7f 7f       	andi	r23, 0xFF	; 255
     214:	7f 06       	cpc	r7, r31
     216:	06 00       	.word	0x0006	; ????
     218:	00 00       	nop
     21a:	00 00       	nop
     21c:	f0 ff       	sbrs	r31, 0
     21e:	ff ff       	.word	0xffff	; ????
     220:	e7 e7       	ldi	r30, 0x77	; 119
     222:	e7 e7       	ldi	r30, 0x77	; 119
     224:	c7 87       	std	Z+15, r28	; 0x0f
     226:	00 00       	nop
     228:	00 00       	nop
     22a:	38 78       	andi	r19, 0x88	; 136
     22c:	71 70       	andi	r23, 0x01	; 1
     22e:	70 70       	andi	r23, 0x00	; 0
     230:	70 70       	andi	r23, 0x00	; 0
     232:	39 3f       	cpi	r19, 0xF9	; 249
     234:	3f 1f       	adc	r19, r31
     236:	0f 00       	.word	0x000f	; ????
     238:	00 80       	ld	r0, Z
     23a:	e0 f0       	brcs	.+56     	; 0x274 <__trampolines_end+0xfc>
     23c:	f8 fc       	.word	0xfcf8	; ????
     23e:	7f 7f       	andi	r23, 0xFF	; 255
     240:	6f 67       	ori	r22, 0x7F	; 127
     242:	e1 e1       	ldi	r30, 0x11	; 17
     244:	c0 80       	ld	r12, Z
     246:	00 00       	nop
     248:	00 0f       	add	r16, r16
     24a:	1f 3f       	cpi	r17, 0xFF	; 255
     24c:	3f 78       	andi	r19, 0x8F	; 143
     24e:	70 70       	andi	r23, 0x00	; 0
     250:	70 70       	andi	r23, 0x00	; 0
     252:	78 3f       	cpi	r23, 0xF8	; 248
     254:	3f 1f       	adc	r19, r31
     256:	0f 00       	.word	0x000f	; ????
     258:	00 07       	cpc	r16, r16
     25a:	07 07       	cpc	r16, r23
     25c:	07 07       	cpc	r16, r23
     25e:	c7 e7       	ldi	r28, 0x77	; 119
     260:	f7 ff       	sbrs	r31, 7
     262:	7f 3f       	cpi	r23, 0xFF	; 255
     264:	1f 07       	cpc	r17, r31
     266:	03 01       	movw	r0, r6
     268:	00 20       	and	r0, r0
     26a:	38 7c       	andi	r19, 0xC8	; 200
     26c:	7e 3f       	cpi	r23, 0xFE	; 254
     26e:	0f 07       	cpc	r16, r31
     270:	03 00       	.word	0x0003	; ????
	...
     27a:	00 1c       	adc	r0, r0
     27c:	be fe       	.word	0xfebe	; ????
     27e:	ff e7       	ldi	r31, 0x7F	; 127
     280:	c3 c3       	rjmp	.+1926   	; 0xa08 <_ZN7Display6analogEhhhh+0x48>
     282:	e7 ff       	sbrs	r30, 7
     284:	fe be       	out	0x3e, r15	; 62
     286:	1c 00       	.word	0x001c	; ????
     288:	00 00       	nop
     28a:	0e 3f       	cpi	r16, 0xFE	; 254
     28c:	3f 7f       	andi	r19, 0xFF	; 255
     28e:	71 60       	ori	r23, 0x01	; 1
     290:	60 60       	ori	r22, 0x00	; 0
     292:	71 7f       	andi	r23, 0xF1	; 241
     294:	3f 3f       	cpi	r19, 0xFF	; 255
     296:	0f 00       	.word	0x000f	; ????
     298:	00 78       	andi	r16, 0x80	; 128
     29a:	fc fe       	.word	0xfefc	; ????
     29c:	fe 8f       	std	Y+30, r31	; 0x1e
     29e:	07 07       	cpc	r16, r23
     2a0:	07 07       	cpc	r16, r23
     2a2:	8f fe       	.word	0xfe8f	; ????
     2a4:	fe fc       	.word	0xfcfe	; ????
     2a6:	f8 00       	.word	0x00f8	; ????
     2a8:	00 00       	nop
     2aa:	00 01       	movw	r0, r0
     2ac:	43 43       	sbci	r20, 0x33	; 51
     2ae:	73 7b       	andi	r23, 0xB3	; 179
     2b0:	7f 7f       	andi	r23, 0xFF	; 255
     2b2:	1f 0f       	add	r17, r31
     2b4:	07 03       	mulsu	r16, r23
	...

000002b8 <_ZL7font5x8>:
     2b8:	00 00 5f 00 00 00 07 00 07 00 14 7f 14 7f 14 24     .._............$
     2c8:	2a 7f 2a 12 23 13 08 64 62 36 49 55 22 50 00 05     *.*.#..db6IU"P..
     2d8:	03 00 00 00 1c 22 41 00 00 41 22 1c 00 14 08 3e     ....."A..A"....>
     2e8:	08 14 08 08 3e 08 08 00 50 30 00 00 08 08 08 08     ....>...P0......
     2f8:	08 00 60 60 00 00 20 10 08 04 02 3e 51 49 45 3e     ..``.. ....>QIE>
     308:	00 42 7f 40 00 42 61 51 49 46 21 41 45 4b 31 18     .B.@.BaQIF!AEK1.
     318:	14 12 7f 10 27 45 45 45 39 3c 4a 49 49 30 01 71     ....'EEE9<JII0.q
     328:	09 05 03 36 49 49 49 36 06 49 49 29 1e 00 36 36     ...6III6.II)..66
     338:	00 00 00 56 36 00 00 08 14 22 41 00 14 14 14 14     ...V6...."A.....
     348:	14 00 41 22 14 08 02 01 51 09 06 32 49 79 41 3e     ..A"....Q..2IyA>
     358:	7e 11 11 11 7e 7f 49 49 49 36 3e 41 41 41 22 7f     ~...~.III6>AAA".
     368:	41 41 22 1c 7f 49 49 49 41 7f 09 09 09 01 3e 41     AA"..IIIA.....>A
     378:	49 49 7a 7f 08 08 08 7f 00 41 7f 41 00 20 40 41     IIz......A.A. @A
     388:	3f 01 7f 08 14 22 41 7f 40 40 40 40 7f 02 0c 02     ?...."A.@@@@....
     398:	7f 7f 04 08 10 7f 3e 41 41 41 3e 7f 09 09 09 06     ......>AAA>.....
     3a8:	3e 41 51 21 5e 7f 09 19 29 46 46 49 49 49 31 01     >AQ!^...)FFIII1.
     3b8:	01 7f 01 01 3f 40 40 40 3f 1f 20 40 20 1f 3f 40     ....?@@@?. @ .?@
     3c8:	38 40 3f 63 14 08 14 63 07 08 70 08 07 61 51 49     8@?c...c..p..aQI
     3d8:	45 43 00 7f 41 41 00 02 04 08 10 20 00 41 41 7f     EC..AA..... .AA.
     3e8:	00 04 02 01 02 04 40 40 40 40 40 00 01 02 04 00     ......@@@@@.....
     3f8:	20 54 54 54 78 7f 48 44 44 38 38 44 44 44 20 38      TTTx.HDD88DDD 8
     408:	44 44 48 7f 38 54 54 54 18 08 7e 09 01 02 0c 52     DDH.8TTT..~....R
     418:	52 52 3e 7f 08 04 04 78 00 44 7d 40 00 20 40 44     RR>....x.D}@. @D
     428:	3d 00 7f 10 28 44 00 00 41 7f 40 00 7c 04 18 04     =...(D..A.@.|...
     438:	78 7c 08 04 04 78 38 44 44 44 38 7c 14 14 14 08     x|...x8DDD8|....
     448:	08 14 14 18 7c 7c 08 04 04 08 48 54 54 54 20 04     ....||....HTTT .
     458:	3f 44 40 20 3c 40 40 20 7c 1c 20 40 20 1c 3c 40     ?D@ <@@ |. @ .<@
     468:	30 40 3c 44 28 10 28 44 0c 50 50 50 3c 44 64 54     0@<D(.(D.PPP<DdT
     478:	4c 44 00 08 36 41 00 00 00 7f 00 00 00 41 36 08     LD..6A.......A6.
     488:	00 10 08 08 10 08                                   ......

0000048e <__c.2179>:
     48e:	6e 61 6e 00                                         nan.

00000492 <__c.2177>:
     492:	69 6e 66 00 00 40 7a 10 f3 5a 00 a0 72 4e 18 09     inf..@z..Z..rN..
     4a2:	00 10 a5 d4 e8 00 00 e8 76 48 17 00 00 e4 0b 54     ........vH.....T
     4b2:	02 00 00 ca 9a 3b 00 00 00 e1 f5 05 00 00 80 96     .....;..........
     4c2:	98 00 00 00 40 42 0f 00 00 00 a0 86 01 00 00 00     ....@B..........
     4d2:	10 27 00 00 00 00 e8 03 00 00 00 00 64 00 00 00     .'..........d...
     4e2:	00 00 0a 00 00 00 00 00 01 00 00 00 00 00 2c 76     ..............,v
     4f2:	d8 88 dc 67 4f 08 23 df c1 df ae 59 e1 b1 b7 96     ...gO.#....Y....
     502:	e5 e3 e4 53 c6 3a e6 51 99 76 96 e8 e6 c2 84 26     ...S.:.Q.v.....&
     512:	eb 89 8c 9b 62 ed 40 7c 6f fc ef bc 9c 9f 40 f2     ....b.@|o.....@.
     522:	ba a5 6f a5 f4 90 05 5a 2a f7 5c 93 6b 6c f9 67     ..o....Z*.\.kl.g
     532:	6d c1 1b fc e0 e4 0d 47 fe f5 20 e6 b5 00 d0 ed     m......G.. .....
     542:	90 2e 03 00 94 35 77 05 00 80 84 1e 08 00 00 20     .....5w........ 
     552:	4e 0a 00 00 00 c8 0c 33 33 33 33 0f 98 6e 12 83     N......3333..n..
     562:	11 41 ef 8d 21 14 89 3b e6 55 16 cf fe e6 db 18     .A..!..;.U......
     572:	d1 84 4b 38 1b f7 7c 1d 90 1d a4 bb e4 24 20 32     ..K8..|......$ 2
     582:	84 72 5e 22 81 00 c9 f1 24 ec a1 e5 3d 27           .r^"....$...='

00000590 <__ctors_start>:
     590:	b7 1c       	adc	r11, r7

00000592 <__ctors_end>:
     592:	de 1c       	adc	r13, r14

00000594 <__dtors_end>:
     594:	11 24       	eor	r1, r1
     596:	1f be       	out	0x3f, r1	; 63
     598:	cf ef       	ldi	r28, 0xFF	; 255
     59a:	d0 e4       	ldi	r29, 0x40	; 64
     59c:	de bf       	out	0x3e, r29	; 62
     59e:	cd bf       	out	0x3d, r28	; 61

000005a0 <_Z8wdt_initv>:
	for (uint8_t i = 0; i < nsamples; ++i ) {
		sum += ADC_Read( channel );
	}
	
	return (uint16_t)( sum / nsamples );
}
     5a0:	14 be       	out	0x34, r1	; 52
     5a2:	0f b6       	in	r0, 0x3f	; 63
     5a4:	f8 94       	cli
     5a6:	a8 95       	wdr
     5a8:	80 91 60 00 	lds	r24, 0x0060
     5ac:	88 61       	ori	r24, 0x18	; 24
     5ae:	80 93 60 00 	sts	0x0060, r24
     5b2:	10 92 60 00 	sts	0x0060, r1
     5b6:	0f be       	out	0x3f, r0	; 63

000005b8 <__do_copy_data>:
     5b8:	12 e0       	ldi	r17, 0x02	; 2
     5ba:	a0 e0       	ldi	r26, 0x00	; 0
     5bc:	b1 e0       	ldi	r27, 0x01	; 1
     5be:	e4 e7       	ldi	r30, 0x74	; 116
     5c0:	f1 e5       	ldi	r31, 0x51	; 81
     5c2:	00 e0       	ldi	r16, 0x00	; 0
     5c4:	0b bf       	out	0x3b, r16	; 59
     5c6:	02 c0       	rjmp	.+4      	; 0x5cc <__do_copy_data+0x14>
     5c8:	07 90       	elpm	r0, Z+
     5ca:	0d 92       	st	X+, r0
     5cc:	a8 3c       	cpi	r26, 0xC8	; 200
     5ce:	b1 07       	cpc	r27, r17
     5d0:	d9 f7       	brne	.-10     	; 0x5c8 <__do_copy_data+0x10>

000005d2 <__do_clear_bss>:
     5d2:	28 e0       	ldi	r18, 0x08	; 8
     5d4:	a8 ec       	ldi	r26, 0xC8	; 200
     5d6:	b2 e0       	ldi	r27, 0x02	; 2
     5d8:	01 c0       	rjmp	.+2      	; 0x5dc <.do_clear_bss_start>

000005da <.do_clear_bss_loop>:
     5da:	1d 92       	st	X+, r1

000005dc <.do_clear_bss_start>:
     5dc:	af 35       	cpi	r26, 0x5F	; 95
     5de:	b2 07       	cpc	r27, r18
     5e0:	e1 f7       	brne	.-8      	; 0x5da <.do_clear_bss_loop>

000005e2 <__do_global_ctors>:
     5e2:	12 e0       	ldi	r17, 0x02	; 2
     5e4:	c9 ec       	ldi	r28, 0xC9	; 201
     5e6:	d2 e0       	ldi	r29, 0x02	; 2
     5e8:	04 c0       	rjmp	.+8      	; 0x5f2 <__do_global_ctors+0x10>
     5ea:	21 97       	sbiw	r28, 0x01	; 1
     5ec:	fe 01       	movw	r30, r28
     5ee:	0e 94 c5 25 	call	0x4b8a	; 0x4b8a <__tablejump2__>
     5f2:	c8 3c       	cpi	r28, 0xC8	; 200
     5f4:	d1 07       	cpc	r29, r17
     5f6:	c9 f7       	brne	.-14     	; 0x5ea <__do_global_ctors+0x8>
     5f8:	0e 94 01 16 	call	0x2c02	; 0x2c02 <main>
     5fc:	0c 94 ae 28 	jmp	0x515c	; 0x515c <__do_global_dtors>

00000600 <__bad_interrupt>:
     600:	ff cc       	rjmp	.-1538   	; 0x0 <__vectors>

00000602 <_ZN7DisplayD1Ev>:
	else{
		for(uint8_t i = 0; i < 7; i++){
			Displayframe[x+(y/8)*SSD1306_WIDTH+i] |= 0;
		}
	}
}
     602:	9c 5f       	subi	r25, 0xFC	; 252
     604:	5a c4       	rjmp	.+2228   	; 0xeba <_ZN3I2CD1Ev>
     606:	08 95       	ret

00000608 <_ZN7Display10clearFrameEv>:
     608:	fc 01       	movw	r30, r24
     60a:	9c 5f       	subi	r25, 0xFC	; 252
     60c:	11 92       	st	Z+, r1
     60e:	e8 17       	cp	r30, r24
     610:	f9 07       	cpc	r31, r25
     612:	e1 f7       	brne	.-8      	; 0x60c <_ZN7Display10clearFrameEv+0x4>
     614:	08 95       	ret

00000616 <_ZN7Display15ssd1306_commandEh>:
     616:	1f 93       	push	r17
     618:	cf 93       	push	r28
     61a:	df 93       	push	r29
     61c:	16 2f       	mov	r17, r22
     61e:	ec 01       	movw	r28, r24
     620:	dc 5f       	subi	r29, 0xFC	; 252
     622:	ce 01       	movw	r24, r28
     624:	4b d4       	rcall	.+2198   	; 0xebc <_ZN3I2C9twi_startEv>
     626:	68 e7       	ldi	r22, 0x78	; 120
     628:	ce 01       	movw	r24, r28
     62a:	50 d4       	rcall	.+2208   	; 0xecc <_ZN3I2C9twi_writeEh>
     62c:	60 e0       	ldi	r22, 0x00	; 0
     62e:	ce 01       	movw	r24, r28
     630:	4d d4       	rcall	.+2202   	; 0xecc <_ZN3I2C9twi_writeEh>
     632:	61 2f       	mov	r22, r17
     634:	ce 01       	movw	r24, r28
     636:	4a d4       	rcall	.+2196   	; 0xecc <_ZN3I2C9twi_writeEh>
     638:	ce 01       	movw	r24, r28
     63a:	44 d4       	rcall	.+2184   	; 0xec4 <_ZN3I2C8twi_stopEv>
     63c:	df 91       	pop	r29
     63e:	cf 91       	pop	r28
     640:	1f 91       	pop	r17
     642:	08 95       	ret

00000644 <_ZN7Display17InitializeDisplayEv>:
     644:	cf 93       	push	r28
     646:	df 93       	push	r29
     648:	ec 01       	movw	r28, r24
     64a:	6e ea       	ldi	r22, 0xAE	; 174
     64c:	e4 df       	rcall	.-56     	; 0x616 <_ZN7Display15ssd1306_commandEh>
     64e:	65 ed       	ldi	r22, 0xD5	; 213
     650:	ce 01       	movw	r24, r28
     652:	e1 df       	rcall	.-62     	; 0x616 <_ZN7Display15ssd1306_commandEh>
     654:	60 e8       	ldi	r22, 0x80	; 128
     656:	ce 01       	movw	r24, r28
     658:	de df       	rcall	.-68     	; 0x616 <_ZN7Display15ssd1306_commandEh>
     65a:	68 ea       	ldi	r22, 0xA8	; 168
     65c:	ce 01       	movw	r24, r28
     65e:	db df       	rcall	.-74     	; 0x616 <_ZN7Display15ssd1306_commandEh>
     660:	6f e3       	ldi	r22, 0x3F	; 63
     662:	ce 01       	movw	r24, r28
     664:	d8 df       	rcall	.-80     	; 0x616 <_ZN7Display15ssd1306_commandEh>
     666:	63 ed       	ldi	r22, 0xD3	; 211
     668:	ce 01       	movw	r24, r28
     66a:	d5 df       	rcall	.-86     	; 0x616 <_ZN7Display15ssd1306_commandEh>
     66c:	60 e0       	ldi	r22, 0x00	; 0
     66e:	ce 01       	movw	r24, r28
     670:	d2 df       	rcall	.-92     	; 0x616 <_ZN7Display15ssd1306_commandEh>
     672:	60 e4       	ldi	r22, 0x40	; 64
     674:	ce 01       	movw	r24, r28
     676:	cf df       	rcall	.-98     	; 0x616 <_ZN7Display15ssd1306_commandEh>
     678:	6d e8       	ldi	r22, 0x8D	; 141
     67a:	ce 01       	movw	r24, r28
     67c:	cc df       	rcall	.-104    	; 0x616 <_ZN7Display15ssd1306_commandEh>
     67e:	64 e1       	ldi	r22, 0x14	; 20
     680:	ce 01       	movw	r24, r28
     682:	c9 df       	rcall	.-110    	; 0x616 <_ZN7Display15ssd1306_commandEh>
     684:	60 e2       	ldi	r22, 0x20	; 32
     686:	ce 01       	movw	r24, r28
     688:	c6 df       	rcall	.-116    	; 0x616 <_ZN7Display15ssd1306_commandEh>
     68a:	60 e0       	ldi	r22, 0x00	; 0
     68c:	ce 01       	movw	r24, r28
     68e:	c3 df       	rcall	.-122    	; 0x616 <_ZN7Display15ssd1306_commandEh>
     690:	61 ea       	ldi	r22, 0xA1	; 161
     692:	ce 01       	movw	r24, r28
     694:	c0 df       	rcall	.-128    	; 0x616 <_ZN7Display15ssd1306_commandEh>
     696:	68 ec       	ldi	r22, 0xC8	; 200
     698:	ce 01       	movw	r24, r28
     69a:	bd df       	rcall	.-134    	; 0x616 <_ZN7Display15ssd1306_commandEh>
     69c:	6a ed       	ldi	r22, 0xDA	; 218
     69e:	ce 01       	movw	r24, r28
     6a0:	ba df       	rcall	.-140    	; 0x616 <_ZN7Display15ssd1306_commandEh>
     6a2:	62 e1       	ldi	r22, 0x12	; 18
     6a4:	ce 01       	movw	r24, r28
     6a6:	b7 df       	rcall	.-146    	; 0x616 <_ZN7Display15ssd1306_commandEh>
     6a8:	61 e8       	ldi	r22, 0x81	; 129
     6aa:	ce 01       	movw	r24, r28
     6ac:	b4 df       	rcall	.-152    	; 0x616 <_ZN7Display15ssd1306_commandEh>
     6ae:	6f ec       	ldi	r22, 0xCF	; 207
     6b0:	ce 01       	movw	r24, r28
     6b2:	b1 df       	rcall	.-158    	; 0x616 <_ZN7Display15ssd1306_commandEh>
     6b4:	69 ed       	ldi	r22, 0xD9	; 217
     6b6:	ce 01       	movw	r24, r28
     6b8:	ae df       	rcall	.-164    	; 0x616 <_ZN7Display15ssd1306_commandEh>
     6ba:	61 ef       	ldi	r22, 0xF1	; 241
     6bc:	ce 01       	movw	r24, r28
     6be:	ab df       	rcall	.-170    	; 0x616 <_ZN7Display15ssd1306_commandEh>
     6c0:	6b ed       	ldi	r22, 0xDB	; 219
     6c2:	ce 01       	movw	r24, r28
     6c4:	a8 df       	rcall	.-176    	; 0x616 <_ZN7Display15ssd1306_commandEh>
     6c6:	60 e4       	ldi	r22, 0x40	; 64
     6c8:	ce 01       	movw	r24, r28
     6ca:	a5 df       	rcall	.-182    	; 0x616 <_ZN7Display15ssd1306_commandEh>
     6cc:	64 ea       	ldi	r22, 0xA4	; 164
     6ce:	ce 01       	movw	r24, r28
     6d0:	a2 df       	rcall	.-188    	; 0x616 <_ZN7Display15ssd1306_commandEh>
     6d2:	66 ea       	ldi	r22, 0xA6	; 166
     6d4:	ce 01       	movw	r24, r28
     6d6:	9f df       	rcall	.-194    	; 0x616 <_ZN7Display15ssd1306_commandEh>
     6d8:	6f ea       	ldi	r22, 0xAF	; 175
     6da:	ce 01       	movw	r24, r28
     6dc:	9c df       	rcall	.-200    	; 0x616 <_ZN7Display15ssd1306_commandEh>
     6de:	df 91       	pop	r29
     6e0:	cf 91       	pop	r28
     6e2:	08 95       	ret

000006e4 <_ZN7DisplayC1Ev>:
     6e4:	cf 93       	push	r28
     6e6:	df 93       	push	r29
     6e8:	ec 01       	movw	r28, r24
     6ea:	9c 5f       	subi	r25, 0xFC	; 252
     6ec:	e2 d3       	rcall	.+1988   	; 0xeb2 <_ZN3I2CC1Ev>
     6ee:	ce 01       	movw	r24, r28
     6f0:	a9 df       	rcall	.-174    	; 0x644 <_ZN7Display17InitializeDisplayEv>
     6f2:	ce 01       	movw	r24, r28
     6f4:	89 df       	rcall	.-238    	; 0x608 <_ZN7Display10clearFrameEv>
     6f6:	df 91       	pop	r29
     6f8:	cf 91       	pop	r28
     6fa:	08 95       	ret

000006fc <_ZN7Display9sendFrameEv>:
     6fc:	ef 92       	push	r14
     6fe:	ff 92       	push	r15
     700:	0f 93       	push	r16
     702:	1f 93       	push	r17
     704:	cf 93       	push	r28
     706:	df 93       	push	r29
     708:	ec 01       	movw	r28, r24
     70a:	61 e2       	ldi	r22, 0x21	; 33
     70c:	84 df       	rcall	.-248    	; 0x616 <_ZN7Display15ssd1306_commandEh>
     70e:	60 e0       	ldi	r22, 0x00	; 0
     710:	ce 01       	movw	r24, r28
     712:	81 df       	rcall	.-254    	; 0x616 <_ZN7Display15ssd1306_commandEh>
     714:	6f e7       	ldi	r22, 0x7F	; 127
     716:	ce 01       	movw	r24, r28
     718:	7e df       	rcall	.-260    	; 0x616 <_ZN7Display15ssd1306_commandEh>
     71a:	62 e2       	ldi	r22, 0x22	; 34
     71c:	ce 01       	movw	r24, r28
     71e:	7b df       	rcall	.-266    	; 0x616 <_ZN7Display15ssd1306_commandEh>
     720:	60 e0       	ldi	r22, 0x00	; 0
     722:	ce 01       	movw	r24, r28
     724:	78 df       	rcall	.-272    	; 0x616 <_ZN7Display15ssd1306_commandEh>
     726:	67 e0       	ldi	r22, 0x07	; 7
     728:	ce 01       	movw	r24, r28
     72a:	75 df       	rcall	.-278    	; 0x616 <_ZN7Display15ssd1306_commandEh>
     72c:	8e 01       	movw	r16, r28
     72e:	1c 5f       	subi	r17, 0xFC	; 252
     730:	c8 01       	movw	r24, r16
     732:	c4 d3       	rcall	.+1928   	; 0xebc <_ZN3I2C9twi_startEv>
     734:	68 e7       	ldi	r22, 0x78	; 120
     736:	c8 01       	movw	r24, r16
     738:	c9 d3       	rcall	.+1938   	; 0xecc <_ZN3I2C9twi_writeEh>
     73a:	60 e4       	ldi	r22, 0x40	; 64
     73c:	c8 01       	movw	r24, r16
     73e:	c6 d3       	rcall	.+1932   	; 0xecc <_ZN3I2C9twi_writeEh>
     740:	78 01       	movw	r14, r16
     742:	69 91       	ld	r22, Y+
     744:	c8 01       	movw	r24, r16
     746:	c2 d3       	rcall	.+1924   	; 0xecc <_ZN3I2C9twi_writeEh>
     748:	ce 15       	cp	r28, r14
     74a:	df 05       	cpc	r29, r15
     74c:	d1 f7       	brne	.-12     	; 0x742 <_ZN7Display9sendFrameEv+0x46>
     74e:	c8 01       	movw	r24, r16
     750:	b9 d3       	rcall	.+1906   	; 0xec4 <_ZN3I2C8twi_stopEv>
     752:	df 91       	pop	r29
     754:	cf 91       	pop	r28
     756:	1f 91       	pop	r17
     758:	0f 91       	pop	r16
     75a:	ff 90       	pop	r15
     75c:	ef 90       	pop	r14
     75e:	08 95       	ret

00000760 <_ZN7Display9drawPixelEhhh>:
     760:	66 23       	and	r22, r22
     762:	ac f1       	brlt	.+106    	; 0x7ce <_ZN7Display9drawPixelEhhh+0x6e>
     764:	40 34       	cpi	r20, 0x40	; 64
     766:	98 f5       	brcc	.+102    	; 0x7ce <_ZN7Display9drawPixelEhhh+0x6e>
     768:	21 11       	cpse	r18, r1
     76a:	19 c0       	rjmp	.+50     	; 0x79e <_ZN7Display9drawPixelEhhh+0x3e>
     76c:	24 2f       	mov	r18, r20
     76e:	26 95       	lsr	r18
     770:	26 95       	lsr	r18
     772:	26 95       	lsr	r18
     774:	50 e8       	ldi	r21, 0x80	; 128
     776:	25 9f       	mul	r18, r21
     778:	90 01       	movw	r18, r0
     77a:	11 24       	eor	r1, r1
     77c:	26 0f       	add	r18, r22
     77e:	31 1d       	adc	r19, r1
     780:	fc 01       	movw	r30, r24
     782:	e2 0f       	add	r30, r18
     784:	f3 1f       	adc	r31, r19
     786:	47 70       	andi	r20, 0x07	; 7
     788:	81 e0       	ldi	r24, 0x01	; 1
     78a:	90 e0       	ldi	r25, 0x00	; 0
     78c:	02 c0       	rjmp	.+4      	; 0x792 <_ZN7Display9drawPixelEhhh+0x32>
     78e:	88 0f       	add	r24, r24
     790:	99 1f       	adc	r25, r25
     792:	4a 95       	dec	r20
     794:	e2 f7       	brpl	.-8      	; 0x78e <_ZN7Display9drawPixelEhhh+0x2e>
     796:	90 81       	ld	r25, Z
     798:	89 2b       	or	r24, r25
     79a:	80 83       	st	Z, r24
     79c:	08 95       	ret
     79e:	24 2f       	mov	r18, r20
     7a0:	26 95       	lsr	r18
     7a2:	26 95       	lsr	r18
     7a4:	26 95       	lsr	r18
     7a6:	30 e8       	ldi	r19, 0x80	; 128
     7a8:	23 9f       	mul	r18, r19
     7aa:	f0 01       	movw	r30, r0
     7ac:	11 24       	eor	r1, r1
     7ae:	e6 0f       	add	r30, r22
     7b0:	f1 1d       	adc	r31, r1
     7b2:	e8 0f       	add	r30, r24
     7b4:	f9 1f       	adc	r31, r25
     7b6:	47 70       	andi	r20, 0x07	; 7
     7b8:	81 e0       	ldi	r24, 0x01	; 1
     7ba:	90 e0       	ldi	r25, 0x00	; 0
     7bc:	02 c0       	rjmp	.+4      	; 0x7c2 <_ZN7Display9drawPixelEhhh+0x62>
     7be:	88 0f       	add	r24, r24
     7c0:	99 1f       	adc	r25, r25
     7c2:	4a 95       	dec	r20
     7c4:	e2 f7       	brpl	.-8      	; 0x7be <_ZN7Display9drawPixelEhhh+0x5e>
     7c6:	80 95       	com	r24
     7c8:	90 81       	ld	r25, Z
     7ca:	89 23       	and	r24, r25
     7cc:	80 83       	st	Z, r24
     7ce:	08 95       	ret

000007d0 <_ZN7Display9drawVLineEhhh>:
     7d0:	ff 92       	push	r15
     7d2:	0f 93       	push	r16
     7d4:	1f 93       	push	r17
     7d6:	cf 93       	push	r28
     7d8:	df 93       	push	r29
     7da:	22 23       	and	r18, r18
     7dc:	69 f0       	breq	.+26     	; 0x7f8 <_ZN7Display9drawVLineEhhh+0x28>
     7de:	c4 2f       	mov	r28, r20
     7e0:	f6 2e       	mov	r15, r22
     7e2:	8c 01       	movw	r16, r24
     7e4:	d2 2f       	mov	r29, r18
     7e6:	d4 0f       	add	r29, r20
     7e8:	20 e0       	ldi	r18, 0x00	; 0
     7ea:	4c 2f       	mov	r20, r28
     7ec:	6f 2d       	mov	r22, r15
     7ee:	c8 01       	movw	r24, r16
     7f0:	b7 df       	rcall	.-146    	; 0x760 <_ZN7Display9drawPixelEhhh>
     7f2:	cf 5f       	subi	r28, 0xFF	; 255
     7f4:	cd 13       	cpse	r28, r29
     7f6:	f8 cf       	rjmp	.-16     	; 0x7e8 <_ZN7Display9drawVLineEhhh+0x18>
     7f8:	df 91       	pop	r29
     7fa:	cf 91       	pop	r28
     7fc:	1f 91       	pop	r17
     7fe:	0f 91       	pop	r16
     800:	ff 90       	pop	r15
     802:	08 95       	ret

00000804 <_ZN7Display9drawHLineEhhh>:
     804:	ff 92       	push	r15
     806:	0f 93       	push	r16
     808:	1f 93       	push	r17
     80a:	cf 93       	push	r28
     80c:	df 93       	push	r29
     80e:	22 23       	and	r18, r18
     810:	69 f0       	breq	.+26     	; 0x82c <_ZN7Display9drawHLineEhhh+0x28>
     812:	f4 2e       	mov	r15, r20
     814:	c6 2f       	mov	r28, r22
     816:	8c 01       	movw	r16, r24
     818:	d2 2f       	mov	r29, r18
     81a:	d6 0f       	add	r29, r22
     81c:	20 e0       	ldi	r18, 0x00	; 0
     81e:	4f 2d       	mov	r20, r15
     820:	6c 2f       	mov	r22, r28
     822:	c8 01       	movw	r24, r16
     824:	9d df       	rcall	.-198    	; 0x760 <_ZN7Display9drawPixelEhhh>
     826:	cf 5f       	subi	r28, 0xFF	; 255
     828:	cd 13       	cpse	r28, r29
     82a:	f8 cf       	rjmp	.-16     	; 0x81c <_ZN7Display9drawHLineEhhh+0x18>
     82c:	df 91       	pop	r29
     82e:	cf 91       	pop	r28
     830:	1f 91       	pop	r17
     832:	0f 91       	pop	r16
     834:	ff 90       	pop	r15
     836:	08 95       	ret

00000838 <_ZN7Display9draw_ASCIEhhh>:
     838:	0f 93       	push	r16
     83a:	1f 93       	push	r17
     83c:	cf 93       	push	r28
     83e:	df 93       	push	r29
     840:	61 32       	cpi	r22, 0x21	; 33
     842:	08 f4       	brcc	.+2      	; 0x846 <_ZN7Display9draw_ASCIEhhh+0xe>
     844:	3e c0       	rjmp	.+124    	; 0x8c2 <_ZN7Display9draw_ASCIEhhh+0x8a>
     846:	a4 2f       	mov	r26, r20
     848:	b0 e0       	ldi	r27, 0x00	; 0
     84a:	02 2f       	mov	r16, r18
     84c:	06 95       	lsr	r16
     84e:	06 95       	lsr	r16
     850:	06 95       	lsr	r16
     852:	30 e8       	ldi	r19, 0x80	; 128
     854:	03 9f       	mul	r16, r19
     856:	80 01       	movw	r16, r0
     858:	11 24       	eor	r1, r1
     85a:	61 52       	subi	r22, 0x21	; 33
     85c:	70 e0       	ldi	r23, 0x00	; 0
     85e:	fb 01       	movw	r30, r22
     860:	ee 0f       	add	r30, r30
     862:	ff 1f       	adc	r31, r31
     864:	ee 0f       	add	r30, r30
     866:	ff 1f       	adc	r31, r31
     868:	e6 0f       	add	r30, r22
     86a:	f7 1f       	adc	r31, r23
     86c:	e8 54       	subi	r30, 0x48	; 72
     86e:	fd 4f       	sbci	r31, 0xFD	; 253
     870:	ad 01       	movw	r20, r26
     872:	40 0f       	add	r20, r16
     874:	51 1f       	adc	r21, r17
     876:	ec 01       	movw	r28, r24
     878:	c4 0f       	add	r28, r20
     87a:	d5 1f       	adc	r29, r21
     87c:	00 58       	subi	r16, 0x80	; 128
     87e:	1f 4f       	sbci	r17, 0xFF	; 255
     880:	a0 0f       	add	r26, r16
     882:	b1 1f       	adc	r27, r17
     884:	a8 0f       	add	r26, r24
     886:	b9 1f       	adc	r27, r25
     888:	4b 5f       	subi	r20, 0xFB	; 251
     88a:	5f 4f       	sbci	r21, 0xFF	; 255
     88c:	48 0f       	add	r20, r24
     88e:	59 1f       	adc	r21, r25
     890:	27 70       	andi	r18, 0x07	; 7
     892:	64 91       	lpm	r22, Z
     894:	70 e0       	ldi	r23, 0x00	; 0
     896:	02 2e       	mov	r0, r18
     898:	02 c0       	rjmp	.+4      	; 0x89e <_ZN7Display9draw_ASCIEhhh+0x66>
     89a:	66 0f       	add	r22, r22
     89c:	77 1f       	adc	r23, r23
     89e:	0a 94       	dec	r0
     8a0:	e2 f7       	brpl	.-8      	; 0x89a <_ZN7Display9draw_ASCIEhhh+0x62>
     8a2:	98 81       	ld	r25, Y
     8a4:	96 2b       	or	r25, r22
     8a6:	99 93       	st	Y+, r25
     8a8:	67 2f       	mov	r22, r23
     8aa:	77 27       	eor	r23, r23
     8ac:	61 15       	cp	r22, r1
     8ae:	71 05       	cpc	r23, r1
     8b0:	19 f0       	breq	.+6      	; 0x8b8 <_ZN7Display9draw_ASCIEhhh+0x80>
     8b2:	8c 91       	ld	r24, X
     8b4:	68 2b       	or	r22, r24
     8b6:	6c 93       	st	X, r22
     8b8:	31 96       	adiw	r30, 0x01	; 1
     8ba:	11 96       	adiw	r26, 0x01	; 1
     8bc:	c4 17       	cp	r28, r20
     8be:	d5 07       	cpc	r29, r21
     8c0:	41 f7       	brne	.-48     	; 0x892 <_ZN7Display9draw_ASCIEhhh+0x5a>
     8c2:	df 91       	pop	r29
     8c4:	cf 91       	pop	r28
     8c6:	1f 91       	pop	r17
     8c8:	0f 91       	pop	r16
     8ca:	08 95       	ret

000008cc <_ZN7Display16draw_number16x16Ehhh>:
     8cc:	cf 92       	push	r12
     8ce:	df 92       	push	r13
     8d0:	ef 92       	push	r14
     8d2:	ff 92       	push	r15
     8d4:	0f 93       	push	r16
     8d6:	1f 93       	push	r17
     8d8:	cf 93       	push	r28
     8da:	df 93       	push	r29
     8dc:	6a 30       	cpi	r22, 0x0A	; 10
     8de:	08 f0       	brcs	.+2      	; 0x8e2 <_ZN7Display16draw_number16x16Ehhh+0x16>
     8e0:	66 c0       	rjmp	.+204    	; 0x9ae <_ZN7Display16draw_number16x16Ehhh+0xe2>
     8e2:	50 e0       	ldi	r21, 0x00	; 0
     8e4:	02 2f       	mov	r16, r18
     8e6:	06 95       	lsr	r16
     8e8:	06 95       	lsr	r16
     8ea:	06 95       	lsr	r16
     8ec:	10 e0       	ldi	r17, 0x00	; 0
     8ee:	d8 01       	movw	r26, r16
     8f0:	b6 95       	lsr	r27
     8f2:	ba 2f       	mov	r27, r26
     8f4:	aa 27       	eor	r26, r26
     8f6:	b7 95       	ror	r27
     8f8:	a7 95       	ror	r26
     8fa:	0f 5f       	subi	r16, 0xFF	; 255
     8fc:	1f 4f       	sbci	r17, 0xFF	; 255
     8fe:	16 95       	lsr	r17
     900:	10 2f       	mov	r17, r16
     902:	00 27       	eor	r16, r16
     904:	17 95       	ror	r17
     906:	07 95       	ror	r16
     908:	7d 01       	movw	r14, r26
     90a:	30 e8       	ldi	r19, 0x80	; 128
     90c:	e3 0e       	add	r14, r19
     90e:	f1 1c       	adc	r15, r1
     910:	e4 0e       	add	r14, r20
     912:	f5 1e       	adc	r15, r21
     914:	e8 0e       	add	r14, r24
     916:	f9 1e       	adc	r15, r25
     918:	ea 01       	movw	r28, r20
     91a:	c0 0f       	add	r28, r16
     91c:	d1 1f       	adc	r29, r17
     91e:	60 97       	sbiw	r28, 0x10	; 16
     920:	c8 0f       	add	r28, r24
     922:	d9 1f       	adc	r29, r25
     924:	04 0f       	add	r16, r20
     926:	15 1f       	adc	r17, r21
     928:	00 59       	subi	r16, 0x90	; 144
     92a:	1f 4f       	sbci	r17, 0xFF	; 255
     92c:	08 0f       	add	r16, r24
     92e:	19 1f       	adc	r17, r25
     930:	a4 0f       	add	r26, r20
     932:	b5 1f       	adc	r27, r21
     934:	a8 0f       	add	r26, r24
     936:	b9 1f       	adc	r27, r25
     938:	80 e2       	ldi	r24, 0x20	; 32
     93a:	68 9f       	mul	r22, r24
     93c:	b0 01       	movw	r22, r0
     93e:	11 24       	eor	r1, r1
     940:	40 e0       	ldi	r20, 0x00	; 0
     942:	50 e0       	ldi	r21, 0x00	; 0
     944:	27 70       	andi	r18, 0x07	; 7
     946:	fa 01       	movw	r30, r20
     948:	e6 0f       	add	r30, r22
     94a:	f7 1f       	adc	r31, r23
     94c:	e8 58       	subi	r30, 0x88	; 136
     94e:	fe 4f       	sbci	r31, 0xFE	; 254
     950:	e4 91       	lpm	r30, Z
     952:	f0 e0       	ldi	r31, 0x00	; 0
     954:	02 2e       	mov	r0, r18
     956:	02 c0       	rjmp	.+4      	; 0x95c <_ZN7Display16draw_number16x16Ehhh+0x90>
     958:	ee 0f       	add	r30, r30
     95a:	ff 1f       	adc	r31, r31
     95c:	0a 94       	dec	r0
     95e:	e2 f7       	brpl	.-8      	; 0x958 <_ZN7Display16draw_number16x16Ehhh+0x8c>
     960:	40 31       	cpi	r20, 0x10	; 16
     962:	68 f4       	brcc	.+26     	; 0x97e <_ZN7Display16draw_number16x16Ehhh+0xb2>
     964:	8c 91       	ld	r24, X
     966:	8e 2b       	or	r24, r30
     968:	8c 93       	st	X, r24
     96a:	cf 2e       	mov	r12, r31
     96c:	dd 24       	eor	r13, r13
     96e:	c1 14       	cp	r12, r1
     970:	d1 04       	cpc	r13, r1
     972:	89 f0       	breq	.+34     	; 0x996 <_ZN7Display16draw_number16x16Ehhh+0xca>
     974:	f7 01       	movw	r30, r14
     976:	80 81       	ld	r24, Z
     978:	8c 29       	or	r24, r12
     97a:	80 83       	st	Z, r24
     97c:	0c c0       	rjmp	.+24     	; 0x996 <_ZN7Display16draw_number16x16Ehhh+0xca>
     97e:	88 81       	ld	r24, Y
     980:	8e 2b       	or	r24, r30
     982:	88 83       	st	Y, r24
     984:	cf 2e       	mov	r12, r31
     986:	dd 24       	eor	r13, r13
     988:	c1 14       	cp	r12, r1
     98a:	d1 04       	cpc	r13, r1
     98c:	21 f0       	breq	.+8      	; 0x996 <_ZN7Display16draw_number16x16Ehhh+0xca>
     98e:	f8 01       	movw	r30, r16
     990:	80 81       	ld	r24, Z
     992:	8c 29       	or	r24, r12
     994:	80 83       	st	Z, r24
     996:	4f 5f       	subi	r20, 0xFF	; 255
     998:	5f 4f       	sbci	r21, 0xFF	; 255
     99a:	ff ef       	ldi	r31, 0xFF	; 255
     99c:	ef 1a       	sub	r14, r31
     99e:	ff 0a       	sbc	r15, r31
     9a0:	21 96       	adiw	r28, 0x01	; 1
     9a2:	0f 5f       	subi	r16, 0xFF	; 255
     9a4:	1f 4f       	sbci	r17, 0xFF	; 255
     9a6:	11 96       	adiw	r26, 0x01	; 1
     9a8:	40 32       	cpi	r20, 0x20	; 32
     9aa:	51 05       	cpc	r21, r1
     9ac:	61 f6       	brne	.-104    	; 0x946 <_ZN7Display16draw_number16x16Ehhh+0x7a>
     9ae:	df 91       	pop	r29
     9b0:	cf 91       	pop	r28
     9b2:	1f 91       	pop	r17
     9b4:	0f 91       	pop	r16
     9b6:	ff 90       	pop	r15
     9b8:	ef 90       	pop	r14
     9ba:	df 90       	pop	r13
     9bc:	cf 90       	pop	r12
     9be:	08 95       	ret

000009c0 <_ZN7Display6analogEhhhh>:

void Display::analog(uint8_t stunde, uint8_t minute, uint8_t sekunde, uint8_t sekanzeige){
     9c0:	2f 92       	push	r2
     9c2:	3f 92       	push	r3
     9c4:	4f 92       	push	r4
     9c6:	5f 92       	push	r5
     9c8:	6f 92       	push	r6
     9ca:	7f 92       	push	r7
     9cc:	8f 92       	push	r8
     9ce:	9f 92       	push	r9
     9d0:	af 92       	push	r10
     9d2:	bf 92       	push	r11
     9d4:	cf 92       	push	r12
     9d6:	df 92       	push	r13
     9d8:	ef 92       	push	r14
     9da:	ff 92       	push	r15
     9dc:	0f 93       	push	r16
     9de:	1f 93       	push	r17
     9e0:	cf 93       	push	r28
     9e2:	df 93       	push	r29
     9e4:	cd b7       	in	r28, 0x3d	; 61
     9e6:	de b7       	in	r29, 0x3e	; 62
     9e8:	27 97       	sbiw	r28, 0x07	; 7
     9ea:	0f b6       	in	r0, 0x3f	; 63
     9ec:	f8 94       	cli
     9ee:	de bf       	out	0x3e, r29	; 62
     9f0:	0f be       	out	0x3f, r0	; 63
     9f2:	cd bf       	out	0x3d, r28	; 61
     9f4:	9f 83       	std	Y+7, r25	; 0x07
     9f6:	8e 83       	std	Y+6, r24	; 0x06
     9f8:	6d 83       	std	Y+5, r22	; 0x05
     9fa:	34 2e       	mov	r3, r20
	uint8_t Px=32-1;
	uint8_t Py=32-1;
	uint8_t x=0,y=0;
	float winkel=0;
	
	if (sekanzeige)
     9fc:	00 23       	and	r16, r16
     9fe:	09 f4       	brne	.+2      	; 0xa02 <_ZN7Display6analogEhhhh+0x42>
     a00:	26 c1       	rjmp	.+588    	; 0xc4e <_ZN7Display6analogEhhhh+0x28e>
	{
		//Berechnen des Sekundenzeigers
		for(uint8_t i=0;i<r;i++){
			winkel=(sekunde*6.0)*M_PI/180.0-M_PI/2.0;
     a02:	62 2f       	mov	r22, r18
     a04:	70 e0       	ldi	r23, 0x00	; 0
     a06:	80 e0       	ldi	r24, 0x00	; 0
     a08:	90 e0       	ldi	r25, 0x00	; 0
     a0a:	0e 94 81 20 	call	0x4102	; 0x4102 <__floatsisf>
     a0e:	20 e0       	ldi	r18, 0x00	; 0
     a10:	30 e0       	ldi	r19, 0x00	; 0
     a12:	40 ec       	ldi	r20, 0xC0	; 192
     a14:	50 e4       	ldi	r21, 0x40	; 64
     a16:	0e 94 93 21 	call	0x4326	; 0x4326 <__mulsf3>
     a1a:	2b ed       	ldi	r18, 0xDB	; 219
     a1c:	3f e0       	ldi	r19, 0x0F	; 15
     a1e:	49 e4       	ldi	r20, 0x49	; 73
     a20:	50 e4       	ldi	r21, 0x40	; 64
     a22:	0e 94 93 21 	call	0x4326	; 0x4326 <__mulsf3>
     a26:	20 e0       	ldi	r18, 0x00	; 0
     a28:	30 e0       	ldi	r19, 0x00	; 0
     a2a:	44 e3       	ldi	r20, 0x34	; 52
     a2c:	53 e4       	ldi	r21, 0x43	; 67
     a2e:	0e 94 e6 1f 	call	0x3fcc	; 0x3fcc <__divsf3>
     a32:	2b ed       	ldi	r18, 0xDB	; 219
     a34:	3f e0       	ldi	r19, 0x0F	; 15
     a36:	49 ec       	ldi	r20, 0xC9	; 201
     a38:	5f e3       	ldi	r21, 0x3F	; 63
     a3a:	0e 94 7e 1f 	call	0x3efc	; 0x3efc <__subsf3>
     a3e:	6b 01       	movw	r12, r22
     a40:	7c 01       	movw	r14, r24
			x=(uint8_t) i*cos(winkel)+Px;
     a42:	0e 94 e3 1f 	call	0x3fc6	; 0x3fc6 <cos>
     a46:	4b 01       	movw	r8, r22
     a48:	5c 01       	movw	r10, r24
			y=(uint8_t) i*sin(winkel)+Py;
     a4a:	c7 01       	movw	r24, r14
     a4c:	b6 01       	movw	r22, r12
     a4e:	0e 94 f6 21 	call	0x43ec	; 0x43ec <sin>
     a52:	2b 01       	movw	r4, r22
     a54:	3c 01       	movw	r6, r24
     a56:	00 e0       	ldi	r16, 0x00	; 0
     a58:	10 e0       	ldi	r17, 0x00	; 0
	if (sekanzeige)
	{
		//Berechnen des Sekundenzeigers
		for(uint8_t i=0;i<r;i++){
			winkel=(sekunde*6.0)*M_PI/180.0-M_PI/2.0;
			x=(uint8_t) i*cos(winkel)+Px;
     a5a:	b8 01       	movw	r22, r16
     a5c:	01 2e       	mov	r0, r17
     a5e:	00 0c       	add	r0, r0
     a60:	88 0b       	sbc	r24, r24
     a62:	99 0b       	sbc	r25, r25
     a64:	0e 94 81 20 	call	0x4102	; 0x4102 <__floatsisf>
     a68:	6b 01       	movw	r12, r22
     a6a:	7c 01       	movw	r14, r24
			y=(uint8_t) i*sin(winkel)+Py;
     a6c:	a3 01       	movw	r20, r6
     a6e:	92 01       	movw	r18, r4
     a70:	0e 94 93 21 	call	0x4326	; 0x4326 <__mulsf3>
     a74:	20 e0       	ldi	r18, 0x00	; 0
     a76:	30 e0       	ldi	r19, 0x00	; 0
     a78:	48 ef       	ldi	r20, 0xF8	; 248
     a7a:	51 e4       	ldi	r21, 0x41	; 65
     a7c:	0e 94 7f 1f 	call	0x3efe	; 0x3efe <__addsf3>
     a80:	0e 94 53 20 	call	0x40a6	; 0x40a6 <__fixunssfsi>
     a84:	26 2e       	mov	r2, r22
	if (sekanzeige)
	{
		//Berechnen des Sekundenzeigers
		for(uint8_t i=0;i<r;i++){
			winkel=(sekunde*6.0)*M_PI/180.0-M_PI/2.0;
			x=(uint8_t) i*cos(winkel)+Px;
     a86:	a5 01       	movw	r20, r10
     a88:	94 01       	movw	r18, r8
     a8a:	c7 01       	movw	r24, r14
     a8c:	b6 01       	movw	r22, r12
     a8e:	0e 94 93 21 	call	0x4326	; 0x4326 <__mulsf3>
     a92:	20 e0       	ldi	r18, 0x00	; 0
     a94:	30 e0       	ldi	r19, 0x00	; 0
     a96:	48 ef       	ldi	r20, 0xF8	; 248
     a98:	51 e4       	ldi	r21, 0x41	; 65
     a9a:	0e 94 7f 1f 	call	0x3efe	; 0x3efe <__addsf3>
     a9e:	0e 94 53 20 	call	0x40a6	; 0x40a6 <__fixunssfsi>
			y=(uint8_t) i*sin(winkel)+Py;

			drawPixel(x,y,0);
     aa2:	20 e0       	ldi	r18, 0x00	; 0
     aa4:	42 2d       	mov	r20, r2
     aa6:	8e 81       	ldd	r24, Y+6	; 0x06
     aa8:	9f 81       	ldd	r25, Y+7	; 0x07
     aaa:	5a de       	rcall	.-844    	; 0x760 <_ZN7Display9drawPixelEhhh>
     aac:	0f 5f       	subi	r16, 0xFF	; 255
     aae:	1f 4f       	sbci	r17, 0xFF	; 255
	float winkel=0;
	
	if (sekanzeige)
	{
		//Berechnen des Sekundenzeigers
		for(uint8_t i=0;i<r;i++){
     ab0:	09 31       	cpi	r16, 0x19	; 25
     ab2:	11 05       	cpc	r17, r1
     ab4:	91 f6       	brne	.-92     	; 0xa5a <_ZN7Display6analogEhhhh+0x9a>
		}

		r=21;
		//Berechnen des Minutenzeigers
		for(uint8_t i=0;i<r;i++){
			winkel=(minute*6.0)*M_PI/180.0-M_PI/2.0;
     ab6:	63 2d       	mov	r22, r3
     ab8:	70 e0       	ldi	r23, 0x00	; 0
     aba:	80 e0       	ldi	r24, 0x00	; 0
     abc:	90 e0       	ldi	r25, 0x00	; 0
     abe:	0e 94 81 20 	call	0x4102	; 0x4102 <__floatsisf>
     ac2:	69 83       	std	Y+1, r22	; 0x01
     ac4:	7a 83       	std	Y+2, r23	; 0x02
     ac6:	8b 83       	std	Y+3, r24	; 0x03
     ac8:	9c 83       	std	Y+4, r25	; 0x04
     aca:	20 e0       	ldi	r18, 0x00	; 0
     acc:	30 e0       	ldi	r19, 0x00	; 0
     ace:	40 ec       	ldi	r20, 0xC0	; 192
     ad0:	50 e4       	ldi	r21, 0x40	; 64
     ad2:	0e 94 93 21 	call	0x4326	; 0x4326 <__mulsf3>
     ad6:	2b ed       	ldi	r18, 0xDB	; 219
     ad8:	3f e0       	ldi	r19, 0x0F	; 15
     ada:	49 e4       	ldi	r20, 0x49	; 73
     adc:	50 e4       	ldi	r21, 0x40	; 64
     ade:	0e 94 93 21 	call	0x4326	; 0x4326 <__mulsf3>
     ae2:	20 e0       	ldi	r18, 0x00	; 0
     ae4:	30 e0       	ldi	r19, 0x00	; 0
     ae6:	44 e3       	ldi	r20, 0x34	; 52
     ae8:	53 e4       	ldi	r21, 0x43	; 67
     aea:	0e 94 e6 1f 	call	0x3fcc	; 0x3fcc <__divsf3>
     aee:	2b ed       	ldi	r18, 0xDB	; 219
     af0:	3f e0       	ldi	r19, 0x0F	; 15
     af2:	49 ec       	ldi	r20, 0xC9	; 201
     af4:	5f e3       	ldi	r21, 0x3F	; 63
     af6:	0e 94 7e 1f 	call	0x3efc	; 0x3efc <__subsf3>
     afa:	6b 01       	movw	r12, r22
     afc:	7c 01       	movw	r14, r24
			x=(uint8_t) i*cos(winkel)+Px;
     afe:	0e 94 e3 1f 	call	0x3fc6	; 0x3fc6 <cos>
     b02:	2b 01       	movw	r4, r22
     b04:	3c 01       	movw	r6, r24
			y=(uint8_t) i*sin(winkel)+Py;
     b06:	c7 01       	movw	r24, r14
     b08:	b6 01       	movw	r22, r12
     b0a:	0e 94 f6 21 	call	0x43ec	; 0x43ec <sin>
     b0e:	4b 01       	movw	r8, r22
     b10:	5c 01       	movw	r10, r24
     b12:	00 e0       	ldi	r16, 0x00	; 0
     b14:	10 e0       	ldi	r17, 0x00	; 0

		r=21;
		//Berechnen des Minutenzeigers
		for(uint8_t i=0;i<r;i++){
			winkel=(minute*6.0)*M_PI/180.0-M_PI/2.0;
			x=(uint8_t) i*cos(winkel)+Px;
     b16:	b8 01       	movw	r22, r16
     b18:	01 2e       	mov	r0, r17
     b1a:	00 0c       	add	r0, r0
     b1c:	88 0b       	sbc	r24, r24
     b1e:	99 0b       	sbc	r25, r25
     b20:	0e 94 81 20 	call	0x4102	; 0x4102 <__floatsisf>
     b24:	6b 01       	movw	r12, r22
     b26:	7c 01       	movw	r14, r24
			y=(uint8_t) i*sin(winkel)+Py;
     b28:	a5 01       	movw	r20, r10
     b2a:	94 01       	movw	r18, r8
     b2c:	0e 94 93 21 	call	0x4326	; 0x4326 <__mulsf3>
     b30:	20 e0       	ldi	r18, 0x00	; 0
     b32:	30 e0       	ldi	r19, 0x00	; 0
     b34:	48 ef       	ldi	r20, 0xF8	; 248
     b36:	51 e4       	ldi	r21, 0x41	; 65
     b38:	0e 94 7f 1f 	call	0x3efe	; 0x3efe <__addsf3>
     b3c:	0e 94 53 20 	call	0x40a6	; 0x40a6 <__fixunssfsi>
     b40:	36 2e       	mov	r3, r22

		r=21;
		//Berechnen des Minutenzeigers
		for(uint8_t i=0;i<r;i++){
			winkel=(minute*6.0)*M_PI/180.0-M_PI/2.0;
			x=(uint8_t) i*cos(winkel)+Px;
     b42:	a3 01       	movw	r20, r6
     b44:	92 01       	movw	r18, r4
     b46:	c7 01       	movw	r24, r14
     b48:	b6 01       	movw	r22, r12
     b4a:	0e 94 93 21 	call	0x4326	; 0x4326 <__mulsf3>
     b4e:	20 e0       	ldi	r18, 0x00	; 0
     b50:	30 e0       	ldi	r19, 0x00	; 0
     b52:	48 ef       	ldi	r20, 0xF8	; 248
     b54:	51 e4       	ldi	r21, 0x41	; 65
     b56:	0e 94 7f 1f 	call	0x3efe	; 0x3efe <__addsf3>
     b5a:	0e 94 53 20 	call	0x40a6	; 0x40a6 <__fixunssfsi>
			y=(uint8_t) i*sin(winkel)+Py;

			drawPixel(x,y,0);
     b5e:	20 e0       	ldi	r18, 0x00	; 0
     b60:	43 2d       	mov	r20, r3
     b62:	8e 81       	ldd	r24, Y+6	; 0x06
     b64:	9f 81       	ldd	r25, Y+7	; 0x07
     b66:	fc dd       	rcall	.-1032   	; 0x760 <_ZN7Display9drawPixelEhhh>
     b68:	0f 5f       	subi	r16, 0xFF	; 255
     b6a:	1f 4f       	sbci	r17, 0xFF	; 255
			drawPixel(x,y,0);
		}

		r=21;
		//Berechnen des Minutenzeigers
		for(uint8_t i=0;i<r;i++){
     b6c:	05 31       	cpi	r16, 0x15	; 21
     b6e:	11 05       	cpc	r17, r1
     b70:	91 f6       	brne	.-92     	; 0xb16 <_ZN7Display6analogEhhhh+0x156>
		}

		r=13;
		//Berechnen des Stundenzeigers
		for(uint8_t i=0;i<r;i++){
			winkel=(stunde*30.0+minute/2.0)*M_PI/180.0-M_PI/2.0;
     b72:	2d 81       	ldd	r18, Y+5	; 0x05
     b74:	62 2f       	mov	r22, r18
     b76:	70 e0       	ldi	r23, 0x00	; 0
     b78:	80 e0       	ldi	r24, 0x00	; 0
     b7a:	90 e0       	ldi	r25, 0x00	; 0
     b7c:	0e 94 81 20 	call	0x4102	; 0x4102 <__floatsisf>
     b80:	20 e0       	ldi	r18, 0x00	; 0
     b82:	30 e0       	ldi	r19, 0x00	; 0
     b84:	40 ef       	ldi	r20, 0xF0	; 240
     b86:	51 e4       	ldi	r21, 0x41	; 65
     b88:	0e 94 93 21 	call	0x4326	; 0x4326 <__mulsf3>
     b8c:	6b 01       	movw	r12, r22
     b8e:	7c 01       	movw	r14, r24
     b90:	20 e0       	ldi	r18, 0x00	; 0
     b92:	30 e0       	ldi	r19, 0x00	; 0
     b94:	40 e0       	ldi	r20, 0x00	; 0
     b96:	5f e3       	ldi	r21, 0x3F	; 63
     b98:	69 81       	ldd	r22, Y+1	; 0x01
     b9a:	7a 81       	ldd	r23, Y+2	; 0x02
     b9c:	8b 81       	ldd	r24, Y+3	; 0x03
     b9e:	9c 81       	ldd	r25, Y+4	; 0x04
     ba0:	0e 94 93 21 	call	0x4326	; 0x4326 <__mulsf3>
     ba4:	9b 01       	movw	r18, r22
     ba6:	ac 01       	movw	r20, r24
     ba8:	c7 01       	movw	r24, r14
     baa:	b6 01       	movw	r22, r12
     bac:	0e 94 7f 1f 	call	0x3efe	; 0x3efe <__addsf3>
     bb0:	2b ed       	ldi	r18, 0xDB	; 219
     bb2:	3f e0       	ldi	r19, 0x0F	; 15
     bb4:	49 e4       	ldi	r20, 0x49	; 73
     bb6:	50 e4       	ldi	r21, 0x40	; 64
     bb8:	0e 94 93 21 	call	0x4326	; 0x4326 <__mulsf3>
     bbc:	20 e0       	ldi	r18, 0x00	; 0
     bbe:	30 e0       	ldi	r19, 0x00	; 0
     bc0:	44 e3       	ldi	r20, 0x34	; 52
     bc2:	53 e4       	ldi	r21, 0x43	; 67
     bc4:	0e 94 e6 1f 	call	0x3fcc	; 0x3fcc <__divsf3>
     bc8:	2b ed       	ldi	r18, 0xDB	; 219
     bca:	3f e0       	ldi	r19, 0x0F	; 15
     bcc:	49 ec       	ldi	r20, 0xC9	; 201
     bce:	5f e3       	ldi	r21, 0x3F	; 63
     bd0:	0e 94 7e 1f 	call	0x3efc	; 0x3efc <__subsf3>
     bd4:	6b 01       	movw	r12, r22
     bd6:	7c 01       	movw	r14, r24
			x= (uint8_t) i*cos(winkel) +Px;
     bd8:	0e 94 e3 1f 	call	0x3fc6	; 0x3fc6 <cos>
     bdc:	4b 01       	movw	r8, r22
     bde:	5c 01       	movw	r10, r24
			y= (uint8_t) i*sin(winkel) +Py;
     be0:	c7 01       	movw	r24, r14
     be2:	b6 01       	movw	r22, r12
     be4:	0e 94 f6 21 	call	0x43ec	; 0x43ec <sin>
     be8:	2b 01       	movw	r4, r22
     bea:	3c 01       	movw	r6, r24
     bec:	00 e0       	ldi	r16, 0x00	; 0
     bee:	10 e0       	ldi	r17, 0x00	; 0

		r=13;
		//Berechnen des Stundenzeigers
		for(uint8_t i=0;i<r;i++){
			winkel=(stunde*30.0+minute/2.0)*M_PI/180.0-M_PI/2.0;
			x= (uint8_t) i*cos(winkel) +Px;
     bf0:	b8 01       	movw	r22, r16
     bf2:	01 2e       	mov	r0, r17
     bf4:	00 0c       	add	r0, r0
     bf6:	88 0b       	sbc	r24, r24
     bf8:	99 0b       	sbc	r25, r25
     bfa:	0e 94 81 20 	call	0x4102	; 0x4102 <__floatsisf>
     bfe:	6b 01       	movw	r12, r22
     c00:	7c 01       	movw	r14, r24
			y= (uint8_t) i*sin(winkel) +Py;
     c02:	a3 01       	movw	r20, r6
     c04:	92 01       	movw	r18, r4
     c06:	0e 94 93 21 	call	0x4326	; 0x4326 <__mulsf3>
     c0a:	20 e0       	ldi	r18, 0x00	; 0
     c0c:	30 e0       	ldi	r19, 0x00	; 0
     c0e:	48 ef       	ldi	r20, 0xF8	; 248
     c10:	51 e4       	ldi	r21, 0x41	; 65
     c12:	0e 94 7f 1f 	call	0x3efe	; 0x3efe <__addsf3>
     c16:	0e 94 53 20 	call	0x40a6	; 0x40a6 <__fixunssfsi>
     c1a:	36 2e       	mov	r3, r22

		r=13;
		//Berechnen des Stundenzeigers
		for(uint8_t i=0;i<r;i++){
			winkel=(stunde*30.0+minute/2.0)*M_PI/180.0-M_PI/2.0;
			x= (uint8_t) i*cos(winkel) +Px;
     c1c:	a5 01       	movw	r20, r10
     c1e:	94 01       	movw	r18, r8
     c20:	c7 01       	movw	r24, r14
     c22:	b6 01       	movw	r22, r12
     c24:	0e 94 93 21 	call	0x4326	; 0x4326 <__mulsf3>
     c28:	20 e0       	ldi	r18, 0x00	; 0
     c2a:	30 e0       	ldi	r19, 0x00	; 0
     c2c:	48 ef       	ldi	r20, 0xF8	; 248
     c2e:	51 e4       	ldi	r21, 0x41	; 65
     c30:	0e 94 7f 1f 	call	0x3efe	; 0x3efe <__addsf3>
     c34:	0e 94 53 20 	call	0x40a6	; 0x40a6 <__fixunssfsi>
			y= (uint8_t) i*sin(winkel) +Py;

			drawPixel(x,y,0);
     c38:	20 e0       	ldi	r18, 0x00	; 0
     c3a:	43 2d       	mov	r20, r3
     c3c:	8e 81       	ldd	r24, Y+6	; 0x06
     c3e:	9f 81       	ldd	r25, Y+7	; 0x07
     c40:	8f dd       	rcall	.-1250   	; 0x760 <_ZN7Display9drawPixelEhhh>
     c42:	0f 5f       	subi	r16, 0xFF	; 255
     c44:	1f 4f       	sbci	r17, 0xFF	; 255
			drawPixel(x,y,0);
		}

		r=13;
		//Berechnen des Stundenzeigers
		for(uint8_t i=0;i<r;i++){
     c46:	0d 30       	cpi	r16, 0x0D	; 13
     c48:	11 05       	cpc	r17, r1
     c4a:	91 f6       	brne	.-92     	; 0xbf0 <_ZN7Display6analogEhhhh+0x230>
     c4c:	cb c0       	rjmp	.+406    	; 0xde4 <_ZN7Display6analogEhhhh+0x424>
	}
	else{
		r=25;
		//Berechnen des Minutenzeigers
		for(uint8_t i=0;i<r;i++){
			winkel=(minute*6.0)*M_PI/180.0-M_PI/2.0;
     c4e:	64 2f       	mov	r22, r20
     c50:	70 e0       	ldi	r23, 0x00	; 0
     c52:	80 e0       	ldi	r24, 0x00	; 0
     c54:	90 e0       	ldi	r25, 0x00	; 0
     c56:	0e 94 81 20 	call	0x4102	; 0x4102 <__floatsisf>
     c5a:	69 83       	std	Y+1, r22	; 0x01
     c5c:	7a 83       	std	Y+2, r23	; 0x02
     c5e:	8b 83       	std	Y+3, r24	; 0x03
     c60:	9c 83       	std	Y+4, r25	; 0x04
     c62:	20 e0       	ldi	r18, 0x00	; 0
     c64:	30 e0       	ldi	r19, 0x00	; 0
     c66:	40 ec       	ldi	r20, 0xC0	; 192
     c68:	50 e4       	ldi	r21, 0x40	; 64
     c6a:	0e 94 93 21 	call	0x4326	; 0x4326 <__mulsf3>
     c6e:	2b ed       	ldi	r18, 0xDB	; 219
     c70:	3f e0       	ldi	r19, 0x0F	; 15
     c72:	49 e4       	ldi	r20, 0x49	; 73
     c74:	50 e4       	ldi	r21, 0x40	; 64
     c76:	0e 94 93 21 	call	0x4326	; 0x4326 <__mulsf3>
     c7a:	20 e0       	ldi	r18, 0x00	; 0
     c7c:	30 e0       	ldi	r19, 0x00	; 0
     c7e:	44 e3       	ldi	r20, 0x34	; 52
     c80:	53 e4       	ldi	r21, 0x43	; 67
     c82:	0e 94 e6 1f 	call	0x3fcc	; 0x3fcc <__divsf3>
     c86:	2b ed       	ldi	r18, 0xDB	; 219
     c88:	3f e0       	ldi	r19, 0x0F	; 15
     c8a:	49 ec       	ldi	r20, 0xC9	; 201
     c8c:	5f e3       	ldi	r21, 0x3F	; 63
     c8e:	0e 94 7e 1f 	call	0x3efc	; 0x3efc <__subsf3>
     c92:	6b 01       	movw	r12, r22
     c94:	7c 01       	movw	r14, r24
			x=(uint8_t) i*cos(winkel)+Px;
     c96:	0e 94 e3 1f 	call	0x3fc6	; 0x3fc6 <cos>
     c9a:	2b 01       	movw	r4, r22
     c9c:	3c 01       	movw	r6, r24
			y=(uint8_t) i*sin(winkel)+Py;
     c9e:	c7 01       	movw	r24, r14
     ca0:	b6 01       	movw	r22, r12
     ca2:	0e 94 f6 21 	call	0x43ec	; 0x43ec <sin>
     ca6:	4b 01       	movw	r8, r22
     ca8:	5c 01       	movw	r10, r24
     caa:	00 e0       	ldi	r16, 0x00	; 0
     cac:	10 e0       	ldi	r17, 0x00	; 0
	else{
		r=25;
		//Berechnen des Minutenzeigers
		for(uint8_t i=0;i<r;i++){
			winkel=(minute*6.0)*M_PI/180.0-M_PI/2.0;
			x=(uint8_t) i*cos(winkel)+Px;
     cae:	b8 01       	movw	r22, r16
     cb0:	01 2e       	mov	r0, r17
     cb2:	00 0c       	add	r0, r0
     cb4:	88 0b       	sbc	r24, r24
     cb6:	99 0b       	sbc	r25, r25
     cb8:	0e 94 81 20 	call	0x4102	; 0x4102 <__floatsisf>
     cbc:	6b 01       	movw	r12, r22
     cbe:	7c 01       	movw	r14, r24
			y=(uint8_t) i*sin(winkel)+Py;
     cc0:	a5 01       	movw	r20, r10
     cc2:	94 01       	movw	r18, r8
     cc4:	0e 94 93 21 	call	0x4326	; 0x4326 <__mulsf3>
     cc8:	20 e0       	ldi	r18, 0x00	; 0
     cca:	30 e0       	ldi	r19, 0x00	; 0
     ccc:	48 ef       	ldi	r20, 0xF8	; 248
     cce:	51 e4       	ldi	r21, 0x41	; 65
     cd0:	0e 94 7f 1f 	call	0x3efe	; 0x3efe <__addsf3>
     cd4:	0e 94 53 20 	call	0x40a6	; 0x40a6 <__fixunssfsi>
     cd8:	36 2e       	mov	r3, r22
	else{
		r=25;
		//Berechnen des Minutenzeigers
		for(uint8_t i=0;i<r;i++){
			winkel=(minute*6.0)*M_PI/180.0-M_PI/2.0;
			x=(uint8_t) i*cos(winkel)+Px;
     cda:	a3 01       	movw	r20, r6
     cdc:	92 01       	movw	r18, r4
     cde:	c7 01       	movw	r24, r14
     ce0:	b6 01       	movw	r22, r12
     ce2:	0e 94 93 21 	call	0x4326	; 0x4326 <__mulsf3>
     ce6:	20 e0       	ldi	r18, 0x00	; 0
     ce8:	30 e0       	ldi	r19, 0x00	; 0
     cea:	48 ef       	ldi	r20, 0xF8	; 248
     cec:	51 e4       	ldi	r21, 0x41	; 65
     cee:	0e 94 7f 1f 	call	0x3efe	; 0x3efe <__addsf3>
     cf2:	0e 94 53 20 	call	0x40a6	; 0x40a6 <__fixunssfsi>
			y=(uint8_t) i*sin(winkel)+Py;

			drawPixel(x,y,0);
     cf6:	20 e0       	ldi	r18, 0x00	; 0
     cf8:	43 2d       	mov	r20, r3
     cfa:	8e 81       	ldd	r24, Y+6	; 0x06
     cfc:	9f 81       	ldd	r25, Y+7	; 0x07
     cfe:	30 dd       	rcall	.-1440   	; 0x760 <_ZN7Display9drawPixelEhhh>
     d00:	0f 5f       	subi	r16, 0xFF	; 255
     d02:	1f 4f       	sbci	r17, 0xFF	; 255
		}
	}
	else{
		r=25;
		//Berechnen des Minutenzeigers
		for(uint8_t i=0;i<r;i++){
     d04:	09 31       	cpi	r16, 0x19	; 25
     d06:	11 05       	cpc	r17, r1
     d08:	91 f6       	brne	.-92     	; 0xcae <_ZN7Display6analogEhhhh+0x2ee>
		}

		r=17;
		//Berechnen des Stundenzeigers
		for(uint8_t i=0;i<r;i++){
			winkel=(stunde*30.0+minute/2.0)*M_PI/180.0-M_PI/2.0;
     d0a:	ed 81       	ldd	r30, Y+5	; 0x05
     d0c:	6e 2f       	mov	r22, r30
     d0e:	70 e0       	ldi	r23, 0x00	; 0
     d10:	80 e0       	ldi	r24, 0x00	; 0
     d12:	90 e0       	ldi	r25, 0x00	; 0
     d14:	0e 94 81 20 	call	0x4102	; 0x4102 <__floatsisf>
     d18:	20 e0       	ldi	r18, 0x00	; 0
     d1a:	30 e0       	ldi	r19, 0x00	; 0
     d1c:	40 ef       	ldi	r20, 0xF0	; 240
     d1e:	51 e4       	ldi	r21, 0x41	; 65
     d20:	0e 94 93 21 	call	0x4326	; 0x4326 <__mulsf3>
     d24:	6b 01       	movw	r12, r22
     d26:	7c 01       	movw	r14, r24
     d28:	20 e0       	ldi	r18, 0x00	; 0
     d2a:	30 e0       	ldi	r19, 0x00	; 0
     d2c:	40 e0       	ldi	r20, 0x00	; 0
     d2e:	5f e3       	ldi	r21, 0x3F	; 63
     d30:	69 81       	ldd	r22, Y+1	; 0x01
     d32:	7a 81       	ldd	r23, Y+2	; 0x02
     d34:	8b 81       	ldd	r24, Y+3	; 0x03
     d36:	9c 81       	ldd	r25, Y+4	; 0x04
     d38:	0e 94 93 21 	call	0x4326	; 0x4326 <__mulsf3>
     d3c:	9b 01       	movw	r18, r22
     d3e:	ac 01       	movw	r20, r24
     d40:	c7 01       	movw	r24, r14
     d42:	b6 01       	movw	r22, r12
     d44:	0e 94 7f 1f 	call	0x3efe	; 0x3efe <__addsf3>
     d48:	2b ed       	ldi	r18, 0xDB	; 219
     d4a:	3f e0       	ldi	r19, 0x0F	; 15
     d4c:	49 e4       	ldi	r20, 0x49	; 73
     d4e:	50 e4       	ldi	r21, 0x40	; 64
     d50:	0e 94 93 21 	call	0x4326	; 0x4326 <__mulsf3>
     d54:	20 e0       	ldi	r18, 0x00	; 0
     d56:	30 e0       	ldi	r19, 0x00	; 0
     d58:	44 e3       	ldi	r20, 0x34	; 52
     d5a:	53 e4       	ldi	r21, 0x43	; 67
     d5c:	0e 94 e6 1f 	call	0x3fcc	; 0x3fcc <__divsf3>
     d60:	2b ed       	ldi	r18, 0xDB	; 219
     d62:	3f e0       	ldi	r19, 0x0F	; 15
     d64:	49 ec       	ldi	r20, 0xC9	; 201
     d66:	5f e3       	ldi	r21, 0x3F	; 63
     d68:	0e 94 7e 1f 	call	0x3efc	; 0x3efc <__subsf3>
     d6c:	6b 01       	movw	r12, r22
     d6e:	7c 01       	movw	r14, r24
			x= (uint8_t) i*cos(winkel) +Px;
     d70:	0e 94 e3 1f 	call	0x3fc6	; 0x3fc6 <cos>
     d74:	4b 01       	movw	r8, r22
     d76:	5c 01       	movw	r10, r24
			y= (uint8_t) i*sin(winkel) +Py;
     d78:	c7 01       	movw	r24, r14
     d7a:	b6 01       	movw	r22, r12
     d7c:	0e 94 f6 21 	call	0x43ec	; 0x43ec <sin>
     d80:	2b 01       	movw	r4, r22
     d82:	3c 01       	movw	r6, r24
     d84:	00 e0       	ldi	r16, 0x00	; 0
     d86:	10 e0       	ldi	r17, 0x00	; 0

		r=17;
		//Berechnen des Stundenzeigers
		for(uint8_t i=0;i<r;i++){
			winkel=(stunde*30.0+minute/2.0)*M_PI/180.0-M_PI/2.0;
			x= (uint8_t) i*cos(winkel) +Px;
     d88:	b8 01       	movw	r22, r16
     d8a:	01 2e       	mov	r0, r17
     d8c:	00 0c       	add	r0, r0
     d8e:	88 0b       	sbc	r24, r24
     d90:	99 0b       	sbc	r25, r25
     d92:	0e 94 81 20 	call	0x4102	; 0x4102 <__floatsisf>
     d96:	6b 01       	movw	r12, r22
     d98:	7c 01       	movw	r14, r24
			y= (uint8_t) i*sin(winkel) +Py;
     d9a:	a3 01       	movw	r20, r6
     d9c:	92 01       	movw	r18, r4
     d9e:	0e 94 93 21 	call	0x4326	; 0x4326 <__mulsf3>
     da2:	20 e0       	ldi	r18, 0x00	; 0
     da4:	30 e0       	ldi	r19, 0x00	; 0
     da6:	48 ef       	ldi	r20, 0xF8	; 248
     da8:	51 e4       	ldi	r21, 0x41	; 65
     daa:	0e 94 7f 1f 	call	0x3efe	; 0x3efe <__addsf3>
     dae:	0e 94 53 20 	call	0x40a6	; 0x40a6 <__fixunssfsi>
     db2:	36 2e       	mov	r3, r22

		r=17;
		//Berechnen des Stundenzeigers
		for(uint8_t i=0;i<r;i++){
			winkel=(stunde*30.0+minute/2.0)*M_PI/180.0-M_PI/2.0;
			x= (uint8_t) i*cos(winkel) +Px;
     db4:	a5 01       	movw	r20, r10
     db6:	94 01       	movw	r18, r8
     db8:	c7 01       	movw	r24, r14
     dba:	b6 01       	movw	r22, r12
     dbc:	0e 94 93 21 	call	0x4326	; 0x4326 <__mulsf3>
     dc0:	20 e0       	ldi	r18, 0x00	; 0
     dc2:	30 e0       	ldi	r19, 0x00	; 0
     dc4:	48 ef       	ldi	r20, 0xF8	; 248
     dc6:	51 e4       	ldi	r21, 0x41	; 65
     dc8:	0e 94 7f 1f 	call	0x3efe	; 0x3efe <__addsf3>
     dcc:	0e 94 53 20 	call	0x40a6	; 0x40a6 <__fixunssfsi>
			y= (uint8_t) i*sin(winkel) +Py;

			drawPixel(x,y,0);
     dd0:	20 e0       	ldi	r18, 0x00	; 0
     dd2:	43 2d       	mov	r20, r3
     dd4:	8e 81       	ldd	r24, Y+6	; 0x06
     dd6:	9f 81       	ldd	r25, Y+7	; 0x07
     dd8:	c3 dc       	rcall	.-1658   	; 0x760 <_ZN7Display9drawPixelEhhh>
     dda:	0f 5f       	subi	r16, 0xFF	; 255
     ddc:	1f 4f       	sbci	r17, 0xFF	; 255
			drawPixel(x,y,0);
		}

		r=17;
		//Berechnen des Stundenzeigers
		for(uint8_t i=0;i<r;i++){
     dde:	01 31       	cpi	r16, 0x11	; 17
     de0:	11 05       	cpc	r17, r1
     de2:	91 f6       	brne	.-92     	; 0xd88 <_ZN7Display6analogEhhhh+0x3c8>
		}
	}
	

	//Anzeige der Zahlen
	draw_ASCI('1',32-charsize,0);
     de4:	20 e0       	ldi	r18, 0x00	; 0
     de6:	4a e1       	ldi	r20, 0x1A	; 26
     de8:	61 e3       	ldi	r22, 0x31	; 49
     dea:	8e 81       	ldd	r24, Y+6	; 0x06
     dec:	9f 81       	ldd	r25, Y+7	; 0x07
     dee:	24 dd       	rcall	.-1464   	; 0x838 <_ZN7Display9draw_ASCIEhhh>
	draw_ASCI('2',32,0);
     df0:	20 e0       	ldi	r18, 0x00	; 0
     df2:	40 e2       	ldi	r20, 0x20	; 32
     df4:	62 e3       	ldi	r22, 0x32	; 50
     df6:	8e 81       	ldd	r24, Y+6	; 0x06
     df8:	9f 81       	ldd	r25, Y+7	; 0x07
     dfa:	1e dd       	rcall	.-1476   	; 0x838 <_ZN7Display9draw_ASCIEhhh>
	draw_ASCI('3',64-charsize,4*charhighte-charhighte/2);
     dfc:	2c e1       	ldi	r18, 0x1C	; 28
     dfe:	4a e3       	ldi	r20, 0x3A	; 58
     e00:	63 e3       	ldi	r22, 0x33	; 51
     e02:	8e 81       	ldd	r24, Y+6	; 0x06
     e04:	9f 81       	ldd	r25, Y+7	; 0x07
     e06:	18 dd       	rcall	.-1488   	; 0x838 <_ZN7Display9draw_ASCIEhhh>
	draw_ASCI('6',32-charsize/2,7*charhighte);
     e08:	28 e3       	ldi	r18, 0x38	; 56
     e0a:	4d e1       	ldi	r20, 0x1D	; 29
     e0c:	66 e3       	ldi	r22, 0x36	; 54
     e0e:	8e 81       	ldd	r24, Y+6	; 0x06
     e10:	9f 81       	ldd	r25, Y+7	; 0x07
     e12:	12 dd       	rcall	.-1500   	; 0x838 <_ZN7Display9draw_ASCIEhhh>
	draw_ASCI('9',0,4*charhighte-charhighte/2);
     e14:	2c e1       	ldi	r18, 0x1C	; 28
     e16:	40 e0       	ldi	r20, 0x00	; 0
     e18:	69 e3       	ldi	r22, 0x39	; 57
     e1a:	8e 81       	ldd	r24, Y+6	; 0x06
     e1c:	9f 81       	ldd	r25, Y+7	; 0x07
     e1e:	0c dd       	rcall	.-1512   	; 0x838 <_ZN7Display9draw_ASCIEhhh>

	//anzeige des Rings fuer die Restlichen Stunden Zahlen
	//1
	drawPixel(26*cos((30.0)*M_PI/180.0-M_PI/2.0)+Px,26*sin((30.0)*M_PI/180.0-M_PI/2.0)+Px,0);
     e20:	20 e0       	ldi	r18, 0x00	; 0
     e22:	48 e0       	ldi	r20, 0x08	; 8
     e24:	6c e2       	ldi	r22, 0x2C	; 44
     e26:	8e 81       	ldd	r24, Y+6	; 0x06
     e28:	9f 81       	ldd	r25, Y+7	; 0x07
     e2a:	9a dc       	rcall	.-1740   	; 0x760 <_ZN7Display9drawPixelEhhh>
	//2
	drawPixel(26*cos((2*30.0)*M_PI/180.0-M_PI/2.0)+Px,26*sin((2*30.0)*M_PI/180.0-M_PI/2.0)+Px,0);
     e2c:	20 e0       	ldi	r18, 0x00	; 0
     e2e:	42 e1       	ldi	r20, 0x12	; 18
     e30:	65 e3       	ldi	r22, 0x35	; 53
     e32:	8e 81       	ldd	r24, Y+6	; 0x06
     e34:	9f 81       	ldd	r25, Y+7	; 0x07
     e36:	94 dc       	rcall	.-1752   	; 0x760 <_ZN7Display9drawPixelEhhh>
	//4
	drawPixel(26*cos((4*30.0)*M_PI/180.0-M_PI/2.0)+Px,26*sin((4*30.0)*M_PI/180.0-M_PI/2.0)+Px,0);
     e38:	20 e0       	ldi	r18, 0x00	; 0
     e3a:	4c e2       	ldi	r20, 0x2C	; 44
     e3c:	65 e3       	ldi	r22, 0x35	; 53
     e3e:	8e 81       	ldd	r24, Y+6	; 0x06
     e40:	9f 81       	ldd	r25, Y+7	; 0x07
     e42:	8e dc       	rcall	.-1764   	; 0x760 <_ZN7Display9drawPixelEhhh>
	//5
	drawPixel(26*cos((5*30.0)*M_PI/180.0-M_PI/2.0)+Px,26*sin((5*30.0)*M_PI/180.0-M_PI/2.0)+Px,0);
     e44:	20 e0       	ldi	r18, 0x00	; 0
     e46:	45 e3       	ldi	r20, 0x35	; 53
     e48:	6b e2       	ldi	r22, 0x2B	; 43
     e4a:	8e 81       	ldd	r24, Y+6	; 0x06
     e4c:	9f 81       	ldd	r25, Y+7	; 0x07
     e4e:	88 dc       	rcall	.-1776   	; 0x760 <_ZN7Display9drawPixelEhhh>
	//7
	drawPixel(26*cos((7*30.0)*M_PI/180.0-M_PI/2.0)+Px,26*sin((7*30.0)*M_PI/180.0-M_PI/2.0)+Px,0);
     e50:	20 e0       	ldi	r18, 0x00	; 0
     e52:	45 e3       	ldi	r20, 0x35	; 53
     e54:	61 e1       	ldi	r22, 0x11	; 17
     e56:	8e 81       	ldd	r24, Y+6	; 0x06
     e58:	9f 81       	ldd	r25, Y+7	; 0x07
     e5a:	82 dc       	rcall	.-1788   	; 0x760 <_ZN7Display9drawPixelEhhh>
	//8
	drawPixel(26*cos((8*30.0)*M_PI/180.0-M_PI/2.0)+Px,26*sin((8*30.0)*M_PI/180.0-M_PI/2.0)+Px,0);
     e5c:	20 e0       	ldi	r18, 0x00	; 0
     e5e:	4c e2       	ldi	r20, 0x2C	; 44
     e60:	68 e0       	ldi	r22, 0x08	; 8
     e62:	8e 81       	ldd	r24, Y+6	; 0x06
     e64:	9f 81       	ldd	r25, Y+7	; 0x07
     e66:	7c dc       	rcall	.-1800   	; 0x760 <_ZN7Display9drawPixelEhhh>
	//10
	drawPixel(26*cos((10*30.0)*M_PI/180.0-M_PI/2.0)+Px,26*sin((10*30.0)*M_PI/180.0-M_PI/2.0)+Px,0);
     e68:	20 e0       	ldi	r18, 0x00	; 0
     e6a:	41 e1       	ldi	r20, 0x11	; 17
     e6c:	68 e0       	ldi	r22, 0x08	; 8
     e6e:	8e 81       	ldd	r24, Y+6	; 0x06
     e70:	9f 81       	ldd	r25, Y+7	; 0x07
     e72:	76 dc       	rcall	.-1812   	; 0x760 <_ZN7Display9drawPixelEhhh>
	//11
	drawPixel(26*cos((11*30.0)*M_PI/180.0-M_PI/2.0)+Px,26*sin((11*30.0)*M_PI/180.0-M_PI/2.0)+Px,0);
     e74:	20 e0       	ldi	r18, 0x00	; 0
     e76:	48 e0       	ldi	r20, 0x08	; 8
     e78:	62 e1       	ldi	r22, 0x12	; 18
     e7a:	8e 81       	ldd	r24, Y+6	; 0x06
     e7c:	9f 81       	ldd	r25, Y+7	; 0x07
     e7e:	70 dc       	rcall	.-1824   	; 0x760 <_ZN7Display9drawPixelEhhh>
}
     e80:	27 96       	adiw	r28, 0x07	; 7
     e82:	0f b6       	in	r0, 0x3f	; 63
     e84:	f8 94       	cli
     e86:	de bf       	out	0x3e, r29	; 62
     e88:	0f be       	out	0x3f, r0	; 63
     e8a:	cd bf       	out	0x3d, r28	; 61
     e8c:	df 91       	pop	r29
     e8e:	cf 91       	pop	r28
     e90:	1f 91       	pop	r17
     e92:	0f 91       	pop	r16
     e94:	ff 90       	pop	r15
     e96:	ef 90       	pop	r14
     e98:	df 90       	pop	r13
     e9a:	cf 90       	pop	r12
     e9c:	bf 90       	pop	r11
     e9e:	af 90       	pop	r10
     ea0:	9f 90       	pop	r9
     ea2:	8f 90       	pop	r8
     ea4:	7f 90       	pop	r7
     ea6:	6f 90       	pop	r6
     ea8:	5f 90       	pop	r5
     eaa:	4f 90       	pop	r4
     eac:	3f 90       	pop	r3
     eae:	2f 90       	pop	r2
     eb0:	08 95       	ret

00000eb2 <_ZN3I2CC1Ev>:
void I2C::twi_ack(){
	TWCR = (1<<TWINT) | (1<<TWEA) | (1<<TWEN);
}
void I2C::twi_nack(){
	TWCR = (1<<TWINT) | (1<<TWEN);
	TWCR &= ~(1<<TWEA);
     eb2:	82 e0       	ldi	r24, 0x02	; 2
     eb4:	80 93 b8 00 	sts	0x00B8, r24
     eb8:	08 95       	ret

00000eba <_ZN3I2CD1Ev>:
     eba:	08 95       	ret

00000ebc <_ZN3I2C9twi_startEv>:
     ebc:	84 ea       	ldi	r24, 0xA4	; 164
     ebe:	80 93 bc 00 	sts	0x00BC, r24
     ec2:	08 95       	ret

00000ec4 <_ZN3I2C8twi_stopEv>:
     ec4:	84 e9       	ldi	r24, 0x94	; 148
     ec6:	80 93 bc 00 	sts	0x00BC, r24
     eca:	08 95       	ret

00000ecc <_ZN3I2C9twi_writeEh>:
}

void I2C::twi_write(uint8_t data){
	while(!(TWCR & (1<<TWINT)));
     ecc:	ec eb       	ldi	r30, 0xBC	; 188
     ece:	f0 e0       	ldi	r31, 0x00	; 0
     ed0:	80 81       	ld	r24, Z
     ed2:	88 23       	and	r24, r24
     ed4:	ec f7       	brge	.-6      	; 0xed0 <_ZN3I2C9twi_writeEh+0x4>
	TWDR = data;
     ed6:	60 93 bb 00 	sts	0x00BB, r22
	TWCR = (1<<TWINT) | (1<<TWEN);
     eda:	84 e8       	ldi	r24, 0x84	; 132
     edc:	80 93 bc 00 	sts	0x00BC, r24
	while(!(TWCR & (1<<TWINT)));
     ee0:	ec eb       	ldi	r30, 0xBC	; 188
     ee2:	f0 e0       	ldi	r31, 0x00	; 0
     ee4:	80 81       	ld	r24, Z
     ee6:	88 23       	and	r24, r24
     ee8:	ec f7       	brge	.-6      	; 0xee4 <_ZN3I2C9twi_writeEh+0x18>
}
     eea:	08 95       	ret

00000eec <_ZN9InterfaceC1Ev>:
		default:
		abfrage = 0;
		break;
	}
	return abfrage;
}
     eec:	2a b1       	in	r18, 0x0a	; 10
     eee:	20 66       	ori	r18, 0x60	; 96
     ef0:	2a b9       	out	0x0a, r18	; 10
     ef2:	28 b1       	in	r18, 0x08	; 8
     ef4:	23 7f       	andi	r18, 0xF3	; 243
     ef6:	28 b9       	out	0x08, r18	; 8
     ef8:	27 b1       	in	r18, 0x07	; 7
     efa:	2c 60       	ori	r18, 0x0C	; 12
     efc:	27 b9       	out	0x07, r18	; 7
     efe:	2a b1       	in	r18, 0x0a	; 10
     f00:	23 7e       	andi	r18, 0xE3	; 227
     f02:	2a b9       	out	0x0a, r18	; 10
     f04:	fc 01       	movw	r30, r24
     f06:	0c 96       	adiw	r24, 0x0c	; 12
     f08:	11 92       	st	Z+, r1
     f0a:	e8 17       	cp	r30, r24
     f0c:	f9 07       	cpc	r31, r25
     f0e:	e1 f7       	brne	.-8      	; 0xf08 <_ZN9InterfaceC1Ev+0x1c>
     f10:	08 95       	ret

00000f12 <_ZN9InterfaceD1Ev>:
     f12:	08 95       	ret

00000f14 <_ZN9Interface7paradebEPVhhPh>:
     f14:	fb 01       	movw	r30, r22
     f16:	80 81       	ld	r24, Z
     f18:	90 e0       	ldi	r25, 0x00	; 0
     f1a:	04 2e       	mov	r0, r20
     f1c:	02 c0       	rjmp	.+4      	; 0xf22 <_ZN9Interface7paradebEPVhhPh+0xe>
     f1e:	95 95       	asr	r25
     f20:	87 95       	ror	r24
     f22:	0a 94       	dec	r0
     f24:	e2 f7       	brpl	.-8      	; 0xf1e <_ZN9Interface7paradebEPVhhPh+0xa>
     f26:	80 ff       	sbrs	r24, 0
     f28:	05 c0       	rjmp	.+10     	; 0xf34 <_ZN9Interface7paradebEPVhhPh+0x20>
     f2a:	81 e0       	ldi	r24, 0x01	; 1
     f2c:	f9 01       	movw	r30, r18
     f2e:	80 83       	st	Z, r24
     f30:	80 e0       	ldi	r24, 0x00	; 0
     f32:	08 95       	ret
     f34:	f9 01       	movw	r30, r18
     f36:	80 81       	ld	r24, Z
     f38:	81 30       	cpi	r24, 0x01	; 1
     f3a:	71 f4       	brne	.+28     	; 0xf58 <_ZN9Interface7paradebEPVhhPh+0x44>
     f3c:	fb 01       	movw	r30, r22
     f3e:	60 81       	ld	r22, Z
     f40:	70 e0       	ldi	r23, 0x00	; 0
     f42:	fb 01       	movw	r30, r22
     f44:	02 c0       	rjmp	.+4      	; 0xf4a <_ZN9Interface7paradebEPVhhPh+0x36>
     f46:	f5 95       	asr	r31
     f48:	e7 95       	ror	r30
     f4a:	4a 95       	dec	r20
     f4c:	e2 f7       	brpl	.-8      	; 0xf46 <_ZN9Interface7paradebEPVhhPh+0x32>
     f4e:	e0 fd       	sbrc	r30, 0
     f50:	03 c0       	rjmp	.+6      	; 0xf58 <_ZN9Interface7paradebEPVhhPh+0x44>
     f52:	f9 01       	movw	r30, r18
     f54:	10 82       	st	Z, r1
     f56:	08 95       	ret
     f58:	f9 01       	movw	r30, r18
     f5a:	10 82       	st	Z, r1
     f5c:	80 e0       	ldi	r24, 0x00	; 0
     f5e:	08 95       	ret

00000f60 <_ZN9Interface6TasterEv>:

uint8_t Interface::Taster(){
     f60:	1f 93       	push	r17
     f62:	cf 93       	push	r28
     f64:	df 93       	push	r29
     f66:	ec 01       	movw	r28, r24
	uint8_t taste = ' ';
	
	//erste Zeile
	PORTC |= (1<<PORTC3);
     f68:	43 9a       	sbi	0x08, 3	; 8
	#else
		//round up by default
		__ticks_dc = (uint32_t)(ceil(fabs(__tmp)));
	#endif

	__builtin_avr_delay_cycles(__ticks_dc);
     f6a:	82 e0       	ldi	r24, 0x02	; 2
     f6c:	8a 95       	dec	r24
     f6e:	f1 f7       	brne	.-4      	; 0xf6c <_ZN9Interface6TasterEv+0xc>
     f70:	00 c0       	rjmp	.+0      	; 0xf72 <_ZN9Interface6TasterEv+0x12>
	_delay_us(1);
	if(paradeb(&PIND,PIND4,&stat[2])){//debounce(&PIND,PIND4)){
     f72:	9e 01       	movw	r18, r28
     f74:	2e 5f       	subi	r18, 0xFE	; 254
     f76:	3f 4f       	sbci	r19, 0xFF	; 255
     f78:	44 e0       	ldi	r20, 0x04	; 4
     f7a:	69 e2       	ldi	r22, 0x29	; 41
     f7c:	70 e0       	ldi	r23, 0x00	; 0
     f7e:	ce 01       	movw	r24, r28
     f80:	c9 df       	rcall	.-110    	; 0xf14 <_ZN9Interface7paradebEPVhhPh>
     f82:	81 11       	cpse	r24, r1
     f84:	14 c0       	rjmp	.+40     	; 0xfae <_ZN9Interface6TasterEv+0x4e>
		taste = '3';
	}
	else if (paradeb(&PIND,PIND3,&stat[1]))//debounce(&PIND,PIND3))
     f86:	9e 01       	movw	r18, r28
     f88:	2f 5f       	subi	r18, 0xFF	; 255
     f8a:	3f 4f       	sbci	r19, 0xFF	; 255
     f8c:	43 e0       	ldi	r20, 0x03	; 3
     f8e:	69 e2       	ldi	r22, 0x29	; 41
     f90:	70 e0       	ldi	r23, 0x00	; 0
     f92:	ce 01       	movw	r24, r28
     f94:	bf df       	rcall	.-130    	; 0xf14 <_ZN9Interface7paradebEPVhhPh>
     f96:	81 11       	cpse	r24, r1
     f98:	0c c0       	rjmp	.+24     	; 0xfb2 <_ZN9Interface6TasterEv+0x52>
	{
		taste = '2';
	}
	else if (paradeb(&PIND,PIND2,&stat[0]))//debounce(&PIND,PIND2))
     f9a:	9e 01       	movw	r18, r28
     f9c:	42 e0       	ldi	r20, 0x02	; 2
     f9e:	69 e2       	ldi	r22, 0x29	; 41
     fa0:	70 e0       	ldi	r23, 0x00	; 0
     fa2:	ce 01       	movw	r24, r28
     fa4:	b7 df       	rcall	.-146    	; 0xf14 <_ZN9Interface7paradebEPVhhPh>
     fa6:	88 23       	and	r24, r24
     fa8:	31 f0       	breq	.+12     	; 0xfb6 <_ZN9Interface6TasterEv+0x56>
	{
		taste = '1';
     faa:	11 e3       	ldi	r17, 0x31	; 49
     fac:	05 c0       	rjmp	.+10     	; 0xfb8 <_ZN9Interface6TasterEv+0x58>
	
	//erste Zeile
	PORTC |= (1<<PORTC3);
	_delay_us(1);
	if(paradeb(&PIND,PIND4,&stat[2])){//debounce(&PIND,PIND4)){
		taste = '3';
     fae:	13 e3       	ldi	r17, 0x33	; 51
     fb0:	03 c0       	rjmp	.+6      	; 0xfb8 <_ZN9Interface6TasterEv+0x58>
	}
	else if (paradeb(&PIND,PIND3,&stat[1]))//debounce(&PIND,PIND3))
	{
		taste = '2';
     fb2:	12 e3       	ldi	r17, 0x32	; 50
     fb4:	01 c0       	rjmp	.+2      	; 0xfb8 <_ZN9Interface6TasterEv+0x58>
	}
	return abfrage;
}

uint8_t Interface::Taster(){
	uint8_t taste = ' ';
     fb6:	10 e2       	ldi	r17, 0x20	; 32
	}
	else if (paradeb(&PIND,PIND2,&stat[0]))//debounce(&PIND,PIND2))
	{
		taste = '1';
	}
	PORTC &= ~(1<<PORTC3);
     fb8:	43 98       	cbi	0x08, 3	; 8
	
	//zweite Zeile
	PORTC |= (1<<PORTC2);
     fba:	42 9a       	sbi	0x08, 2	; 8
     fbc:	82 e0       	ldi	r24, 0x02	; 2
     fbe:	8a 95       	dec	r24
     fc0:	f1 f7       	brne	.-4      	; 0xfbe <_ZN9Interface6TasterEv+0x5e>
     fc2:	00 c0       	rjmp	.+0      	; 0xfc4 <_ZN9Interface6TasterEv+0x64>
	_delay_us(1);
	if(paradeb(&PIND,PIND4,&stat[5])){//debounce(&PIND,PIND4)){
     fc4:	9e 01       	movw	r18, r28
     fc6:	2b 5f       	subi	r18, 0xFB	; 251
     fc8:	3f 4f       	sbci	r19, 0xFF	; 255
     fca:	44 e0       	ldi	r20, 0x04	; 4
     fcc:	69 e2       	ldi	r22, 0x29	; 41
     fce:	70 e0       	ldi	r23, 0x00	; 0
     fd0:	ce 01       	movw	r24, r28
     fd2:	a0 df       	rcall	.-192    	; 0xf14 <_ZN9Interface7paradebEPVhhPh>
     fd4:	81 11       	cpse	r24, r1
     fd6:	16 c0       	rjmp	.+44     	; 0x1004 <_ZN9Interface6TasterEv+0xa4>
		taste = '6';
	}
	else if (paradeb(&PIND,PIND3,&stat[4]))//debounce(&PIND,PIND3))
     fd8:	9e 01       	movw	r18, r28
     fda:	2c 5f       	subi	r18, 0xFC	; 252
     fdc:	3f 4f       	sbci	r19, 0xFF	; 255
     fde:	43 e0       	ldi	r20, 0x03	; 3
     fe0:	69 e2       	ldi	r22, 0x29	; 41
     fe2:	70 e0       	ldi	r23, 0x00	; 0
     fe4:	ce 01       	movw	r24, r28
     fe6:	96 df       	rcall	.-212    	; 0xf14 <_ZN9Interface7paradebEPVhhPh>
     fe8:	81 11       	cpse	r24, r1
     fea:	0e c0       	rjmp	.+28     	; 0x1008 <_ZN9Interface6TasterEv+0xa8>
	{
		taste = '5';
	}
	else if (paradeb(&PIND,PIND2,&stat[3]))//debounce(&PIND,PIND2))
     fec:	9e 01       	movw	r18, r28
     fee:	2d 5f       	subi	r18, 0xFD	; 253
     ff0:	3f 4f       	sbci	r19, 0xFF	; 255
     ff2:	42 e0       	ldi	r20, 0x02	; 2
     ff4:	69 e2       	ldi	r22, 0x29	; 41
     ff6:	70 e0       	ldi	r23, 0x00	; 0
     ff8:	ce 01       	movw	r24, r28
     ffa:	8c df       	rcall	.-232    	; 0xf14 <_ZN9Interface7paradebEPVhhPh>
     ffc:	88 23       	and	r24, r24
     ffe:	29 f0       	breq	.+10     	; 0x100a <_ZN9Interface6TasterEv+0xaa>
	{
		taste = '4';
    1000:	14 e3       	ldi	r17, 0x34	; 52
    1002:	03 c0       	rjmp	.+6      	; 0x100a <_ZN9Interface6TasterEv+0xaa>
	
	//zweite Zeile
	PORTC |= (1<<PORTC2);
	_delay_us(1);
	if(paradeb(&PIND,PIND4,&stat[5])){//debounce(&PIND,PIND4)){
		taste = '6';
    1004:	16 e3       	ldi	r17, 0x36	; 54
    1006:	01 c0       	rjmp	.+2      	; 0x100a <_ZN9Interface6TasterEv+0xaa>
	}
	else if (paradeb(&PIND,PIND3,&stat[4]))//debounce(&PIND,PIND3))
	{
		taste = '5';
    1008:	15 e3       	ldi	r17, 0x35	; 53
	}
	else if (paradeb(&PIND,PIND2,&stat[3]))//debounce(&PIND,PIND2))
	{
		taste = '4';
	}
	PORTC &= ~(1<<PORTC2);
    100a:	42 98       	cbi	0x08, 2	; 8
	
	//dritte Zeile
	PORTD |= (1<<PORTD6);
    100c:	5e 9a       	sbi	0x0b, 6	; 11
    100e:	82 e0       	ldi	r24, 0x02	; 2
    1010:	8a 95       	dec	r24
    1012:	f1 f7       	brne	.-4      	; 0x1010 <_ZN9Interface6TasterEv+0xb0>
    1014:	00 c0       	rjmp	.+0      	; 0x1016 <_ZN9Interface6TasterEv+0xb6>
	_delay_us(1);
	if(paradeb(&PIND,PIND4,&stat[8])){//debounce(&PIND,PIND4)){
    1016:	9e 01       	movw	r18, r28
    1018:	28 5f       	subi	r18, 0xF8	; 248
    101a:	3f 4f       	sbci	r19, 0xFF	; 255
    101c:	44 e0       	ldi	r20, 0x04	; 4
    101e:	69 e2       	ldi	r22, 0x29	; 41
    1020:	70 e0       	ldi	r23, 0x00	; 0
    1022:	ce 01       	movw	r24, r28
    1024:	77 df       	rcall	.-274    	; 0xf14 <_ZN9Interface7paradebEPVhhPh>
    1026:	81 11       	cpse	r24, r1
    1028:	16 c0       	rjmp	.+44     	; 0x1056 <_ZN9Interface6TasterEv+0xf6>
		taste = '9';
	}
	else if (paradeb(&PIND,PIND3,&stat[7]))//debounce(&PIND,PIND3))
    102a:	9e 01       	movw	r18, r28
    102c:	29 5f       	subi	r18, 0xF9	; 249
    102e:	3f 4f       	sbci	r19, 0xFF	; 255
    1030:	43 e0       	ldi	r20, 0x03	; 3
    1032:	69 e2       	ldi	r22, 0x29	; 41
    1034:	70 e0       	ldi	r23, 0x00	; 0
    1036:	ce 01       	movw	r24, r28
    1038:	6d df       	rcall	.-294    	; 0xf14 <_ZN9Interface7paradebEPVhhPh>
    103a:	81 11       	cpse	r24, r1
    103c:	0e c0       	rjmp	.+28     	; 0x105a <_ZN9Interface6TasterEv+0xfa>
	{
		taste = '8';
	}
	else if (paradeb(&PIND,PIND2,&stat[6]))//debounce(&PIND,PIND2))
    103e:	9e 01       	movw	r18, r28
    1040:	2a 5f       	subi	r18, 0xFA	; 250
    1042:	3f 4f       	sbci	r19, 0xFF	; 255
    1044:	42 e0       	ldi	r20, 0x02	; 2
    1046:	69 e2       	ldi	r22, 0x29	; 41
    1048:	70 e0       	ldi	r23, 0x00	; 0
    104a:	ce 01       	movw	r24, r28
    104c:	63 df       	rcall	.-314    	; 0xf14 <_ZN9Interface7paradebEPVhhPh>
    104e:	88 23       	and	r24, r24
    1050:	29 f0       	breq	.+10     	; 0x105c <_ZN9Interface6TasterEv+0xfc>
	{
		taste = '7';
    1052:	17 e3       	ldi	r17, 0x37	; 55
    1054:	03 c0       	rjmp	.+6      	; 0x105c <_ZN9Interface6TasterEv+0xfc>
	
	//dritte Zeile
	PORTD |= (1<<PORTD6);
	_delay_us(1);
	if(paradeb(&PIND,PIND4,&stat[8])){//debounce(&PIND,PIND4)){
		taste = '9';
    1056:	19 e3       	ldi	r17, 0x39	; 57
    1058:	01 c0       	rjmp	.+2      	; 0x105c <_ZN9Interface6TasterEv+0xfc>
	}
	else if (paradeb(&PIND,PIND3,&stat[7]))//debounce(&PIND,PIND3))
	{
		taste = '8';
    105a:	18 e3       	ldi	r17, 0x38	; 56
	}
	else if (paradeb(&PIND,PIND2,&stat[6]))//debounce(&PIND,PIND2))
	{
		taste = '7';
	}
	PORTD &= ~(1<<PORTD6);
    105c:	5e 98       	cbi	0x0b, 6	; 11
	
	//vierte Zeile
	PORTD |= (1<<PORTD5);
    105e:	5d 9a       	sbi	0x0b, 5	; 11
    1060:	82 e0       	ldi	r24, 0x02	; 2
    1062:	8a 95       	dec	r24
    1064:	f1 f7       	brne	.-4      	; 0x1062 <_ZN9Interface6TasterEv+0x102>
    1066:	00 c0       	rjmp	.+0      	; 0x1068 <_ZN9Interface6TasterEv+0x108>
	_delay_us(1);
	if(paradeb(&PIND,PIND4,&stat[11])){//debounce(&PIND,PIND4)){
    1068:	9e 01       	movw	r18, r28
    106a:	25 5f       	subi	r18, 0xF5	; 245
    106c:	3f 4f       	sbci	r19, 0xFF	; 255
    106e:	44 e0       	ldi	r20, 0x04	; 4
    1070:	69 e2       	ldi	r22, 0x29	; 41
    1072:	70 e0       	ldi	r23, 0x00	; 0
    1074:	ce 01       	movw	r24, r28
    1076:	4e df       	rcall	.-356    	; 0xf14 <_ZN9Interface7paradebEPVhhPh>
    1078:	81 11       	cpse	r24, r1
    107a:	16 c0       	rjmp	.+44     	; 0x10a8 <_ZN9Interface6TasterEv+0x148>
		taste = '#';
	}
	else if (paradeb(&PIND,PIND3,&stat[10]))//debounce(&PIND,PIND3))
    107c:	9e 01       	movw	r18, r28
    107e:	26 5f       	subi	r18, 0xF6	; 246
    1080:	3f 4f       	sbci	r19, 0xFF	; 255
    1082:	43 e0       	ldi	r20, 0x03	; 3
    1084:	69 e2       	ldi	r22, 0x29	; 41
    1086:	70 e0       	ldi	r23, 0x00	; 0
    1088:	ce 01       	movw	r24, r28
    108a:	44 df       	rcall	.-376    	; 0xf14 <_ZN9Interface7paradebEPVhhPh>
    108c:	81 11       	cpse	r24, r1
    108e:	0e c0       	rjmp	.+28     	; 0x10ac <_ZN9Interface6TasterEv+0x14c>
	{
		taste = '0';
	}
	else if (paradeb(&PIND,PIND2,&stat[9]))//debounce(&PIND,PIND2))
    1090:	9e 01       	movw	r18, r28
    1092:	27 5f       	subi	r18, 0xF7	; 247
    1094:	3f 4f       	sbci	r19, 0xFF	; 255
    1096:	42 e0       	ldi	r20, 0x02	; 2
    1098:	69 e2       	ldi	r22, 0x29	; 41
    109a:	70 e0       	ldi	r23, 0x00	; 0
    109c:	ce 01       	movw	r24, r28
    109e:	3a df       	rcall	.-396    	; 0xf14 <_ZN9Interface7paradebEPVhhPh>
    10a0:	88 23       	and	r24, r24
    10a2:	29 f0       	breq	.+10     	; 0x10ae <_ZN9Interface6TasterEv+0x14e>
	{
		taste = '*';
    10a4:	1a e2       	ldi	r17, 0x2A	; 42
    10a6:	03 c0       	rjmp	.+6      	; 0x10ae <_ZN9Interface6TasterEv+0x14e>
	
	//vierte Zeile
	PORTD |= (1<<PORTD5);
	_delay_us(1);
	if(paradeb(&PIND,PIND4,&stat[11])){//debounce(&PIND,PIND4)){
		taste = '#';
    10a8:	13 e2       	ldi	r17, 0x23	; 35
    10aa:	01 c0       	rjmp	.+2      	; 0x10ae <_ZN9Interface6TasterEv+0x14e>
	}
	else if (paradeb(&PIND,PIND3,&stat[10]))//debounce(&PIND,PIND3))
	{
		taste = '0';
    10ac:	10 e3       	ldi	r17, 0x30	; 48
	}
	else if (paradeb(&PIND,PIND2,&stat[9]))//debounce(&PIND,PIND2))
	{
		taste = '*';
	}
	PORTD &= ~(1<<PORTD5);
    10ae:	5d 98       	cbi	0x0b, 5	; 11
	
	return taste;
}
    10b0:	81 2f       	mov	r24, r17
    10b2:	df 91       	pop	r29
    10b4:	cf 91       	pop	r28
    10b6:	1f 91       	pop	r17
    10b8:	08 95       	ret

000010ba <_ZN9Interface7unifiedEv>:

uint8_t Interface::unified(){
	switch (Taster())
    10ba:	52 df       	rcall	.-348    	; 0xf60 <_ZN9Interface6TasterEv>
    10bc:	48 2f       	mov	r20, r24
    10be:	50 e0       	ldi	r21, 0x00	; 0
    10c0:	fa 01       	movw	r30, r20
    10c2:	b3 97       	sbiw	r30, 0x23	; 35
    10c4:	e7 31       	cpi	r30, 0x17	; 23
    10c6:	f1 05       	cpc	r31, r1
    10c8:	c0 f4       	brcc	.+48     	; 0x10fa <_ZN9Interface7unifiedEv+0x40>
    10ca:	ea 5b       	subi	r30, 0xBA	; 186
    10cc:	ff 4f       	sbci	r31, 0xFF	; 255
    10ce:	0c 94 c5 25 	jmp	0x4b8a	; 0x4b8a <__tablejump2__>
	{
	case '1':
		return 'B';
		break;
	case '2':
		return 'u';
    10d2:	85 e7       	ldi	r24, 0x75	; 117
    10d4:	08 95       	ret
		break;
	case '3':
		return 'A';
    10d6:	81 e4       	ldi	r24, 0x41	; 65
    10d8:	08 95       	ret
		break;
	case '4':
		return 'l';
    10da:	8c e6       	ldi	r24, 0x6C	; 108
    10dc:	08 95       	ret
		break;
	case '5':
		return 'o';
    10de:	8f e6       	ldi	r24, 0x6F	; 111
    10e0:	08 95       	ret
		break;
	case '6':
		return 'r';
    10e2:	82 e7       	ldi	r24, 0x72	; 114
    10e4:	08 95       	ret
		break;
	case '7':
		return 'Y';
    10e6:	89 e5       	ldi	r24, 0x59	; 89
    10e8:	08 95       	ret
		break;
	case '8':
		return 'd';
    10ea:	84 e6       	ldi	r24, 0x64	; 100
    10ec:	08 95       	ret
		break;
	case '9':
		return 'X';
    10ee:	88 e5       	ldi	r24, 0x58	; 88
    10f0:	08 95       	ret
		break;
	case '*':
		return 'e';
    10f2:	85 e6       	ldi	r24, 0x65	; 101
    10f4:	08 95       	ret
		break;
	case '0':
		return '0';
		break;
	case '#':
		return 'm';
    10f6:	8d e6       	ldi	r24, 0x6D	; 109
    10f8:	08 95       	ret
		break;
	default:
		return ' ';
    10fa:	80 e2       	ldi	r24, 0x20	; 32
    10fc:	08 95       	ret

uint8_t Interface::unified(){
	switch (Taster())
	{
	case '1':
		return 'B';
    10fe:	82 e4       	ldi	r24, 0x42	; 66
		break;
	default:
		return ' ';
		break;
	}
}
    1100:	08 95       	ret

00001102 <_ZN9Interface17ZahlenausTastaturEv>:

uint8_t Interface::ZahlenausTastatur(){
    1102:	cf 93       	push	r28
    1104:	df 93       	push	r29
    1106:	ec 01       	movw	r28, r24
	while(true){
		uint8_t taste = Taster();
    1108:	ce 01       	movw	r24, r28
    110a:	2a df       	rcall	.-428    	; 0xf60 <_ZN9Interface6TasterEv>
		if(taste>='0' && taste<='9'){
    110c:	80 53       	subi	r24, 0x30	; 48
    110e:	8a 30       	cpi	r24, 0x0A	; 10
    1110:	d8 f7       	brcc	.-10     	; 0x1108 <_ZN9Interface17ZahlenausTastaturEv+0x6>
			return taste - '0';
		}
	}
}
    1112:	df 91       	pop	r29
    1114:	cf 91       	pop	r28
    1116:	08 95       	ret

00001118 <_ZN7LSM303DD1Ev>:
	//FIFO Bypass Mode
	ACCBypassmode();
}

void LSM303D::ACCStreammode(){
	LSM303_command(FIFO_CTRL,(1<<FM1));
    1118:	46 96       	adiw	r24, 0x16	; 22
    111a:	cf ce       	rjmp	.-610    	; 0xeba <_ZN3I2CD1Ev>
    111c:	08 95       	ret

0000111e <_ZN7LSM303D14LSM303_commandEhh>:
    111e:	0f 93       	push	r16
    1120:	1f 93       	push	r17
    1122:	cf 93       	push	r28
    1124:	df 93       	push	r29
    1126:	06 2f       	mov	r16, r22
    1128:	14 2f       	mov	r17, r20
    112a:	ec 01       	movw	r28, r24
    112c:	66 96       	adiw	r28, 0x16	; 22
    112e:	ce 01       	movw	r24, r28
    1130:	c5 de       	rcall	.-630    	; 0xebc <_ZN3I2C9twi_startEv>
    1132:	6a e3       	ldi	r22, 0x3A	; 58
    1134:	ce 01       	movw	r24, r28
    1136:	ca de       	rcall	.-620    	; 0xecc <_ZN3I2C9twi_writeEh>
    1138:	60 2f       	mov	r22, r16
    113a:	ce 01       	movw	r24, r28
    113c:	c7 de       	rcall	.-626    	; 0xecc <_ZN3I2C9twi_writeEh>
    113e:	61 2f       	mov	r22, r17
    1140:	ce 01       	movw	r24, r28
    1142:	c4 de       	rcall	.-632    	; 0xecc <_ZN3I2C9twi_writeEh>
    1144:	ce 01       	movw	r24, r28
    1146:	be de       	rcall	.-644    	; 0xec4 <_ZN3I2C8twi_stopEv>
    1148:	df 91       	pop	r29
    114a:	cf 91       	pop	r28
    114c:	1f 91       	pop	r17
    114e:	0f 91       	pop	r16
    1150:	08 95       	ret

00001152 <_ZN7LSM303D13ACCBypassmodeEv>:
}

void LSM303D::ACCBypassmode(){
	LSM303_command(FIFO_CTRL,0x00);
    1152:	40 e0       	ldi	r20, 0x00	; 0
    1154:	6e e2       	ldi	r22, 0x2E	; 46
    1156:	e3 cf       	rjmp	.-58     	; 0x111e <_ZN7LSM303D14LSM303_commandEhh>
    1158:	08 95       	ret

0000115a <_ZN7LSM303D9acce_initEv>:
// default destructor
LSM303D::~LSM303D()
{
} //~LSM303D

void LSM303D::acce_init(){
    115a:	cf 93       	push	r28
    115c:	df 93       	push	r29
    115e:	ec 01       	movw	r28, r24
	//ACC Activ und 25Hz ohne Block dataread
	LSM303_command(CTRL1,(1<<AXEN)|(1<<AYEN)|(1<<AZEN)|(1<<AODR2));
    1160:	47 e4       	ldi	r20, 0x47	; 71
    1162:	60 e2       	ldi	r22, 0x20	; 32
    1164:	dc df       	rcall	.-72     	; 0x111e <_ZN7LSM303D14LSM303_commandEhh>
	
	//ACC fuer +-2g
	LSM303_command(CTRL2,0x00);
    1166:	40 e0       	ldi	r20, 0x00	; 0
    1168:	61 e2       	ldi	r22, 0x21	; 33
    116a:	ce 01       	movw	r24, r28
    116c:	d8 df       	rcall	.-80     	; 0x111e <_ZN7LSM303D14LSM303_commandEhh>
	
	//Temperatursensor an
	LSM303_command(CTRL5,(1<<TEMP_EN));
    116e:	40 e8       	ldi	r20, 0x80	; 128
    1170:	64 e2       	ldi	r22, 0x24	; 36
    1172:	ce 01       	movw	r24, r28
    1174:	d4 df       	rcall	.-88     	; 0x111e <_ZN7LSM303D14LSM303_commandEhh>
	
	//FIFO Bypass Mode
	ACCBypassmode();
    1176:	ce 01       	movw	r24, r28
    1178:	ec df       	rcall	.-40     	; 0x1152 <_ZN7LSM303D13ACCBypassmodeEv>
}
    117a:	df 91       	pop	r29
    117c:	cf 91       	pop	r28
    117e:	08 95       	ret

00001180 <_ZN7LSM303DC1Ev>:


#include "LSM303D.h"

// default constructor
LSM303D::LSM303D()
    1180:	cf 93       	push	r28
    1182:	df 93       	push	r29
    1184:	ec 01       	movw	r28, r24
    1186:	46 96       	adiw	r24, 0x16	; 22
    1188:	94 de       	rcall	.-728    	; 0xeb2 <_ZN3I2CC1Ev>
{
	//Variablen initialisieren
	Tempera=0;
    118a:	1f 82       	std	Y+7, r1	; 0x07
    118c:	1e 82       	std	Y+6, r1	; 0x06
	roll=0.0;
    118e:	18 86       	std	Y+8, r1	; 0x08
    1190:	19 86       	std	Y+9, r1	; 0x09
    1192:	1a 86       	std	Y+10, r1	; 0x0a
    1194:	1b 86       	std	Y+11, r1	; 0x0b
	pitch=0.0;
    1196:	1c 86       	std	Y+12, r1	; 0x0c
    1198:	1d 86       	std	Y+13, r1	; 0x0d
    119a:	1e 86       	std	Y+14, r1	; 0x0e
    119c:	1f 86       	std	Y+15, r1	; 0x0f
	Schrittzaehler=0;
    119e:	19 8a       	std	Y+17, r1	; 0x11
    11a0:	18 8a       	std	Y+16, r1	; 0x10
	gravity=0;
    11a2:	1a 8a       	std	Y+18, r1	; 0x12
    11a4:	1b 8a       	std	Y+19, r1	; 0x13
    11a6:	1c 8a       	std	Y+20, r1	; 0x14
    11a8:	1d 8a       	std	Y+21, r1	; 0x15
	higher=0;
    11aa:	de 01       	movw	r26, r28
    11ac:	a1 52       	subi	r26, 0x21	; 33
    11ae:	bf 4f       	sbci	r27, 0xFF	; 255
    11b0:	1d 92       	st	X+, r1
    11b2:	1d 92       	st	X+, r1
    11b4:	1d 92       	st	X+, r1
    11b6:	1c 92       	st	X, r1
    11b8:	13 97       	sbiw	r26, 0x03	; 3
	lower=0;
    11ba:	fe 01       	movw	r30, r28
    11bc:	ed 51       	subi	r30, 0x1D	; 29
    11be:	ff 4f       	sbci	r31, 0xFF	; 255
    11c0:	10 82       	st	Z, r1
    11c2:	11 82       	std	Z+1, r1	; 0x01
    11c4:	12 82       	std	Z+2, r1	; 0x02
    11c6:	13 82       	std	Z+3, r1	; 0x03
	threschold=27;	//aus Erfahrung
    11c8:	34 96       	adiw	r30, 0x04	; 4
    11ca:	8b e1       	ldi	r24, 0x1B	; 27
    11cc:	90 e0       	ldi	r25, 0x00	; 0
    11ce:	91 83       	std	Z+1, r25	; 0x01
    11d0:	80 83       	st	Z, r24
	for (uint8_t i=0;i<3;i++)
	{
		achsen_A[i]=0;
    11d2:	19 82       	std	Y+1, r1	; 0x01
    11d4:	18 82       	st	Y, r1
    11d6:	1b 82       	std	Y+3, r1	; 0x03
    11d8:	1a 82       	std	Y+2, r1	; 0x02
    11da:	1d 82       	std	Y+5, r1	; 0x05
    11dc:	1c 82       	std	Y+4, r1	; 0x04
    11de:	e0 5d       	subi	r30, 0xD0	; 208
    11e0:	f1 09       	sbc	r31, r1
    11e2:	9d 01       	movw	r18, r26
	}
	for (uint8_t i=0;i<50;i++)
	{
		Daten[i]=0;
    11e4:	11 92       	st	Z+, r1
    11e6:	11 92       	st	Z+, r1
    11e8:	11 92       	st	Z+, r1
    11ea:	11 92       	st	Z+, r1
	threschold=27;	//aus Erfahrung
	for (uint8_t i=0;i<3;i++)
	{
		achsen_A[i]=0;
	}
	for (uint8_t i=0;i<50;i++)
    11ec:	e2 17       	cp	r30, r18
    11ee:	f3 07       	cpc	r31, r19
    11f0:	c9 f7       	brne	.-14     	; 0x11e4 <_ZN7LSM303DC1Ev+0x64>
	{
		Daten[i]=0;
	}
	
	//ACC init
	acce_init();
    11f2:	ce 01       	movw	r24, r28
    11f4:	b2 df       	rcall	.-156    	; 0x115a <_ZN7LSM303D9acce_initEv>
} //LSM303D
    11f6:	df 91       	pop	r29
    11f8:	cf 91       	pop	r28
    11fa:	08 95       	ret

000011fc <_ZN7monitor11tastendruckEPh>:
    11fc:	80 e0       	ldi	r24, 0x00	; 0
    11fe:	08 95       	ret

00001200 <_ZN3uhr11tastendruckEPh>:
    1200:	fc 01       	movw	r30, r24
    1202:	db 01       	movw	r26, r22
    1204:	9c 91       	ld	r25, X
    1206:	95 36       	cpi	r25, 0x65	; 101
    1208:	39 f4       	brne	.+14     	; 0x1218 <_ZN3uhr11tastendruckEPh+0x18>
    120a:	81 a5       	ldd	r24, Z+41	; 0x29
    120c:	81 30       	cpi	r24, 0x01	; 1
    120e:	11 f4       	brne	.+4      	; 0x1214 <_ZN3uhr11tastendruckEPh+0x14>
    1210:	11 a6       	std	Z+41, r1	; 0x29
    1212:	02 c0       	rjmp	.+4      	; 0x1218 <_ZN3uhr11tastendruckEPh+0x18>
    1214:	81 e0       	ldi	r24, 0x01	; 1
    1216:	81 a7       	std	Z+41, r24	; 0x29
    1218:	80 e0       	ldi	r24, 0x00	; 0
    121a:	08 95       	ret

0000121c <_ZN13einstellungen11tastendruckEPh>:
    121c:	80 e0       	ldi	r24, 0x00	; 0
    121e:	08 95       	ret

00001220 <_ZN5menue11tastendruckEPh>:
    1220:	80 e0       	ldi	r24, 0x00	; 0
    1222:	08 95       	ret

00001224 <_ZN9offscreen4drawEv>:
    1224:	cf 93       	push	r28
    1226:	df 93       	push	r29
    1228:	ec 01       	movw	r28, r24
    122a:	8f 89       	ldd	r24, Y+23	; 0x17
    122c:	98 8d       	ldd	r25, Y+24	; 0x18
    122e:	ec d9       	rcall	.-3112   	; 0x608 <_ZN7Display10clearFrameEv>
    1230:	8f 89       	ldd	r24, Y+23	; 0x17
    1232:	98 8d       	ldd	r25, Y+24	; 0x18
    1234:	63 da       	rcall	.-2874   	; 0x6fc <_ZN7Display9sendFrameEv>
    1236:	df 91       	pop	r29
    1238:	cf 91       	pop	r28
    123a:	08 95       	ret

0000123c <_ZN9wilkommen4drawEv>:
    123c:	ef 92       	push	r14
    123e:	ff 92       	push	r15
    1240:	0f 93       	push	r16
    1242:	1f 93       	push	r17
    1244:	cf 93       	push	r28
    1246:	df 93       	push	r29
    1248:	ec 01       	movw	r28, r24
    124a:	8f 89       	ldd	r24, Y+23	; 0x17
    124c:	98 8d       	ldd	r25, Y+24	; 0x18
    124e:	dc d9       	rcall	.-3144   	; 0x608 <_ZN7Display10clearFrameEv>
    1250:	7e 01       	movw	r14, r28
    1252:	22 e0       	ldi	r18, 0x02	; 2
    1254:	e2 0e       	add	r14, r18
    1256:	f1 1c       	adc	r15, r1
    1258:	8f e0       	ldi	r24, 0x0F	; 15
    125a:	e6 e0       	ldi	r30, 0x06	; 6
    125c:	f1 e0       	ldi	r31, 0x01	; 1
    125e:	d7 01       	movw	r26, r14
    1260:	01 90       	ld	r0, Z+
    1262:	0d 92       	st	X+, r0
    1264:	8a 95       	dec	r24
    1266:	e1 f7       	brne	.-8      	; 0x1260 <_ZN9wilkommen4drawEv+0x24>
    1268:	8e e0       	ldi	r24, 0x0E	; 14
    126a:	8e 8b       	std	Y+22, r24	; 0x16
    126c:	00 e0       	ldi	r16, 0x00	; 0
    126e:	10 e0       	ldi	r17, 0x00	; 0
    1270:	fe 01       	movw	r30, r28
    1272:	e1 0f       	add	r30, r17
    1274:	f1 1d       	adc	r31, r1
    1276:	20 e0       	ldi	r18, 0x00	; 0
    1278:	40 2f       	mov	r20, r16
    127a:	62 81       	ldd	r22, Z+2	; 0x02
    127c:	8f 89       	ldd	r24, Y+23	; 0x17
    127e:	98 8d       	ldd	r25, Y+24	; 0x18
    1280:	db da       	rcall	.-2634   	; 0x838 <_ZN7Display9draw_ASCIEhhh>
    1282:	1f 5f       	subi	r17, 0xFF	; 255
    1284:	0a 5f       	subi	r16, 0xFA	; 250
    1286:	8e 89       	ldd	r24, Y+22	; 0x16
    1288:	18 17       	cp	r17, r24
    128a:	90 f3       	brcs	.-28     	; 0x1270 <_ZN9wilkommen4drawEv+0x34>
    128c:	8f e0       	ldi	r24, 0x0F	; 15
    128e:	e5 e1       	ldi	r30, 0x15	; 21
    1290:	f1 e0       	ldi	r31, 0x01	; 1
    1292:	d7 01       	movw	r26, r14
    1294:	01 90       	ld	r0, Z+
    1296:	0d 92       	st	X+, r0
    1298:	8a 95       	dec	r24
    129a:	e1 f7       	brne	.-8      	; 0x1294 <_ZN9wilkommen4drawEv+0x58>
    129c:	8e e0       	ldi	r24, 0x0E	; 14
    129e:	8e 8b       	std	Y+22, r24	; 0x16
    12a0:	00 e0       	ldi	r16, 0x00	; 0
    12a2:	10 e0       	ldi	r17, 0x00	; 0
    12a4:	fe 01       	movw	r30, r28
    12a6:	e1 0f       	add	r30, r17
    12a8:	f1 1d       	adc	r31, r1
    12aa:	28 e0       	ldi	r18, 0x08	; 8
    12ac:	40 2f       	mov	r20, r16
    12ae:	62 81       	ldd	r22, Z+2	; 0x02
    12b0:	8f 89       	ldd	r24, Y+23	; 0x17
    12b2:	98 8d       	ldd	r25, Y+24	; 0x18
    12b4:	c1 da       	rcall	.-2686   	; 0x838 <_ZN7Display9draw_ASCIEhhh>
    12b6:	1f 5f       	subi	r17, 0xFF	; 255
    12b8:	0a 5f       	subi	r16, 0xFA	; 250
    12ba:	8e 89       	ldd	r24, Y+22	; 0x16
    12bc:	18 17       	cp	r17, r24
    12be:	90 f3       	brcs	.-28     	; 0x12a4 <_ZN9wilkommen4drawEv+0x68>
    12c0:	80 e4       	ldi	r24, 0x40	; 64
    12c2:	8f 93       	push	r24
    12c4:	81 e4       	ldi	r24, 0x41	; 65
    12c6:	8f 93       	push	r24
    12c8:	87 e4       	ldi	r24, 0x47	; 71
    12ca:	8f 93       	push	r24
    12cc:	8e ea       	ldi	r24, 0xAE	; 174
    12ce:	8f 93       	push	r24
    12d0:	84 e2       	ldi	r24, 0x24	; 36
    12d2:	91 e0       	ldi	r25, 0x01	; 1
    12d4:	9f 93       	push	r25
    12d6:	8f 93       	push	r24
    12d8:	ff 92       	push	r15
    12da:	ef 92       	push	r14
    12dc:	0e 94 21 28 	call	0x5042	; 0x5042 <sprintf>
    12e0:	8e 8b       	std	Y+22, r24	; 0x16
    12e2:	2d b7       	in	r18, 0x3d	; 61
    12e4:	3e b7       	in	r19, 0x3e	; 62
    12e6:	28 5f       	subi	r18, 0xF8	; 248
    12e8:	3f 4f       	sbci	r19, 0xFF	; 255
    12ea:	0f b6       	in	r0, 0x3f	; 63
    12ec:	f8 94       	cli
    12ee:	3e bf       	out	0x3e, r19	; 62
    12f0:	0f be       	out	0x3f, r0	; 63
    12f2:	2d bf       	out	0x3d, r18	; 61
    12f4:	88 23       	and	r24, r24
    12f6:	81 f0       	breq	.+32     	; 0x1318 <_ZN9wilkommen4drawEv+0xdc>
    12f8:	00 e0       	ldi	r16, 0x00	; 0
    12fa:	10 e0       	ldi	r17, 0x00	; 0
    12fc:	fe 01       	movw	r30, r28
    12fe:	e1 0f       	add	r30, r17
    1300:	f1 1d       	adc	r31, r1
    1302:	20 e2       	ldi	r18, 0x20	; 32
    1304:	40 2f       	mov	r20, r16
    1306:	62 81       	ldd	r22, Z+2	; 0x02
    1308:	8f 89       	ldd	r24, Y+23	; 0x17
    130a:	98 8d       	ldd	r25, Y+24	; 0x18
    130c:	95 da       	rcall	.-2774   	; 0x838 <_ZN7Display9draw_ASCIEhhh>
    130e:	1f 5f       	subi	r17, 0xFF	; 255
    1310:	0a 5f       	subi	r16, 0xFA	; 250
    1312:	8e 89       	ldd	r24, Y+22	; 0x16
    1314:	18 17       	cp	r17, r24
    1316:	90 f3       	brcs	.-28     	; 0x12fc <_ZN9wilkommen4drawEv+0xc0>
    1318:	8f 89       	ldd	r24, Y+23	; 0x17
    131a:	98 8d       	ldd	r25, Y+24	; 0x18
    131c:	ef d9       	rcall	.-3106   	; 0x6fc <_ZN7Display9sendFrameEv>
    131e:	df 91       	pop	r29
    1320:	cf 91       	pop	r28
    1322:	1f 91       	pop	r17
    1324:	0f 91       	pop	r16
    1326:	ff 90       	pop	r15
    1328:	ef 90       	pop	r14
    132a:	08 95       	ret

0000132c <_Z8ADC_Readh>:
    132c:	ec e7       	ldi	r30, 0x7C	; 124
    132e:	f0 e0       	ldi	r31, 0x00	; 0
    1330:	90 81       	ld	r25, Z
    1332:	8f 71       	andi	r24, 0x1F	; 31
    1334:	90 7e       	andi	r25, 0xE0	; 224
    1336:	89 2b       	or	r24, r25
    1338:	80 83       	st	Z, r24
    133a:	ea e7       	ldi	r30, 0x7A	; 122
    133c:	f0 e0       	ldi	r31, 0x00	; 0
    133e:	80 81       	ld	r24, Z
    1340:	80 64       	ori	r24, 0x40	; 64
    1342:	80 83       	st	Z, r24
    1344:	80 81       	ld	r24, Z
    1346:	86 fd       	sbrc	r24, 6
    1348:	fd cf       	rjmp	.-6      	; 0x1344 <_Z8ADC_Readh+0x18>
    134a:	80 91 78 00 	lds	r24, 0x0078
    134e:	90 91 79 00 	lds	r25, 0x0079
    1352:	08 95       	ret

00001354 <_Z14Batteriestatusv>:

#ifndef BATMIN
#define BATMIN 3.0
#endif

int8_t Batteriestatus(){
    1354:	cf 92       	push	r12
    1356:	df 92       	push	r13
    1358:	ef 92       	push	r14
    135a:	ff 92       	push	r15
	uint16_t ADCwert=ADC_Read(0);
    135c:	80 e0       	ldi	r24, 0x00	; 0
    135e:	e6 df       	rcall	.-52     	; 0x132c <_Z8ADC_Readh>
	batterie = (ADCwert/1023.0)*3.29*SPANNUNGSTEILER;
    1360:	bc 01       	movw	r22, r24
    1362:	80 e0       	ldi	r24, 0x00	; 0
    1364:	90 e0       	ldi	r25, 0x00	; 0
    1366:	0e 94 7f 20 	call	0x40fe	; 0x40fe <__floatunsisf>
    136a:	20 e0       	ldi	r18, 0x00	; 0
    136c:	30 ec       	ldi	r19, 0xC0	; 192
    136e:	4f e7       	ldi	r20, 0x7F	; 127
    1370:	54 e4       	ldi	r21, 0x44	; 68
    1372:	0e 94 e6 1f 	call	0x3fcc	; 0x3fcc <__divsf3>
    1376:	2c e5       	ldi	r18, 0x5C	; 92
    1378:	3f e8       	ldi	r19, 0x8F	; 143
    137a:	42 e5       	ldi	r20, 0x52	; 82
    137c:	50 e4       	ldi	r21, 0x40	; 64
    137e:	0e 94 93 21 	call	0x4326	; 0x4326 <__mulsf3>
    1382:	2d e0       	ldi	r18, 0x0D	; 13
    1384:	31 e7       	ldi	r19, 0x71	; 113
    1386:	40 e0       	ldi	r20, 0x00	; 0
    1388:	50 e4       	ldi	r21, 0x40	; 64
    138a:	0e 94 93 21 	call	0x4326	; 0x4326 <__mulsf3>
    138e:	60 93 40 03 	sts	0x0340, r22
    1392:	70 93 41 03 	sts	0x0341, r23
    1396:	80 93 42 03 	sts	0x0342, r24
    139a:	90 93 43 03 	sts	0x0343, r25
	float stat = ((batterie-BATMIN)/(4.2-BATMIN)*100);
    139e:	26 e6       	ldi	r18, 0x66	; 102
    13a0:	36 e6       	ldi	r19, 0x66	; 102
    13a2:	46 e6       	ldi	r20, 0x66	; 102
    13a4:	50 e4       	ldi	r21, 0x40	; 64
    13a6:	0e 94 7e 1f 	call	0x3efc	; 0x3efc <__subsf3>
    13aa:	28 e9       	ldi	r18, 0x98	; 152
    13ac:	39 e9       	ldi	r19, 0x99	; 153
    13ae:	49 e1       	ldi	r20, 0x19	; 25
    13b0:	5f e3       	ldi	r21, 0x3F	; 63
    13b2:	0e 94 e6 1f 	call	0x3fcc	; 0x3fcc <__divsf3>
    13b6:	20 e0       	ldi	r18, 0x00	; 0
    13b8:	30 e0       	ldi	r19, 0x00	; 0
    13ba:	48 ec       	ldi	r20, 0xC8	; 200
    13bc:	52 e4       	ldi	r21, 0x42	; 66
    13be:	0e 94 93 21 	call	0x4326	; 0x4326 <__mulsf3>
    13c2:	6b 01       	movw	r12, r22
    13c4:	7c 01       	movw	r14, r24
	uint8_t temp =(uint8_t) (stat*10);
    13c6:	20 e0       	ldi	r18, 0x00	; 0
    13c8:	30 e0       	ldi	r19, 0x00	; 0
    13ca:	40 e2       	ldi	r20, 0x20	; 32
    13cc:	51 e4       	ldi	r21, 0x41	; 65
    13ce:	0e 94 93 21 	call	0x4326	; 0x4326 <__mulsf3>
    13d2:	0e 94 53 20 	call	0x40a6	; 0x40a6 <__fixunssfsi>
	if (temp%10>=5)
    13d6:	8d ec       	ldi	r24, 0xCD	; 205
    13d8:	68 9f       	mul	r22, r24
    13da:	81 2d       	mov	r24, r1
    13dc:	11 24       	eor	r1, r1
    13de:	86 95       	lsr	r24
    13e0:	86 95       	lsr	r24
    13e2:	86 95       	lsr	r24
    13e4:	88 0f       	add	r24, r24
    13e6:	28 2f       	mov	r18, r24
    13e8:	22 0f       	add	r18, r18
    13ea:	22 0f       	add	r18, r18
    13ec:	82 0f       	add	r24, r18
    13ee:	96 2f       	mov	r25, r22
    13f0:	98 1b       	sub	r25, r24
    13f2:	95 30       	cpi	r25, 0x05	; 5
    13f4:	70 f0       	brcs	.+28     	; 0x1412 <_Z14Batteriestatusv+0xbe>
	{
		stat = (uint8_t)stat+1;
    13f6:	c7 01       	movw	r24, r14
    13f8:	b6 01       	movw	r22, r12
    13fa:	0e 94 53 20 	call	0x40a6	; 0x40a6 <__fixunssfsi>
    13fe:	70 e0       	ldi	r23, 0x00	; 0
    1400:	6f 5f       	subi	r22, 0xFF	; 255
    1402:	7f 4f       	sbci	r23, 0xFF	; 255
    1404:	07 2e       	mov	r0, r23
    1406:	00 0c       	add	r0, r0
    1408:	88 0b       	sbc	r24, r24
    140a:	99 0b       	sbc	r25, r25
    140c:	0e 94 81 20 	call	0x4102	; 0x4102 <__floatsisf>
    1410:	09 c0       	rjmp	.+18     	; 0x1424 <_Z14Batteriestatusv+0xd0>
	}
	else
	{
		stat = (uint8_t)stat;
    1412:	c7 01       	movw	r24, r14
    1414:	b6 01       	movw	r22, r12
    1416:	0e 94 53 20 	call	0x40a6	; 0x40a6 <__fixunssfsi>
    141a:	70 e0       	ldi	r23, 0x00	; 0
    141c:	80 e0       	ldi	r24, 0x00	; 0
    141e:	90 e0       	ldi	r25, 0x00	; 0
    1420:	0e 94 7f 20 	call	0x40fe	; 0x40fe <__floatunsisf>
	}
	return stat;
    1424:	0e 94 4e 20 	call	0x409c	; 0x409c <__fixsfsi>
    1428:	86 2f       	mov	r24, r22
}
    142a:	ff 90       	pop	r15
    142c:	ef 90       	pop	r14
    142e:	df 90       	pop	r13
    1430:	cf 90       	pop	r12
    1432:	08 95       	ret

00001434 <_ZN5menue4drawEv>:
	
	uint8_t tastendruck(uint8_t *tast){
		return 0;
	}

	void draw(){
    1434:	cf 92       	push	r12
    1436:	df 92       	push	r13
    1438:	ef 92       	push	r14
    143a:	ff 92       	push	r15
    143c:	0f 93       	push	r16
    143e:	1f 93       	push	r17
    1440:	cf 93       	push	r28
    1442:	df 93       	push	r29
    1444:	ec 01       	movw	r28, r24
		return 0;
	}
	
	//drawfunktion
	virtual void draw(){
		oled->clearFrame();
    1446:	8f 89       	ldd	r24, Y+23	; 0x17
    1448:	98 8d       	ldd	r25, Y+24	; 0x18
    144a:	de d8       	rcall	.-3652   	; 0x608 <_ZN7Display10clearFrameEv>
    144c:	10 e0       	ldi	r17, 0x00	; 0
    144e:	e1 2c       	mov	r14, r1
    1450:	f1 2c       	mov	r15, r1
	}
	
	//draw header and overload it
	void header(){
		for(uint8_t i=0;i<8;i++){
			oled->draw_ASCI(rtc->msg_uhr[i],i*charsize,0);
    1452:	e9 8d       	ldd	r30, Y+25	; 0x19
    1454:	fa 8d       	ldd	r31, Y+26	; 0x1a
    1456:	ee 0d       	add	r30, r14
    1458:	ff 1d       	adc	r31, r15
    145a:	20 e0       	ldi	r18, 0x00	; 0
    145c:	41 2f       	mov	r20, r17
    145e:	60 81       	ld	r22, Z
    1460:	8f 89       	ldd	r24, Y+23	; 0x17
    1462:	98 8d       	ldd	r25, Y+24	; 0x18
    1464:	e9 d9       	rcall	.-3118   	; 0x838 <_ZN7Display9draw_ASCIEhhh>
    1466:	8f ef       	ldi	r24, 0xFF	; 255
    1468:	e8 1a       	sub	r14, r24
    146a:	f8 0a       	sbc	r15, r24
    146c:	1a 5f       	subi	r17, 0xFA	; 250
		return &name[0];
	}
	
	//draw header and overload it
	void header(){
		for(uint8_t i=0;i<8;i++){
    146e:	10 33       	cpi	r17, 0x30	; 48
    1470:	81 f7       	brne	.-32     	; 0x1452 <_ZN5menue4drawEv+0x1e>
			oled->draw_ASCI(rtc->msg_uhr[i],i*charsize,0);
		}
		buffersize=sprintf(buffer,"Bat: %i%%",Batteriestatus());
    1472:	70 df       	rcall	.-288    	; 0x1354 <_Z14Batteriestatusv>
    1474:	7e 01       	movw	r14, r28
    1476:	92 e0       	ldi	r25, 0x02	; 2
    1478:	e9 0e       	add	r14, r25
    147a:	f1 1c       	adc	r15, r1
    147c:	28 2f       	mov	r18, r24
    147e:	08 2e       	mov	r0, r24
    1480:	00 0c       	add	r0, r0
    1482:	33 0b       	sbc	r19, r19
    1484:	3f 93       	push	r19
    1486:	8f 93       	push	r24
    1488:	82 e3       	ldi	r24, 0x32	; 50
    148a:	91 e0       	ldi	r25, 0x01	; 1
    148c:	9f 93       	push	r25
    148e:	8f 93       	push	r24
    1490:	ff 92       	push	r15
    1492:	ef 92       	push	r14
    1494:	0e 94 21 28 	call	0x5042	; 0x5042 <sprintf>
    1498:	8e 8b       	std	Y+22, r24	; 0x16
		for(uint8_t i=((SSD1306_WIDTH/charsize)-buffersize);i<(SSD1306_WIDTH/charsize);i++){
    149a:	15 e1       	ldi	r17, 0x15	; 21
    149c:	18 1b       	sub	r17, r24
    149e:	0f 90       	pop	r0
    14a0:	0f 90       	pop	r0
    14a2:	0f 90       	pop	r0
    14a4:	0f 90       	pop	r0
    14a6:	0f 90       	pop	r0
    14a8:	0f 90       	pop	r0
    14aa:	15 31       	cpi	r17, 0x15	; 21
    14ac:	08 f0       	brcs	.+2      	; 0x14b0 <_ZN5menue4drawEv+0x7c>
    14ae:	b6 c0       	rjmp	.+364    	; 0x161c <_ZN5menue4drawEv+0x1e8>
    14b0:	01 2f       	mov	r16, r17
    14b2:	00 0f       	add	r16, r16
    14b4:	01 0f       	add	r16, r17
    14b6:	00 0f       	add	r16, r16
			oled->draw_ASCI(buffer[i-((SSD1306_WIDTH/charsize)-buffersize)],i*charsize,0);
    14b8:	8e 89       	ldd	r24, Y+22	; 0x16
    14ba:	fe 01       	movw	r30, r28
    14bc:	e1 0f       	add	r30, r17
    14be:	f1 1d       	adc	r31, r1
    14c0:	e8 0f       	add	r30, r24
    14c2:	f1 1d       	adc	r31, r1
    14c4:	73 97       	sbiw	r30, 0x13	; 19
    14c6:	20 e0       	ldi	r18, 0x00	; 0
    14c8:	40 2f       	mov	r20, r16
    14ca:	60 81       	ld	r22, Z
    14cc:	8f 89       	ldd	r24, Y+23	; 0x17
    14ce:	98 8d       	ldd	r25, Y+24	; 0x18
    14d0:	b3 d9       	rcall	.-3226   	; 0x838 <_ZN7Display9draw_ASCIEhhh>
	void header(){
		for(uint8_t i=0;i<8;i++){
			oled->draw_ASCI(rtc->msg_uhr[i],i*charsize,0);
		}
		buffersize=sprintf(buffer,"Bat: %i%%",Batteriestatus());
		for(uint8_t i=((SSD1306_WIDTH/charsize)-buffersize);i<(SSD1306_WIDTH/charsize);i++){
    14d2:	1f 5f       	subi	r17, 0xFF	; 255
    14d4:	0a 5f       	subi	r16, 0xFA	; 250
    14d6:	15 31       	cpi	r17, 0x15	; 21
    14d8:	79 f7       	brne	.-34     	; 0x14b8 <_ZN5menue4drawEv+0x84>
    14da:	a0 c0       	rjmp	.+320    	; 0x161c <_ZN5menue4drawEv+0x1e8>
	}
	
	//draw bottom and overload it
	void bottom(){
		for(uint8_t i=0;i<8;i++){
			oled->draw_ASCI(rtc->msg_dat[i],i*charsize+(SSD1306_WIDTH-bitsderrtc*charsize),7*charhighte);
    14dc:	e9 8d       	ldd	r30, Y+25	; 0x19
    14de:	fa 8d       	ldd	r31, Y+26	; 0x1a
    14e0:	ec 0d       	add	r30, r12
    14e2:	fd 1d       	adc	r31, r13
    14e4:	28 e3       	ldi	r18, 0x38	; 56
    14e6:	41 2f       	mov	r20, r17
    14e8:	60 85       	ldd	r22, Z+8	; 0x08
    14ea:	8f 89       	ldd	r24, Y+23	; 0x17
    14ec:	98 8d       	ldd	r25, Y+24	; 0x18
    14ee:	a4 d9       	rcall	.-3256   	; 0x838 <_ZN7Display9draw_ASCIEhhh>
    14f0:	8f ef       	ldi	r24, 0xFF	; 255
    14f2:	c8 1a       	sub	r12, r24
    14f4:	d8 0a       	sbc	r13, r24
    14f6:	1a 5f       	subi	r17, 0xFA	; 250
		}
	}
	
	//draw bottom and overload it
	void bottom(){
		for(uint8_t i=0;i<8;i++){
    14f8:	10 38       	cpi	r17, 0x80	; 128
    14fa:	81 f7       	brne	.-32     	; 0x14dc <_ZN5menue4drawEv+0xa8>
	void draw(){
		monitor::draw();
		header();
		bottom();
		//menueeintrag zeichnen
		buffersize=sprintf(buffer,"Uhr");
    14fc:	85 e5       	ldi	r24, 0x55	; 85
    14fe:	98 e6       	ldi	r25, 0x68	; 104
    1500:	a2 e7       	ldi	r26, 0x72	; 114
    1502:	b0 e0       	ldi	r27, 0x00	; 0
    1504:	8a 83       	std	Y+2, r24	; 0x02
    1506:	9b 83       	std	Y+3, r25	; 0x03
    1508:	ac 83       	std	Y+4, r26	; 0x04
    150a:	bd 83       	std	Y+5, r27	; 0x05
    150c:	83 e0       	ldi	r24, 0x03	; 3
    150e:	8e 8b       	std	Y+22, r24	; 0x16
    1510:	0c e0       	ldi	r16, 0x0C	; 12
    1512:	10 e0       	ldi	r17, 0x00	; 0
		for(uint8_t i=0;i<buffersize;i++){oled->draw_ASCI(buffer[i],i*charsize+2*charsize,2*charhighte);}
    1514:	fe 01       	movw	r30, r28
    1516:	e1 0f       	add	r30, r17
    1518:	f1 1d       	adc	r31, r1
    151a:	20 e1       	ldi	r18, 0x10	; 16
    151c:	40 2f       	mov	r20, r16
    151e:	62 81       	ldd	r22, Z+2	; 0x02
    1520:	8f 89       	ldd	r24, Y+23	; 0x17
    1522:	98 8d       	ldd	r25, Y+24	; 0x18
    1524:	89 d9       	rcall	.-3310   	; 0x838 <_ZN7Display9draw_ASCIEhhh>
    1526:	1f 5f       	subi	r17, 0xFF	; 255
    1528:	0a 5f       	subi	r16, 0xFA	; 250
    152a:	8e 89       	ldd	r24, Y+22	; 0x16
    152c:	18 17       	cp	r17, r24
    152e:	90 f3       	brcs	.-28     	; 0x1514 <_ZN5menue4drawEv+0xe0>
		buffersize=sprintf(buffer,"Tacho");
    1530:	86 e0       	ldi	r24, 0x06	; 6
    1532:	ec e3       	ldi	r30, 0x3C	; 60
    1534:	f1 e0       	ldi	r31, 0x01	; 1
    1536:	d7 01       	movw	r26, r14
    1538:	01 90       	ld	r0, Z+
    153a:	0d 92       	st	X+, r0
    153c:	8a 95       	dec	r24
    153e:	e1 f7       	brne	.-8      	; 0x1538 <_ZN5menue4drawEv+0x104>
    1540:	85 e0       	ldi	r24, 0x05	; 5
    1542:	8e 8b       	std	Y+22, r24	; 0x16
    1544:	0c e0       	ldi	r16, 0x0C	; 12
    1546:	10 e0       	ldi	r17, 0x00	; 0
		for(uint8_t i=0;i<buffersize;i++){oled->draw_ASCI(buffer[i],i*charsize+2*charsize,3*charhighte);}
    1548:	fe 01       	movw	r30, r28
    154a:	e1 0f       	add	r30, r17
    154c:	f1 1d       	adc	r31, r1
    154e:	28 e1       	ldi	r18, 0x18	; 24
    1550:	40 2f       	mov	r20, r16
    1552:	62 81       	ldd	r22, Z+2	; 0x02
    1554:	8f 89       	ldd	r24, Y+23	; 0x17
    1556:	98 8d       	ldd	r25, Y+24	; 0x18
    1558:	6f d9       	rcall	.-3362   	; 0x838 <_ZN7Display9draw_ASCIEhhh>
    155a:	1f 5f       	subi	r17, 0xFF	; 255
    155c:	0a 5f       	subi	r16, 0xFA	; 250
    155e:	8e 89       	ldd	r24, Y+22	; 0x16
    1560:	18 17       	cp	r17, r24
    1562:	90 f3       	brcs	.-28     	; 0x1548 <_ZN5menue4drawEv+0x114>
		buffersize=sprintf(buffer,"Wandern");
    1564:	88 e0       	ldi	r24, 0x08	; 8
    1566:	e2 e4       	ldi	r30, 0x42	; 66
    1568:	f1 e0       	ldi	r31, 0x01	; 1
    156a:	d7 01       	movw	r26, r14
    156c:	01 90       	ld	r0, Z+
    156e:	0d 92       	st	X+, r0
    1570:	8a 95       	dec	r24
    1572:	e1 f7       	brne	.-8      	; 0x156c <_ZN5menue4drawEv+0x138>
    1574:	87 e0       	ldi	r24, 0x07	; 7
    1576:	8e 8b       	std	Y+22, r24	; 0x16
    1578:	0c e0       	ldi	r16, 0x0C	; 12
    157a:	10 e0       	ldi	r17, 0x00	; 0
		for(uint8_t i=0;i<buffersize;i++){oled->draw_ASCI(buffer[i],i*charsize+2*charsize,4*charhighte);}
    157c:	fe 01       	movw	r30, r28
    157e:	e1 0f       	add	r30, r17
    1580:	f1 1d       	adc	r31, r1
    1582:	20 e2       	ldi	r18, 0x20	; 32
    1584:	40 2f       	mov	r20, r16
    1586:	62 81       	ldd	r22, Z+2	; 0x02
    1588:	8f 89       	ldd	r24, Y+23	; 0x17
    158a:	98 8d       	ldd	r25, Y+24	; 0x18
    158c:	55 d9       	rcall	.-3414   	; 0x838 <_ZN7Display9draw_ASCIEhhh>
    158e:	1f 5f       	subi	r17, 0xFF	; 255
    1590:	0a 5f       	subi	r16, 0xFA	; 250
    1592:	8e 89       	ldd	r24, Y+22	; 0x16
    1594:	18 17       	cp	r17, r24
    1596:	90 f3       	brcs	.-28     	; 0x157c <_ZN5menue4drawEv+0x148>
		buffersize=sprintf(buffer,"Einstellungen");
    1598:	8e e0       	ldi	r24, 0x0E	; 14
    159a:	ea e4       	ldi	r30, 0x4A	; 74
    159c:	f1 e0       	ldi	r31, 0x01	; 1
    159e:	d7 01       	movw	r26, r14
    15a0:	01 90       	ld	r0, Z+
    15a2:	0d 92       	st	X+, r0
    15a4:	8a 95       	dec	r24
    15a6:	e1 f7       	brne	.-8      	; 0x15a0 <_ZN5menue4drawEv+0x16c>
    15a8:	8d e0       	ldi	r24, 0x0D	; 13
    15aa:	8e 8b       	std	Y+22, r24	; 0x16
    15ac:	0c e0       	ldi	r16, 0x0C	; 12
    15ae:	10 e0       	ldi	r17, 0x00	; 0
		for(uint8_t i=0;i<buffersize;i++){oled->draw_ASCI(buffer[i],i*charsize+2*charsize,5*charhighte);}
    15b0:	fe 01       	movw	r30, r28
    15b2:	e1 0f       	add	r30, r17
    15b4:	f1 1d       	adc	r31, r1
    15b6:	28 e2       	ldi	r18, 0x28	; 40
    15b8:	40 2f       	mov	r20, r16
    15ba:	62 81       	ldd	r22, Z+2	; 0x02
    15bc:	8f 89       	ldd	r24, Y+23	; 0x17
    15be:	98 8d       	ldd	r25, Y+24	; 0x18
    15c0:	3b d9       	rcall	.-3466   	; 0x838 <_ZN7Display9draw_ASCIEhhh>
    15c2:	1f 5f       	subi	r17, 0xFF	; 255
    15c4:	0a 5f       	subi	r16, 0xFA	; 250
    15c6:	8e 89       	ldd	r24, Y+22	; 0x16
    15c8:	18 17       	cp	r17, r24
    15ca:	90 f3       	brcs	.-28     	; 0x15b0 <_ZN5menue4drawEv+0x17c>
		buffersize=sprintf(buffer,"Display aus");
    15cc:	8c e0       	ldi	r24, 0x0C	; 12
    15ce:	e8 e5       	ldi	r30, 0x58	; 88
    15d0:	f1 e0       	ldi	r31, 0x01	; 1
    15d2:	d7 01       	movw	r26, r14
    15d4:	01 90       	ld	r0, Z+
    15d6:	0d 92       	st	X+, r0
    15d8:	8a 95       	dec	r24
    15da:	e1 f7       	brne	.-8      	; 0x15d4 <_ZN5menue4drawEv+0x1a0>
    15dc:	8b e0       	ldi	r24, 0x0B	; 11
    15de:	8e 8b       	std	Y+22, r24	; 0x16
    15e0:	0c e0       	ldi	r16, 0x0C	; 12
    15e2:	10 e0       	ldi	r17, 0x00	; 0
		for(uint8_t i=0;i<buffersize;i++){oled->draw_ASCI(buffer[i],i*charsize+2*charsize,6*charhighte);}
    15e4:	fe 01       	movw	r30, r28
    15e6:	e1 0f       	add	r30, r17
    15e8:	f1 1d       	adc	r31, r1
    15ea:	20 e3       	ldi	r18, 0x30	; 48
    15ec:	40 2f       	mov	r20, r16
    15ee:	62 81       	ldd	r22, Z+2	; 0x02
    15f0:	8f 89       	ldd	r24, Y+23	; 0x17
    15f2:	98 8d       	ldd	r25, Y+24	; 0x18
    15f4:	21 d9       	rcall	.-3518   	; 0x838 <_ZN7Display9draw_ASCIEhhh>
    15f6:	1f 5f       	subi	r17, 0xFF	; 255
    15f8:	0a 5f       	subi	r16, 0xFA	; 250
    15fa:	8e 89       	ldd	r24, Y+22	; 0x16
    15fc:	18 17       	cp	r17, r24
    15fe:	90 f3       	brcs	.-28     	; 0x15e4 <_ZN5menue4drawEv+0x1b0>
		oled->draw_ASCI('>',0*charsize,(posy+2)*charhighte);
    1600:	2d a1       	ldd	r18, Y+37	; 0x25
    1602:	22 0f       	add	r18, r18
    1604:	22 0f       	add	r18, r18
    1606:	22 0f       	add	r18, r18
    1608:	20 5f       	subi	r18, 0xF0	; 240
    160a:	40 e0       	ldi	r20, 0x00	; 0
    160c:	6e e3       	ldi	r22, 0x3E	; 62
    160e:	8f 89       	ldd	r24, Y+23	; 0x17
    1610:	98 8d       	ldd	r25, Y+24	; 0x18
    1612:	12 d9       	rcall	.-3548   	; 0x838 <_ZN7Display9draw_ASCIEhhh>
		oled->clearFrame();
	}

	//send the frame to the display
	void send(){
		oled->sendFrame();	
    1614:	8f 89       	ldd	r24, Y+23	; 0x17
    1616:	98 8d       	ldd	r25, Y+24	; 0x18
    1618:	71 d8       	rcall	.-3870   	; 0x6fc <_ZN7Display9sendFrameEv>
    161a:	04 c0       	rjmp	.+8      	; 0x1624 <_ZN5menue4drawEv+0x1f0>
		return 0;
	}
	
	//drawfunktion
	virtual void draw(){
		oled->clearFrame();
    161c:	10 e5       	ldi	r17, 0x50	; 80
    161e:	c1 2c       	mov	r12, r1
    1620:	d1 2c       	mov	r13, r1
    1622:	5c cf       	rjmp	.-328    	; 0x14dc <_ZN5menue4drawEv+0xa8>
		for(uint8_t i=0;i<buffersize;i++){oled->draw_ASCI(buffer[i],i*charsize+2*charsize,5*charhighte);}
		buffersize=sprintf(buffer,"Display aus");
		for(uint8_t i=0;i<buffersize;i++){oled->draw_ASCI(buffer[i],i*charsize+2*charsize,6*charhighte);}
		oled->draw_ASCI('>',0*charsize,(posy+2)*charhighte);
		send();
	}
    1624:	df 91       	pop	r29
    1626:	cf 91       	pop	r28
    1628:	1f 91       	pop	r17
    162a:	0f 91       	pop	r16
    162c:	ff 90       	pop	r15
    162e:	ef 90       	pop	r14
    1630:	df 90       	pop	r13
    1632:	cf 90       	pop	r12
    1634:	08 95       	ret

00001636 <_ZN5tacho4drawEv>:
		}
		return 0;
	}

	//Anzeige schalten
	void draw(){
    1636:	af 92       	push	r10
    1638:	bf 92       	push	r11
    163a:	cf 92       	push	r12
    163c:	df 92       	push	r13
    163e:	ef 92       	push	r14
    1640:	ff 92       	push	r15
    1642:	0f 93       	push	r16
    1644:	1f 93       	push	r17
    1646:	cf 93       	push	r28
    1648:	df 93       	push	r29
    164a:	ec 01       	movw	r28, r24
		return 0;
	}
	
	//drawfunktion
	virtual void draw(){
		oled->clearFrame();
    164c:	8f 89       	ldd	r24, Y+23	; 0x17
    164e:	98 8d       	ldd	r25, Y+24	; 0x18
    1650:	0e 94 04 03 	call	0x608	; 0x608 <_ZN7Display10clearFrameEv>
				for(uint8_t i=((SSD1306_WIDTH/charsize)-buffersize);i<(SSD1306_WIDTH/charsize);i++){
					oled->draw_ASCI(buffer[i-((SSD1306_WIDTH/charsize)-buffersize)],i*charsize,0);
				}
				break;
			case 2:	//standard Header fuer fast alle Pages
				buffersize=sprintf(buffer,"Bat.: %i%%",Batteriestatus());
    1654:	7f de       	rcall	.-770    	; 0x1354 <_Z14Batteriestatusv>
    1656:	5e 01       	movw	r10, r28
    1658:	22 e0       	ldi	r18, 0x02	; 2
    165a:	a2 0e       	add	r10, r18
    165c:	b1 1c       	adc	r11, r1
    165e:	28 2f       	mov	r18, r24
    1660:	08 2e       	mov	r0, r24
    1662:	00 0c       	add	r0, r0
    1664:	33 0b       	sbc	r19, r19
    1666:	3f 93       	push	r19
    1668:	8f 93       	push	r24
    166a:	84 e6       	ldi	r24, 0x64	; 100
    166c:	91 e0       	ldi	r25, 0x01	; 1
    166e:	9f 93       	push	r25
    1670:	8f 93       	push	r24
    1672:	bf 92       	push	r11
    1674:	af 92       	push	r10
    1676:	0e 94 21 28 	call	0x5042	; 0x5042 <sprintf>
    167a:	8e 8b       	std	Y+22, r24	; 0x16
				for(uint8_t i=((SSD1306_WIDTH/charsize)-buffersize);i<(SSD1306_WIDTH/charsize);i++){
    167c:	95 e1       	ldi	r25, 0x15	; 21
    167e:	09 2f       	mov	r16, r25
    1680:	08 1b       	sub	r16, r24
    1682:	0f 90       	pop	r0
    1684:	0f 90       	pop	r0
    1686:	0f 90       	pop	r0
    1688:	0f 90       	pop	r0
    168a:	0f 90       	pop	r0
    168c:	0f 90       	pop	r0
    168e:	05 31       	cpi	r16, 0x15	; 21
    1690:	08 f0       	brcs	.+2      	; 0x1694 <_ZN5tacho4drawEv+0x5e>
    1692:	c5 c1       	rjmp	.+906    	; 0x1a1e <_ZN5tacho4drawEv+0x3e8>
    1694:	e0 2e       	mov	r14, r16
    1696:	ee 0c       	add	r14, r14
    1698:	e0 0e       	add	r14, r16
    169a:	1e 2d       	mov	r17, r14
    169c:	11 0f       	add	r17, r17
					oled->draw_ASCI(buffer[i-((SSD1306_WIDTH/charsize)-buffersize)],i*charsize,0);
    169e:	8e 89       	ldd	r24, Y+22	; 0x16
    16a0:	fe 01       	movw	r30, r28
    16a2:	e0 0f       	add	r30, r16
    16a4:	f1 1d       	adc	r31, r1
    16a6:	e8 0f       	add	r30, r24
    16a8:	f1 1d       	adc	r31, r1
    16aa:	73 97       	sbiw	r30, 0x13	; 19
    16ac:	20 e0       	ldi	r18, 0x00	; 0
    16ae:	41 2f       	mov	r20, r17
    16b0:	60 81       	ld	r22, Z
    16b2:	8f 89       	ldd	r24, Y+23	; 0x17
    16b4:	98 8d       	ldd	r25, Y+24	; 0x18
    16b6:	c0 d8       	rcall	.-3712   	; 0x838 <_ZN7Display9draw_ASCIEhhh>
					oled->draw_ASCI(buffer[i-((SSD1306_WIDTH/charsize)-buffersize)],i*charsize,0);
				}
				break;
			case 2:	//standard Header fuer fast alle Pages
				buffersize=sprintf(buffer,"Bat.: %i%%",Batteriestatus());
				for(uint8_t i=((SSD1306_WIDTH/charsize)-buffersize);i<(SSD1306_WIDTH/charsize);i++){
    16b8:	0f 5f       	subi	r16, 0xFF	; 255
    16ba:	1a 5f       	subi	r17, 0xFA	; 250
    16bc:	05 31       	cpi	r16, 0x15	; 21
    16be:	79 f7       	brne	.-34     	; 0x169e <_ZN5tacho4drawEv+0x68>
    16c0:	ae c1       	rjmp	.+860    	; 0x1a1e <_ZN5tacho4drawEv+0x3e8>
	}
	
	//draw bottom and overload it
	void bottom(){
		for(uint8_t i=0;i<8;i++){
			oled->draw_ASCI(rtc->msg_dat[i],i*charsize+(SSD1306_WIDTH-bitsderrtc*charsize),7*charhighte);
    16c2:	e9 8d       	ldd	r30, Y+25	; 0x19
    16c4:	fa 8d       	ldd	r31, Y+26	; 0x1a
    16c6:	ec 0d       	add	r30, r12
    16c8:	fd 1d       	adc	r31, r13
    16ca:	28 e3       	ldi	r18, 0x38	; 56
    16cc:	41 2f       	mov	r20, r17
    16ce:	60 85       	ldd	r22, Z+8	; 0x08
    16d0:	8f 89       	ldd	r24, Y+23	; 0x17
    16d2:	98 8d       	ldd	r25, Y+24	; 0x18
    16d4:	b1 d8       	rcall	.-3742   	; 0x838 <_ZN7Display9draw_ASCIEhhh>
    16d6:	3f ef       	ldi	r19, 0xFF	; 255
    16d8:	c3 1a       	sub	r12, r19
    16da:	d3 0a       	sbc	r13, r19
    16dc:	1a 5f       	subi	r17, 0xFA	; 250
		}
	}
	
	//draw bottom and overload it
	void bottom(){
		for(uint8_t i=0;i<8;i++){
    16de:	10 38       	cpi	r17, 0x80	; 128
    16e0:	81 f7       	brne	.-32     	; 0x16c2 <_ZN5tacho4drawEv+0x8c>
		monitor::draw();
		header(2);
		bottom();

		//Rahmen zeichnen
		oled->drawHLine(0,SSD1306_HEIGHT-9,SSD1306_WIDTH);
    16e2:	20 e8       	ldi	r18, 0x80	; 128
    16e4:	47 e3       	ldi	r20, 0x37	; 55
    16e6:	60 e0       	ldi	r22, 0x00	; 0
    16e8:	8f 89       	ldd	r24, Y+23	; 0x17
    16ea:	98 8d       	ldd	r25, Y+24	; 0x18
    16ec:	8b d8       	rcall	.-3818   	; 0x804 <_ZN7Display9drawHLineEhhh>
		oled->drawHLine(0,numbersmalhight-1,SSD1306_WIDTH/2+5);
    16ee:	25 e4       	ldi	r18, 0x45	; 69
    16f0:	4f e0       	ldi	r20, 0x0F	; 15
    16f2:	60 e0       	ldi	r22, 0x00	; 0
    16f4:	8f 89       	ldd	r24, Y+23	; 0x17
    16f6:	98 8d       	ldd	r25, Y+24	; 0x18
    16f8:	85 d8       	rcall	.-3830   	; 0x804 <_ZN7Display9drawHLineEhhh>
		oled->drawHLine(SSD1306_WIDTH/2+5,charhighte-1,SSD1306_WIDTH/2-5);
    16fa:	2b e3       	ldi	r18, 0x3B	; 59
    16fc:	47 e0       	ldi	r20, 0x07	; 7
    16fe:	65 e4       	ldi	r22, 0x45	; 69
    1700:	8f 89       	ldd	r24, Y+23	; 0x17
    1702:	98 8d       	ldd	r25, Y+24	; 0x18
    1704:	7f d8       	rcall	.-3842   	; 0x804 <_ZN7Display9drawHLineEhhh>
		oled->drawVLine(SSD1306_WIDTH/2+5,0,numbersmalhight);
    1706:	20 e1       	ldi	r18, 0x10	; 16
    1708:	40 e0       	ldi	r20, 0x00	; 0
    170a:	65 e4       	ldi	r22, 0x45	; 69
    170c:	8f 89       	ldd	r24, Y+23	; 0x17
    170e:	98 8d       	ldd	r25, Y+24	; 0x18
    1710:	5f d8       	rcall	.-3906   	; 0x7d0 <_ZN7Display9drawVLineEhhh>
		oled->drawHLine(SSD1306_WIDTH-4*numbersmalsize-1,5*charhighte-1,4*numbersmalsize+1);
    1712:	21 e4       	ldi	r18, 0x41	; 65
    1714:	47 e2       	ldi	r20, 0x27	; 39
    1716:	6f e3       	ldi	r22, 0x3F	; 63
    1718:	8f 89       	ldd	r24, Y+23	; 0x17
    171a:	98 8d       	ldd	r25, Y+24	; 0x18
    171c:	73 d8       	rcall	.-3866   	; 0x804 <_ZN7Display9drawHLineEhhh>
		oled->drawVLine(SSD1306_WIDTH-4*numbersmalsize-1,numbersmalhight,SSD1306_HEIGHT-numbersmalhight);
    171e:	20 e3       	ldi	r18, 0x30	; 48
    1720:	40 e1       	ldi	r20, 0x10	; 16
    1722:	6f e3       	ldi	r22, 0x3F	; 63
    1724:	8f 89       	ldd	r24, Y+23	; 0x17
    1726:	98 8d       	ldd	r25, Y+24	; 0x18
    1728:	53 d8       	rcall	.-3930   	; 0x7d0 <_ZN7Display9drawVLineEhhh>
		oled->drawHLine(SSD1306_WIDTH-4*numbersmalsize-1,3*charhighte,4*numbersmalsize+1);
    172a:	21 e4       	ldi	r18, 0x41	; 65
    172c:	48 e1       	ldi	r20, 0x18	; 24
    172e:	6f e3       	ldi	r22, 0x3F	; 63
    1730:	8f 89       	ldd	r24, Y+23	; 0x17
    1732:	98 8d       	ldd	r25, Y+24	; 0x18
    1734:	67 d8       	rcall	.-3890   	; 0x804 <_ZN7Display9drawHLineEhhh>

		//lesbare Uhr
		oled->draw_number16x16(rtc->msg_uhr[0]-'0',0*numbersmalsize,0*charhighte);
    1736:	e9 8d       	ldd	r30, Y+25	; 0x19
    1738:	fa 8d       	ldd	r31, Y+26	; 0x1a
    173a:	60 81       	ld	r22, Z
    173c:	60 53       	subi	r22, 0x30	; 48
    173e:	20 e0       	ldi	r18, 0x00	; 0
    1740:	40 e0       	ldi	r20, 0x00	; 0
    1742:	8f 89       	ldd	r24, Y+23	; 0x17
    1744:	98 8d       	ldd	r25, Y+24	; 0x18
    1746:	c2 d8       	rcall	.-3708   	; 0x8cc <_ZN7Display16draw_number16x16Ehhh>
		oled->draw_number16x16(rtc->msg_uhr[1]-'0',1*numbersmalsize,0*charhighte);
    1748:	e9 8d       	ldd	r30, Y+25	; 0x19
    174a:	fa 8d       	ldd	r31, Y+26	; 0x1a
    174c:	61 81       	ldd	r22, Z+1	; 0x01
    174e:	60 53       	subi	r22, 0x30	; 48
    1750:	20 e0       	ldi	r18, 0x00	; 0
    1752:	40 e1       	ldi	r20, 0x10	; 16
    1754:	8f 89       	ldd	r24, Y+23	; 0x17
    1756:	98 8d       	ldd	r25, Y+24	; 0x18
    1758:	b9 d8       	rcall	.-3726   	; 0x8cc <_ZN7Display16draw_number16x16Ehhh>
		oled->draw_number16x16(rtc->msg_uhr[3]-'0',2.33*numbersmalsize,0*charhighte);
    175a:	e9 8d       	ldd	r30, Y+25	; 0x19
    175c:	fa 8d       	ldd	r31, Y+26	; 0x1a
    175e:	63 81       	ldd	r22, Z+3	; 0x03
    1760:	60 53       	subi	r22, 0x30	; 48
    1762:	20 e0       	ldi	r18, 0x00	; 0
    1764:	45 e2       	ldi	r20, 0x25	; 37
    1766:	8f 89       	ldd	r24, Y+23	; 0x17
    1768:	98 8d       	ldd	r25, Y+24	; 0x18
    176a:	b0 d8       	rcall	.-3744   	; 0x8cc <_ZN7Display16draw_number16x16Ehhh>
		oled->draw_number16x16(rtc->msg_uhr[4]-'0',3.33*numbersmalsize,0*charhighte);
    176c:	e9 8d       	ldd	r30, Y+25	; 0x19
    176e:	fa 8d       	ldd	r31, Y+26	; 0x1a
    1770:	64 81       	ldd	r22, Z+4	; 0x04
    1772:	60 53       	subi	r22, 0x30	; 48
    1774:	20 e0       	ldi	r18, 0x00	; 0
    1776:	45 e3       	ldi	r20, 0x35	; 53
    1778:	8f 89       	ldd	r24, Y+23	; 0x17
    177a:	98 8d       	ldd	r25, Y+24	; 0x18
    177c:	a7 d8       	rcall	.-3762   	; 0x8cc <_ZN7Display16draw_number16x16Ehhh>

		//Ausgabe der Geschwidigkeit
		buffersize=sprintf(buffer,"%3.1f",geschw);
    177e:	80 91 d7 02 	lds	r24, 0x02D7
    1782:	8f 93       	push	r24
    1784:	80 91 d6 02 	lds	r24, 0x02D6
    1788:	8f 93       	push	r24
    178a:	80 91 d5 02 	lds	r24, 0x02D5
    178e:	8f 93       	push	r24
    1790:	80 91 d4 02 	lds	r24, 0x02D4
    1794:	8f 93       	push	r24
    1796:	8f e6       	ldi	r24, 0x6F	; 111
    1798:	91 e0       	ldi	r25, 0x01	; 1
    179a:	9f 93       	push	r25
    179c:	8f 93       	push	r24
    179e:	bf 92       	push	r11
    17a0:	af 92       	push	r10
    17a2:	0e 94 21 28 	call	0x5042	; 0x5042 <sprintf>
    17a6:	8e 8b       	std	Y+22, r24	; 0x16
		for(uint8_t i=((SSD1306_WIDTH/numbersmalsize)-buffersize);i<((SSD1306_WIDTH/numbersmalsize));i++){
    17a8:	98 e0       	ldi	r25, 0x08	; 8
    17aa:	09 2f       	mov	r16, r25
    17ac:	08 1b       	sub	r16, r24
    17ae:	8d b7       	in	r24, 0x3d	; 61
    17b0:	9e b7       	in	r25, 0x3e	; 62
    17b2:	08 96       	adiw	r24, 0x08	; 8
    17b4:	0f b6       	in	r0, 0x3f	; 63
    17b6:	f8 94       	cli
    17b8:	9e bf       	out	0x3e, r25	; 62
    17ba:	0f be       	out	0x3f, r0	; 63
    17bc:	8d bf       	out	0x3d, r24	; 61
    17be:	08 30       	cpi	r16, 0x08	; 8
    17c0:	e8 f4       	brcc	.+58     	; 0x17fc <_ZN5tacho4drawEv+0x1c6>
    17c2:	10 2f       	mov	r17, r16
    17c4:	12 95       	swap	r17
    17c6:	10 7f       	andi	r17, 0xF0	; 240
			if(buffer[i-((SSD1306_WIDTH/numbersmalsize)-buffersize)]=='.'){
    17c8:	8e 89       	ldd	r24, Y+22	; 0x16
    17ca:	fe 01       	movw	r30, r28
    17cc:	e0 0f       	add	r30, r16
    17ce:	f1 1d       	adc	r31, r1
    17d0:	e8 0f       	add	r30, r24
    17d2:	f1 1d       	adc	r31, r1
    17d4:	36 97       	sbiw	r30, 0x06	; 6
    17d6:	60 81       	ld	r22, Z
    17d8:	6e 32       	cpi	r22, 0x2E	; 46
    17da:	31 f4       	brne	.+12     	; 0x17e8 <_ZN5tacho4drawEv+0x1b2>
				oled->draw_ASCI(buffer[i-((SSD1306_WIDTH/numbersmalsize)-buffersize)],i*numbersmalsize,4*charhighte);
    17dc:	20 e2       	ldi	r18, 0x20	; 32
    17de:	41 2f       	mov	r20, r17
    17e0:	8f 89       	ldd	r24, Y+23	; 0x17
    17e2:	98 8d       	ldd	r25, Y+24	; 0x18
    17e4:	29 d8       	rcall	.-4014   	; 0x838 <_ZN7Display9draw_ASCIEhhh>
    17e6:	06 c0       	rjmp	.+12     	; 0x17f4 <_ZN5tacho4drawEv+0x1be>
			}
			else{
				oled->draw_number16x16(buffer[i-((SSD1306_WIDTH/numbersmalsize)-buffersize)]-'0',i*numbersmalsize,3*charhighte);
    17e8:	60 53       	subi	r22, 0x30	; 48
    17ea:	28 e1       	ldi	r18, 0x18	; 24
    17ec:	41 2f       	mov	r20, r17
    17ee:	8f 89       	ldd	r24, Y+23	; 0x17
    17f0:	98 8d       	ldd	r25, Y+24	; 0x18
    17f2:	6c d8       	rcall	.-3880   	; 0x8cc <_ZN7Display16draw_number16x16Ehhh>
		oled->draw_number16x16(rtc->msg_uhr[3]-'0',2.33*numbersmalsize,0*charhighte);
		oled->draw_number16x16(rtc->msg_uhr[4]-'0',3.33*numbersmalsize,0*charhighte);

		//Ausgabe der Geschwidigkeit
		buffersize=sprintf(buffer,"%3.1f",geschw);
		for(uint8_t i=((SSD1306_WIDTH/numbersmalsize)-buffersize);i<((SSD1306_WIDTH/numbersmalsize));i++){
    17f4:	0f 5f       	subi	r16, 0xFF	; 255
    17f6:	10 5f       	subi	r17, 0xF0	; 240
    17f8:	08 30       	cpi	r16, 0x08	; 8
    17fa:	31 f7       	brne	.-52     	; 0x17c8 <_ZN5tacho4drawEv+0x192>
		//Nadel erst, wenn Kompass implementiert
		//Anzeige der Richtung als Alternative
		//anzeige_kleinenadel(31,31+8,angle);

		//anzeige der gesammtstrecke
		buffersize=sprintf(buffer,"%.3fkm",strecke/1000);
    17fc:	20 e0       	ldi	r18, 0x00	; 0
    17fe:	30 e0       	ldi	r19, 0x00	; 0
    1800:	4a e7       	ldi	r20, 0x7A	; 122
    1802:	54 e4       	ldi	r21, 0x44	; 68
    1804:	60 91 d0 02 	lds	r22, 0x02D0
    1808:	70 91 d1 02 	lds	r23, 0x02D1
    180c:	80 91 d2 02 	lds	r24, 0x02D2
    1810:	90 91 d3 02 	lds	r25, 0x02D3
    1814:	0e 94 e6 1f 	call	0x3fcc	; 0x3fcc <__divsf3>
    1818:	9f 93       	push	r25
    181a:	8f 93       	push	r24
    181c:	7f 93       	push	r23
    181e:	6f 93       	push	r22
    1820:	85 e7       	ldi	r24, 0x75	; 117
    1822:	91 e0       	ldi	r25, 0x01	; 1
    1824:	9f 93       	push	r25
    1826:	8f 93       	push	r24
    1828:	bf 92       	push	r11
    182a:	af 92       	push	r10
    182c:	0e 94 21 28 	call	0x5042	; 0x5042 <sprintf>
    1830:	8e 8b       	std	Y+22, r24	; 0x16
		for(uint8_t i=0;i<buffersize;i++){oled->draw_ASCI(buffer[i],i*charsize+70,2*charhighte);}
    1832:	2d b7       	in	r18, 0x3d	; 61
    1834:	3e b7       	in	r19, 0x3e	; 62
    1836:	28 5f       	subi	r18, 0xF8	; 248
    1838:	3f 4f       	sbci	r19, 0xFF	; 255
    183a:	0f b6       	in	r0, 0x3f	; 63
    183c:	f8 94       	cli
    183e:	3e bf       	out	0x3e, r19	; 62
    1840:	0f be       	out	0x3f, r0	; 63
    1842:	2d bf       	out	0x3d, r18	; 61
    1844:	88 23       	and	r24, r24
    1846:	89 f0       	breq	.+34     	; 0x186a <_ZN5tacho4drawEv+0x234>
    1848:	16 e4       	ldi	r17, 0x46	; 70
    184a:	f1 2c       	mov	r15, r1
    184c:	fe 01       	movw	r30, r28
    184e:	ef 0d       	add	r30, r15
    1850:	f1 1d       	adc	r31, r1
    1852:	20 e1       	ldi	r18, 0x10	; 16
    1854:	41 2f       	mov	r20, r17
    1856:	62 81       	ldd	r22, Z+2	; 0x02
    1858:	8f 89       	ldd	r24, Y+23	; 0x17
    185a:	98 8d       	ldd	r25, Y+24	; 0x18
    185c:	0e 94 1c 04 	call	0x838	; 0x838 <_ZN7Display9draw_ASCIEhhh>
    1860:	f3 94       	inc	r15
    1862:	1a 5f       	subi	r17, 0xFA	; 250
    1864:	8e 89       	ldd	r24, Y+22	; 0x16
    1866:	f8 16       	cp	r15, r24
    1868:	88 f3       	brcs	.-30     	; 0x184c <_ZN5tacho4drawEv+0x216>

		//anzeige der max geschwindigkeit
		buffersize=sprintf(buffer,"%.1fkm/h",maxgeschw);
    186a:	80 91 cf 02 	lds	r24, 0x02CF
    186e:	8f 93       	push	r24
    1870:	80 91 ce 02 	lds	r24, 0x02CE
    1874:	8f 93       	push	r24
    1876:	80 91 cd 02 	lds	r24, 0x02CD
    187a:	8f 93       	push	r24
    187c:	80 91 cc 02 	lds	r24, 0x02CC
    1880:	8f 93       	push	r24
    1882:	8c e7       	ldi	r24, 0x7C	; 124
    1884:	91 e0       	ldi	r25, 0x01	; 1
    1886:	9f 93       	push	r25
    1888:	8f 93       	push	r24
    188a:	bf 92       	push	r11
    188c:	af 92       	push	r10
    188e:	0e 94 21 28 	call	0x5042	; 0x5042 <sprintf>
    1892:	8e 8b       	std	Y+22, r24	; 0x16
		for(uint8_t i=0;i<buffersize;i++){oled->draw_ASCI(buffer[i],i*charsize+70,5*charhighte);}
    1894:	2d b7       	in	r18, 0x3d	; 61
    1896:	3e b7       	in	r19, 0x3e	; 62
    1898:	28 5f       	subi	r18, 0xF8	; 248
    189a:	3f 4f       	sbci	r19, 0xFF	; 255
    189c:	0f b6       	in	r0, 0x3f	; 63
    189e:	f8 94       	cli
    18a0:	3e bf       	out	0x3e, r19	; 62
    18a2:	0f be       	out	0x3f, r0	; 63
    18a4:	2d bf       	out	0x3d, r18	; 61
    18a6:	88 23       	and	r24, r24
    18a8:	89 f0       	breq	.+34     	; 0x18cc <_ZN5tacho4drawEv+0x296>
    18aa:	16 e4       	ldi	r17, 0x46	; 70
    18ac:	f1 2c       	mov	r15, r1
    18ae:	fe 01       	movw	r30, r28
    18b0:	ef 0d       	add	r30, r15
    18b2:	f1 1d       	adc	r31, r1
    18b4:	28 e2       	ldi	r18, 0x28	; 40
    18b6:	41 2f       	mov	r20, r17
    18b8:	62 81       	ldd	r22, Z+2	; 0x02
    18ba:	8f 89       	ldd	r24, Y+23	; 0x17
    18bc:	98 8d       	ldd	r25, Y+24	; 0x18
    18be:	0e 94 1c 04 	call	0x838	; 0x838 <_ZN7Display9draw_ASCIEhhh>
    18c2:	f3 94       	inc	r15
    18c4:	1a 5f       	subi	r17, 0xFA	; 250
    18c6:	8e 89       	ldd	r24, Y+22	; 0x16
    18c8:	f8 16       	cp	r15, r24
    18ca:	88 f3       	brcs	.-30     	; 0x18ae <_ZN5tacho4drawEv+0x278>

		//anzeige der Fahrtzeit
		buffersize=sprintf(buffer,"%02i:%02i:%02i",uint8_t(Fahrtzeit/3600),uint8_t(Fahrtzeit/60),uint8_t(Fahrtzeit%60));
    18cc:	c0 90 c8 02 	lds	r12, 0x02C8
    18d0:	d0 90 c9 02 	lds	r13, 0x02C9
    18d4:	e0 90 ca 02 	lds	r14, 0x02CA
    18d8:	f0 90 cb 02 	lds	r15, 0x02CB
    18dc:	c7 01       	movw	r24, r14
    18de:	b6 01       	movw	r22, r12
    18e0:	2c e3       	ldi	r18, 0x3C	; 60
    18e2:	30 e0       	ldi	r19, 0x00	; 0
    18e4:	40 e0       	ldi	r20, 0x00	; 0
    18e6:	50 e0       	ldi	r21, 0x00	; 0
    18e8:	0e 94 a3 25 	call	0x4b46	; 0x4b46 <__udivmodsi4>
    18ec:	1f 92       	push	r1
    18ee:	6f 93       	push	r22
    18f0:	1f 92       	push	r1
    18f2:	2f 93       	push	r18
    18f4:	c7 01       	movw	r24, r14
    18f6:	b6 01       	movw	r22, r12
    18f8:	20 e1       	ldi	r18, 0x10	; 16
    18fa:	3e e0       	ldi	r19, 0x0E	; 14
    18fc:	40 e0       	ldi	r20, 0x00	; 0
    18fe:	50 e0       	ldi	r21, 0x00	; 0
    1900:	0e 94 a3 25 	call	0x4b46	; 0x4b46 <__udivmodsi4>
    1904:	1f 92       	push	r1
    1906:	2f 93       	push	r18
    1908:	85 e8       	ldi	r24, 0x85	; 133
    190a:	91 e0       	ldi	r25, 0x01	; 1
    190c:	9f 93       	push	r25
    190e:	8f 93       	push	r24
    1910:	bf 92       	push	r11
    1912:	af 92       	push	r10
    1914:	0e 94 21 28 	call	0x5042	; 0x5042 <sprintf>
    1918:	8e 8b       	std	Y+22, r24	; 0x16
		for(uint8_t i=0;i<buffersize;i++){oled->draw_ASCI(buffer[i],i*charsize+70,6*charhighte);}
    191a:	2d b7       	in	r18, 0x3d	; 61
    191c:	3e b7       	in	r19, 0x3e	; 62
    191e:	26 5f       	subi	r18, 0xF6	; 246
    1920:	3f 4f       	sbci	r19, 0xFF	; 255
    1922:	0f b6       	in	r0, 0x3f	; 63
    1924:	f8 94       	cli
    1926:	3e bf       	out	0x3e, r19	; 62
    1928:	0f be       	out	0x3f, r0	; 63
    192a:	2d bf       	out	0x3d, r18	; 61
    192c:	88 23       	and	r24, r24
    192e:	89 f0       	breq	.+34     	; 0x1952 <_ZN5tacho4drawEv+0x31c>
    1930:	16 e4       	ldi	r17, 0x46	; 70
    1932:	f1 2c       	mov	r15, r1
    1934:	fe 01       	movw	r30, r28
    1936:	ef 0d       	add	r30, r15
    1938:	f1 1d       	adc	r31, r1
    193a:	20 e3       	ldi	r18, 0x30	; 48
    193c:	41 2f       	mov	r20, r17
    193e:	62 81       	ldd	r22, Z+2	; 0x02
    1940:	8f 89       	ldd	r24, Y+23	; 0x17
    1942:	98 8d       	ldd	r25, Y+24	; 0x18
    1944:	0e 94 1c 04 	call	0x838	; 0x838 <_ZN7Display9draw_ASCIEhhh>
    1948:	f3 94       	inc	r15
    194a:	1a 5f       	subi	r17, 0xFA	; 250
    194c:	8e 89       	ldd	r24, Y+22	; 0x16
    194e:	f8 16       	cp	r15, r24
    1950:	88 f3       	brcs	.-30     	; 0x1934 <_ZN5tacho4drawEv+0x2fe>
		
		//anzeige der durschschnittsgeschw
		if (Fahrtzeit==0)
    1952:	60 91 c8 02 	lds	r22, 0x02C8
    1956:	70 91 c9 02 	lds	r23, 0x02C9
    195a:	80 91 ca 02 	lds	r24, 0x02CA
    195e:	90 91 cb 02 	lds	r25, 0x02CB
    1962:	61 15       	cp	r22, r1
    1964:	71 05       	cpc	r23, r1
    1966:	81 05       	cpc	r24, r1
    1968:	91 05       	cpc	r25, r1
    196a:	b1 f4       	brne	.+44     	; 0x1998 <_ZN5tacho4drawEv+0x362>
		{
			buffersize=sprintf(buffer,"%.1fkm/h",0.0);
    196c:	1f 92       	push	r1
    196e:	1f 92       	push	r1
    1970:	1f 92       	push	r1
    1972:	1f 92       	push	r1
    1974:	8c e7       	ldi	r24, 0x7C	; 124
    1976:	91 e0       	ldi	r25, 0x01	; 1
    1978:	9f 93       	push	r25
    197a:	8f 93       	push	r24
    197c:	bf 92       	push	r11
    197e:	af 92       	push	r10
    1980:	0e 94 21 28 	call	0x5042	; 0x5042 <sprintf>
    1984:	8e 8b       	std	Y+22, r24	; 0x16
    1986:	8d b7       	in	r24, 0x3d	; 61
    1988:	9e b7       	in	r25, 0x3e	; 62
    198a:	08 96       	adiw	r24, 0x08	; 8
    198c:	0f b6       	in	r0, 0x3f	; 63
    198e:	f8 94       	cli
    1990:	9e bf       	out	0x3e, r25	; 62
    1992:	0f be       	out	0x3f, r0	; 63
    1994:	8d bf       	out	0x3d, r24	; 61
    1996:	2a c0       	rjmp	.+84     	; 0x19ec <_ZN5tacho4drawEv+0x3b6>
		}
		else {
			buffersize=sprintf(buffer,"%.1fkm/h",(strecke/Fahrtzeit)*3.6);
    1998:	0e 94 7f 20 	call	0x40fe	; 0x40fe <__floatunsisf>
    199c:	9b 01       	movw	r18, r22
    199e:	ac 01       	movw	r20, r24
    19a0:	60 91 d0 02 	lds	r22, 0x02D0
    19a4:	70 91 d1 02 	lds	r23, 0x02D1
    19a8:	80 91 d2 02 	lds	r24, 0x02D2
    19ac:	90 91 d3 02 	lds	r25, 0x02D3
    19b0:	0e 94 e6 1f 	call	0x3fcc	; 0x3fcc <__divsf3>
    19b4:	26 e6       	ldi	r18, 0x66	; 102
    19b6:	36 e6       	ldi	r19, 0x66	; 102
    19b8:	46 e6       	ldi	r20, 0x66	; 102
    19ba:	50 e4       	ldi	r21, 0x40	; 64
    19bc:	0e 94 93 21 	call	0x4326	; 0x4326 <__mulsf3>
    19c0:	9f 93       	push	r25
    19c2:	8f 93       	push	r24
    19c4:	7f 93       	push	r23
    19c6:	6f 93       	push	r22
    19c8:	8c e7       	ldi	r24, 0x7C	; 124
    19ca:	91 e0       	ldi	r25, 0x01	; 1
    19cc:	9f 93       	push	r25
    19ce:	8f 93       	push	r24
    19d0:	bf 92       	push	r11
    19d2:	af 92       	push	r10
    19d4:	0e 94 21 28 	call	0x5042	; 0x5042 <sprintf>
    19d8:	8e 8b       	std	Y+22, r24	; 0x16
    19da:	2d b7       	in	r18, 0x3d	; 61
    19dc:	3e b7       	in	r19, 0x3e	; 62
    19de:	28 5f       	subi	r18, 0xF8	; 248
    19e0:	3f 4f       	sbci	r19, 0xFF	; 255
    19e2:	0f b6       	in	r0, 0x3f	; 63
    19e4:	f8 94       	cli
    19e6:	3e bf       	out	0x3e, r19	; 62
    19e8:	0f be       	out	0x3f, r0	; 63
    19ea:	2d bf       	out	0x3d, r18	; 61
		}
		for(uint8_t i=0;i<buffersize;i++){oled->draw_ASCI(buffer[i],i*charsize+75,1*charhighte);}
    19ec:	8e 89       	ldd	r24, Y+22	; 0x16
    19ee:	88 23       	and	r24, r24
    19f0:	89 f0       	breq	.+34     	; 0x1a14 <_ZN5tacho4drawEv+0x3de>
    19f2:	0b e4       	ldi	r16, 0x4B	; 75
    19f4:	10 e0       	ldi	r17, 0x00	; 0
    19f6:	fe 01       	movw	r30, r28
    19f8:	e1 0f       	add	r30, r17
    19fa:	f1 1d       	adc	r31, r1
    19fc:	28 e0       	ldi	r18, 0x08	; 8
    19fe:	40 2f       	mov	r20, r16
    1a00:	62 81       	ldd	r22, Z+2	; 0x02
    1a02:	8f 89       	ldd	r24, Y+23	; 0x17
    1a04:	98 8d       	ldd	r25, Y+24	; 0x18
    1a06:	0e 94 1c 04 	call	0x838	; 0x838 <_ZN7Display9draw_ASCIEhhh>
    1a0a:	1f 5f       	subi	r17, 0xFF	; 255
    1a0c:	0a 5f       	subi	r16, 0xFA	; 250
    1a0e:	8e 89       	ldd	r24, Y+22	; 0x16
    1a10:	18 17       	cp	r17, r24
    1a12:	88 f3       	brcs	.-30     	; 0x19f6 <_ZN5tacho4drawEv+0x3c0>
		oled->clearFrame();
	}

	//send the frame to the display
	void send(){
		oled->sendFrame();	
    1a14:	8f 89       	ldd	r24, Y+23	; 0x17
    1a16:	98 8d       	ldd	r25, Y+24	; 0x18
    1a18:	0e 94 7e 03 	call	0x6fc	; 0x6fc <_ZN7Display9sendFrameEv>
    1a1c:	04 c0       	rjmp	.+8      	; 0x1a26 <_ZN5tacho4drawEv+0x3f0>
		}
		return 0;
	}

	//Anzeige schalten
	void draw(){
    1a1e:	10 e5       	ldi	r17, 0x50	; 80
    1a20:	c1 2c       	mov	r12, r1
    1a22:	d1 2c       	mov	r13, r1
    1a24:	4e ce       	rjmp	.-868    	; 0x16c2 <_ZN5tacho4drawEv+0x8c>
			buffersize=sprintf(buffer,"%.1fkm/h",(strecke/Fahrtzeit)*3.6);
		}
		for(uint8_t i=0;i<buffersize;i++){oled->draw_ASCI(buffer[i],i*charsize+75,1*charhighte);}

		send();
	}
    1a26:	df 91       	pop	r29
    1a28:	cf 91       	pop	r28
    1a2a:	1f 91       	pop	r17
    1a2c:	0f 91       	pop	r16
    1a2e:	ff 90       	pop	r15
    1a30:	ef 90       	pop	r14
    1a32:	df 90       	pop	r13
    1a34:	cf 90       	pop	r12
    1a36:	bf 90       	pop	r11
    1a38:	af 90       	pop	r10
    1a3a:	08 95       	ret

00001a3c <_ZN3uhr4drawEv>:
		}
	return 0;
	}

	//anzeige vorbereiten
	void draw()
    1a3c:	ef 92       	push	r14
    1a3e:	ff 92       	push	r15
    1a40:	0f 93       	push	r16
    1a42:	1f 93       	push	r17
    1a44:	cf 93       	push	r28
    1a46:	df 93       	push	r29
    1a48:	ec 01       	movw	r28, r24
		return 0;
	}
	
	//drawfunktion
	virtual void draw(){
		oled->clearFrame();
    1a4a:	8f 89       	ldd	r24, Y+23	; 0x17
    1a4c:	98 8d       	ldd	r25, Y+24	; 0x18
    1a4e:	0e 94 04 03 	call	0x608	; 0x608 <_ZN7Display10clearFrameEv>
    1a52:	11 e4       	ldi	r17, 0x41	; 65
    1a54:	e1 2c       	mov	r14, r1
    1a56:	f1 2c       	mov	r15, r1
				for(uint8_t i=((SSD1306_WIDTH/charsize)-buffersize);i<(SSD1306_WIDTH/charsize);i++){
					oled->draw_ASCI(buffer[i-((SSD1306_WIDTH/charsize)-buffersize)],i*charsize,0);
				}
				break;
			case 1:	//standard Header fuer fast alle Pages
				for(uint8_t i=0;i<(bitsderrtc-3);i++){oled->draw_ASCI(rtc->msg_uhr[i],65+i*charsize,0*charhighte);}
    1a58:	e9 8d       	ldd	r30, Y+25	; 0x19
    1a5a:	fa 8d       	ldd	r31, Y+26	; 0x1a
    1a5c:	ee 0d       	add	r30, r14
    1a5e:	ff 1d       	adc	r31, r15
    1a60:	20 e0       	ldi	r18, 0x00	; 0
    1a62:	41 2f       	mov	r20, r17
    1a64:	60 81       	ld	r22, Z
    1a66:	8f 89       	ldd	r24, Y+23	; 0x17
    1a68:	98 8d       	ldd	r25, Y+24	; 0x18
    1a6a:	0e 94 1c 04 	call	0x838	; 0x838 <_ZN7Display9draw_ASCIEhhh>
    1a6e:	8f ef       	ldi	r24, 0xFF	; 255
    1a70:	e8 1a       	sub	r14, r24
    1a72:	f8 0a       	sbc	r15, r24
    1a74:	1a 5f       	subi	r17, 0xFA	; 250
    1a76:	1f 35       	cpi	r17, 0x5F	; 95
    1a78:	79 f7       	brne	.-34     	; 0x1a58 <_ZN3uhr4drawEv+0x1c>
				buffersize=sprintf(buffer,"%i%%",Batteriestatus());
    1a7a:	6c dc       	rcall	.-1832   	; 0x1354 <_Z14Batteriestatusv>
    1a7c:	28 2f       	mov	r18, r24
    1a7e:	08 2e       	mov	r0, r24
    1a80:	00 0c       	add	r0, r0
    1a82:	33 0b       	sbc	r19, r19
    1a84:	3f 93       	push	r19
    1a86:	8f 93       	push	r24
    1a88:	8a e6       	ldi	r24, 0x6A	; 106
    1a8a:	91 e0       	ldi	r25, 0x01	; 1
    1a8c:	9f 93       	push	r25
    1a8e:	8f 93       	push	r24
    1a90:	ce 01       	movw	r24, r28
    1a92:	02 96       	adiw	r24, 0x02	; 2
    1a94:	9f 93       	push	r25
    1a96:	8f 93       	push	r24
    1a98:	0e 94 21 28 	call	0x5042	; 0x5042 <sprintf>
    1a9c:	8e 8b       	std	Y+22, r24	; 0x16
				for(uint8_t i=((SSD1306_WIDTH/charsize)-buffersize);i<(SSD1306_WIDTH/charsize);i++){
    1a9e:	15 e1       	ldi	r17, 0x15	; 21
    1aa0:	18 1b       	sub	r17, r24
    1aa2:	0f 90       	pop	r0
    1aa4:	0f 90       	pop	r0
    1aa6:	0f 90       	pop	r0
    1aa8:	0f 90       	pop	r0
    1aaa:	0f 90       	pop	r0
    1aac:	0f 90       	pop	r0
    1aae:	15 31       	cpi	r17, 0x15	; 21
    1ab0:	08 f0       	brcs	.+2      	; 0x1ab4 <_ZN3uhr4drawEv+0x78>
    1ab2:	5f c0       	rjmp	.+190    	; 0x1b72 <_ZN3uhr4drawEv+0x136>
    1ab4:	01 2f       	mov	r16, r17
    1ab6:	00 0f       	add	r16, r16
    1ab8:	01 0f       	add	r16, r17
    1aba:	00 0f       	add	r16, r16
					oled->draw_ASCI(buffer[i-((SSD1306_WIDTH/charsize)-buffersize)],i*charsize,0);
    1abc:	8e 89       	ldd	r24, Y+22	; 0x16
    1abe:	fe 01       	movw	r30, r28
    1ac0:	e1 0f       	add	r30, r17
    1ac2:	f1 1d       	adc	r31, r1
    1ac4:	e8 0f       	add	r30, r24
    1ac6:	f1 1d       	adc	r31, r1
    1ac8:	73 97       	sbiw	r30, 0x13	; 19
    1aca:	20 e0       	ldi	r18, 0x00	; 0
    1acc:	40 2f       	mov	r20, r16
    1ace:	60 81       	ld	r22, Z
    1ad0:	8f 89       	ldd	r24, Y+23	; 0x17
    1ad2:	98 8d       	ldd	r25, Y+24	; 0x18
    1ad4:	0e 94 1c 04 	call	0x838	; 0x838 <_ZN7Display9draw_ASCIEhhh>
				}
				break;
			case 1:	//standard Header fuer fast alle Pages
				for(uint8_t i=0;i<(bitsderrtc-3);i++){oled->draw_ASCI(rtc->msg_uhr[i],65+i*charsize,0*charhighte);}
				buffersize=sprintf(buffer,"%i%%",Batteriestatus());
				for(uint8_t i=((SSD1306_WIDTH/charsize)-buffersize);i<(SSD1306_WIDTH/charsize);i++){
    1ad8:	1f 5f       	subi	r17, 0xFF	; 255
    1ada:	0a 5f       	subi	r16, 0xFA	; 250
    1adc:	15 31       	cpi	r17, 0x15	; 21
    1ade:	71 f7       	brne	.-36     	; 0x1abc <_ZN3uhr4drawEv+0x80>
    1ae0:	48 c0       	rjmp	.+144    	; 0x1b72 <_ZN3uhr4drawEv+0x136>
				for(uint8_t i=0;i<8;i++){
					oled->draw_ASCI(rtc->msg_dat[i],5+i*charsize,7*charhighte);
				}
				break;
			case 2:
				for(uint8_t i=0;i<bitsderrtc;i++){oled->draw_ASCI(rtc->msg_dat[i],65+i*charsize,7*charhighte);}
    1ae2:	e9 8d       	ldd	r30, Y+25	; 0x19
    1ae4:	fa 8d       	ldd	r31, Y+26	; 0x1a
    1ae6:	ee 0d       	add	r30, r14
    1ae8:	ff 1d       	adc	r31, r15
    1aea:	28 e3       	ldi	r18, 0x38	; 56
    1aec:	41 2f       	mov	r20, r17
    1aee:	60 85       	ldd	r22, Z+8	; 0x08
    1af0:	8f 89       	ldd	r24, Y+23	; 0x17
    1af2:	98 8d       	ldd	r25, Y+24	; 0x18
    1af4:	0e 94 1c 04 	call	0x838	; 0x838 <_ZN7Display9draw_ASCIEhhh>
    1af8:	8f ef       	ldi	r24, 0xFF	; 255
    1afa:	e8 1a       	sub	r14, r24
    1afc:	f8 0a       	sbc	r15, r24
    1afe:	1a 5f       	subi	r17, 0xFA	; 250
    1b00:	11 37       	cpi	r17, 0x71	; 113
    1b02:	79 f7       	brne	.-34     	; 0x1ae2 <_ZN3uhr4drawEv+0xa6>
	{
		monitor::draw();
		header(1);
		bottom(2);

		oled->analog(rtc->Stunden,rtc->Minuten,rtc->Sekunden,Zeiger);
    1b04:	e9 8d       	ldd	r30, Y+25	; 0x19
    1b06:	fa 8d       	ldd	r31, Y+26	; 0x1a
    1b08:	09 a5       	ldd	r16, Y+41	; 0x29
    1b0a:	22 89       	ldd	r18, Z+18	; 0x12
    1b0c:	41 89       	ldd	r20, Z+17	; 0x11
    1b0e:	60 89       	ldd	r22, Z+16	; 0x10
    1b10:	8f 89       	ldd	r24, Y+23	; 0x17
    1b12:	98 8d       	ldd	r25, Y+24	; 0x18
    1b14:	0e 94 e0 04 	call	0x9c0	; 0x9c0 <_ZN7Display6analogEhhhh>
		//draw large number
		oled->draw_number16x16(rtc->msg_uhr[0]-'0',70,1.66*charhighte);
    1b18:	e9 8d       	ldd	r30, Y+25	; 0x19
    1b1a:	fa 8d       	ldd	r31, Y+26	; 0x1a
    1b1c:	60 81       	ld	r22, Z
    1b1e:	60 53       	subi	r22, 0x30	; 48
    1b20:	2d e0       	ldi	r18, 0x0D	; 13
    1b22:	46 e4       	ldi	r20, 0x46	; 70
    1b24:	8f 89       	ldd	r24, Y+23	; 0x17
    1b26:	98 8d       	ldd	r25, Y+24	; 0x18
    1b28:	0e 94 66 04 	call	0x8cc	; 0x8cc <_ZN7Display16draw_number16x16Ehhh>
		oled->draw_number16x16(rtc->msg_uhr[1]-'0',70+numbersmalsize,1.66*charhighte);
    1b2c:	e9 8d       	ldd	r30, Y+25	; 0x19
    1b2e:	fa 8d       	ldd	r31, Y+26	; 0x1a
    1b30:	61 81       	ldd	r22, Z+1	; 0x01
    1b32:	60 53       	subi	r22, 0x30	; 48
    1b34:	2d e0       	ldi	r18, 0x0D	; 13
    1b36:	46 e5       	ldi	r20, 0x56	; 86
    1b38:	8f 89       	ldd	r24, Y+23	; 0x17
    1b3a:	98 8d       	ldd	r25, Y+24	; 0x18
    1b3c:	0e 94 66 04 	call	0x8cc	; 0x8cc <_ZN7Display16draw_number16x16Ehhh>
		oled->draw_number16x16(rtc->msg_uhr[3]-'0',70,2.33*charhighte+numbersmalhight);
    1b40:	e9 8d       	ldd	r30, Y+25	; 0x19
    1b42:	fa 8d       	ldd	r31, Y+26	; 0x1a
    1b44:	63 81       	ldd	r22, Z+3	; 0x03
    1b46:	60 53       	subi	r22, 0x30	; 48
    1b48:	22 e2       	ldi	r18, 0x22	; 34
    1b4a:	46 e4       	ldi	r20, 0x46	; 70
    1b4c:	8f 89       	ldd	r24, Y+23	; 0x17
    1b4e:	98 8d       	ldd	r25, Y+24	; 0x18
    1b50:	0e 94 66 04 	call	0x8cc	; 0x8cc <_ZN7Display16draw_number16x16Ehhh>
		oled->draw_number16x16(rtc->msg_uhr[4]-'0',70+numbersmalsize,2.33*charhighte+numbersmalhight);
    1b54:	e9 8d       	ldd	r30, Y+25	; 0x19
    1b56:	fa 8d       	ldd	r31, Y+26	; 0x1a
    1b58:	64 81       	ldd	r22, Z+4	; 0x04
    1b5a:	60 53       	subi	r22, 0x30	; 48
    1b5c:	22 e2       	ldi	r18, 0x22	; 34
    1b5e:	46 e5       	ldi	r20, 0x56	; 86
    1b60:	8f 89       	ldd	r24, Y+23	; 0x17
    1b62:	98 8d       	ldd	r25, Y+24	; 0x18
    1b64:	0e 94 66 04 	call	0x8cc	; 0x8cc <_ZN7Display16draw_number16x16Ehhh>
		oled->clearFrame();
	}

	//send the frame to the display
	void send(){
		oled->sendFrame();	
    1b68:	8f 89       	ldd	r24, Y+23	; 0x17
    1b6a:	98 8d       	ldd	r25, Y+24	; 0x18
    1b6c:	0e 94 7e 03 	call	0x6fc	; 0x6fc <_ZN7Display9sendFrameEv>
    1b70:	04 c0       	rjmp	.+8      	; 0x1b7a <_ZN3uhr4drawEv+0x13e>
		return 0;
	}
	
	//drawfunktion
	virtual void draw(){
		oled->clearFrame();
    1b72:	11 e4       	ldi	r17, 0x41	; 65
    1b74:	e1 2c       	mov	r14, r1
    1b76:	f1 2c       	mov	r15, r1
    1b78:	b4 cf       	rjmp	.-152    	; 0x1ae2 <_ZN3uhr4drawEv+0xa6>
		oled->draw_number16x16(rtc->msg_uhr[1]-'0',70+numbersmalsize,1.66*charhighte);
		oled->draw_number16x16(rtc->msg_uhr[3]-'0',70,2.33*charhighte+numbersmalhight);
		oled->draw_number16x16(rtc->msg_uhr[4]-'0',70+numbersmalsize,2.33*charhighte+numbersmalhight);

		send();
	}
    1b7a:	df 91       	pop	r29
    1b7c:	cf 91       	pop	r28
    1b7e:	1f 91       	pop	r17
    1b80:	0f 91       	pop	r16
    1b82:	ff 90       	pop	r15
    1b84:	ef 90       	pop	r14
    1b86:	08 95       	ret

00001b88 <_ZN7wandern4drawEv>:
			EEPROM_Write(EEJAHR,rtc->Jahr);
		}
		return 0;
	}
	
	void draw(){
    1b88:	cf 92       	push	r12
    1b8a:	df 92       	push	r13
    1b8c:	ef 92       	push	r14
    1b8e:	ff 92       	push	r15
    1b90:	0f 93       	push	r16
    1b92:	1f 93       	push	r17
    1b94:	cf 93       	push	r28
    1b96:	df 93       	push	r29
    1b98:	ec 01       	movw	r28, r24
		return 0;
	}
	
	//drawfunktion
	virtual void draw(){
		oled->clearFrame();
    1b9a:	8f 89       	ldd	r24, Y+23	; 0x17
    1b9c:	98 8d       	ldd	r25, Y+24	; 0x18
    1b9e:	0e 94 04 03 	call	0x608	; 0x608 <_ZN7Display10clearFrameEv>
    1ba2:	10 e0       	ldi	r17, 0x00	; 0
    1ba4:	e1 2c       	mov	r14, r1
    1ba6:	f1 2c       	mov	r15, r1
	}
	
	//draw header and overload it
	void header(){
		for(uint8_t i=0;i<8;i++){
			oled->draw_ASCI(rtc->msg_uhr[i],i*charsize,0);
    1ba8:	e9 8d       	ldd	r30, Y+25	; 0x19
    1baa:	fa 8d       	ldd	r31, Y+26	; 0x1a
    1bac:	ee 0d       	add	r30, r14
    1bae:	ff 1d       	adc	r31, r15
    1bb0:	20 e0       	ldi	r18, 0x00	; 0
    1bb2:	41 2f       	mov	r20, r17
    1bb4:	60 81       	ld	r22, Z
    1bb6:	8f 89       	ldd	r24, Y+23	; 0x17
    1bb8:	98 8d       	ldd	r25, Y+24	; 0x18
    1bba:	0e 94 1c 04 	call	0x838	; 0x838 <_ZN7Display9draw_ASCIEhhh>
    1bbe:	2f ef       	ldi	r18, 0xFF	; 255
    1bc0:	e2 1a       	sub	r14, r18
    1bc2:	f2 0a       	sbc	r15, r18
    1bc4:	1a 5f       	subi	r17, 0xFA	; 250
		return &name[0];
	}
	
	//draw header and overload it
	void header(){
		for(uint8_t i=0;i<8;i++){
    1bc6:	10 33       	cpi	r17, 0x30	; 48
    1bc8:	79 f7       	brne	.-34     	; 0x1ba8 <_ZN7wandern4drawEv+0x20>
			oled->draw_ASCI(rtc->msg_uhr[i],i*charsize,0);
		}
		buffersize=sprintf(buffer,"Bat: %i%%",Batteriestatus());
    1bca:	c4 db       	rcall	.-2168   	; 0x1354 <_Z14Batteriestatusv>
    1bcc:	7e 01       	movw	r14, r28
    1bce:	32 e0       	ldi	r19, 0x02	; 2
    1bd0:	e3 0e       	add	r14, r19
    1bd2:	f1 1c       	adc	r15, r1
    1bd4:	28 2f       	mov	r18, r24
    1bd6:	08 2e       	mov	r0, r24
    1bd8:	00 0c       	add	r0, r0
    1bda:	33 0b       	sbc	r19, r19
    1bdc:	3f 93       	push	r19
    1bde:	8f 93       	push	r24
    1be0:	82 e3       	ldi	r24, 0x32	; 50
    1be2:	91 e0       	ldi	r25, 0x01	; 1
    1be4:	9f 93       	push	r25
    1be6:	8f 93       	push	r24
    1be8:	ff 92       	push	r15
    1bea:	ef 92       	push	r14
    1bec:	0e 94 21 28 	call	0x5042	; 0x5042 <sprintf>
    1bf0:	8e 8b       	std	Y+22, r24	; 0x16
		for(uint8_t i=((SSD1306_WIDTH/charsize)-buffersize);i<(SSD1306_WIDTH/charsize);i++){
    1bf2:	15 e1       	ldi	r17, 0x15	; 21
    1bf4:	18 1b       	sub	r17, r24
    1bf6:	0f 90       	pop	r0
    1bf8:	0f 90       	pop	r0
    1bfa:	0f 90       	pop	r0
    1bfc:	0f 90       	pop	r0
    1bfe:	0f 90       	pop	r0
    1c00:	0f 90       	pop	r0
    1c02:	15 31       	cpi	r17, 0x15	; 21
    1c04:	08 f0       	brcs	.+2      	; 0x1c08 <_ZN7wandern4drawEv+0x80>
    1c06:	cc c0       	rjmp	.+408    	; 0x1da0 <_ZN7wandern4drawEv+0x218>
    1c08:	01 2f       	mov	r16, r17
    1c0a:	00 0f       	add	r16, r16
    1c0c:	01 0f       	add	r16, r17
    1c0e:	00 0f       	add	r16, r16
			oled->draw_ASCI(buffer[i-((SSD1306_WIDTH/charsize)-buffersize)],i*charsize,0);
    1c10:	8e 89       	ldd	r24, Y+22	; 0x16
    1c12:	fe 01       	movw	r30, r28
    1c14:	e1 0f       	add	r30, r17
    1c16:	f1 1d       	adc	r31, r1
    1c18:	e8 0f       	add	r30, r24
    1c1a:	f1 1d       	adc	r31, r1
    1c1c:	73 97       	sbiw	r30, 0x13	; 19
    1c1e:	20 e0       	ldi	r18, 0x00	; 0
    1c20:	40 2f       	mov	r20, r16
    1c22:	60 81       	ld	r22, Z
    1c24:	8f 89       	ldd	r24, Y+23	; 0x17
    1c26:	98 8d       	ldd	r25, Y+24	; 0x18
    1c28:	0e 94 1c 04 	call	0x838	; 0x838 <_ZN7Display9draw_ASCIEhhh>
	void header(){
		for(uint8_t i=0;i<8;i++){
			oled->draw_ASCI(rtc->msg_uhr[i],i*charsize,0);
		}
		buffersize=sprintf(buffer,"Bat: %i%%",Batteriestatus());
		for(uint8_t i=((SSD1306_WIDTH/charsize)-buffersize);i<(SSD1306_WIDTH/charsize);i++){
    1c2c:	1f 5f       	subi	r17, 0xFF	; 255
    1c2e:	0a 5f       	subi	r16, 0xFA	; 250
    1c30:	15 31       	cpi	r17, 0x15	; 21
    1c32:	71 f7       	brne	.-36     	; 0x1c10 <_ZN7wandern4drawEv+0x88>
    1c34:	b5 c0       	rjmp	.+362    	; 0x1da0 <_ZN7wandern4drawEv+0x218>
	}
	
	//draw bottom and overload it
	void bottom(){
		for(uint8_t i=0;i<8;i++){
			oled->draw_ASCI(rtc->msg_dat[i],i*charsize+(SSD1306_WIDTH-bitsderrtc*charsize),7*charhighte);
    1c36:	e9 8d       	ldd	r30, Y+25	; 0x19
    1c38:	fa 8d       	ldd	r31, Y+26	; 0x1a
    1c3a:	ec 0d       	add	r30, r12
    1c3c:	fd 1d       	adc	r31, r13
    1c3e:	28 e3       	ldi	r18, 0x38	; 56
    1c40:	41 2f       	mov	r20, r17
    1c42:	60 85       	ldd	r22, Z+8	; 0x08
    1c44:	8f 89       	ldd	r24, Y+23	; 0x17
    1c46:	98 8d       	ldd	r25, Y+24	; 0x18
    1c48:	0e 94 1c 04 	call	0x838	; 0x838 <_ZN7Display9draw_ASCIEhhh>
    1c4c:	8f ef       	ldi	r24, 0xFF	; 255
    1c4e:	c8 1a       	sub	r12, r24
    1c50:	d8 0a       	sbc	r13, r24
    1c52:	1a 5f       	subi	r17, 0xFA	; 250
		}
	}
	
	//draw bottom and overload it
	void bottom(){
		for(uint8_t i=0;i<8;i++){
    1c54:	10 38       	cpi	r17, 0x80	; 128
    1c56:	79 f7       	brne	.-34     	; 0x1c36 <_ZN7wandern4drawEv+0xae>
		buffersize=sprintf(buffer,"Data: %c%c%c%c%c",gpsdata[0],gpsdata[1],gpsdata[2],gpsdata[3],gpsdata[4]);
		for(uint8_t i=0;i<buffersize;i++){oled->draw_ASCI(buffer[i],i*charsize,3*charhighte);}
		*/
		
		//Latitude
		buffersize=sprintf(buffer,"Lat: %.5f",lat);
    1c58:	80 91 e9 02 	lds	r24, 0x02E9
    1c5c:	8f 93       	push	r24
    1c5e:	80 91 e8 02 	lds	r24, 0x02E8
    1c62:	8f 93       	push	r24
    1c64:	80 91 e7 02 	lds	r24, 0x02E7
    1c68:	8f 93       	push	r24
    1c6a:	80 91 e6 02 	lds	r24, 0x02E6
    1c6e:	8f 93       	push	r24
    1c70:	84 e9       	ldi	r24, 0x94	; 148
    1c72:	91 e0       	ldi	r25, 0x01	; 1
    1c74:	9f 93       	push	r25
    1c76:	8f 93       	push	r24
    1c78:	ff 92       	push	r15
    1c7a:	ef 92       	push	r14
    1c7c:	0e 94 21 28 	call	0x5042	; 0x5042 <sprintf>
    1c80:	8e 8b       	std	Y+22, r24	; 0x16
		for(uint8_t i=0;i<buffersize;i++){oled->draw_ASCI(buffer[i],i*charsize,2*charhighte);}
    1c82:	2d b7       	in	r18, 0x3d	; 61
    1c84:	3e b7       	in	r19, 0x3e	; 62
    1c86:	28 5f       	subi	r18, 0xF8	; 248
    1c88:	3f 4f       	sbci	r19, 0xFF	; 255
    1c8a:	0f b6       	in	r0, 0x3f	; 63
    1c8c:	f8 94       	cli
    1c8e:	3e bf       	out	0x3e, r19	; 62
    1c90:	0f be       	out	0x3f, r0	; 63
    1c92:	2d bf       	out	0x3d, r18	; 61
    1c94:	88 23       	and	r24, r24
    1c96:	89 f0       	breq	.+34     	; 0x1cba <_ZN7wandern4drawEv+0x132>
    1c98:	00 e0       	ldi	r16, 0x00	; 0
    1c9a:	10 e0       	ldi	r17, 0x00	; 0
    1c9c:	fe 01       	movw	r30, r28
    1c9e:	e1 0f       	add	r30, r17
    1ca0:	f1 1d       	adc	r31, r1
    1ca2:	20 e1       	ldi	r18, 0x10	; 16
    1ca4:	40 2f       	mov	r20, r16
    1ca6:	62 81       	ldd	r22, Z+2	; 0x02
    1ca8:	8f 89       	ldd	r24, Y+23	; 0x17
    1caa:	98 8d       	ldd	r25, Y+24	; 0x18
    1cac:	0e 94 1c 04 	call	0x838	; 0x838 <_ZN7Display9draw_ASCIEhhh>
    1cb0:	1f 5f       	subi	r17, 0xFF	; 255
    1cb2:	0a 5f       	subi	r16, 0xFA	; 250
    1cb4:	8e 89       	ldd	r24, Y+22	; 0x16
    1cb6:	18 17       	cp	r17, r24
    1cb8:	88 f3       	brcs	.-30     	; 0x1c9c <_ZN7wandern4drawEv+0x114>
			
		//Longitude
		buffersize=sprintf(buffer,"Lon: %.5f",lon);
    1cba:	80 91 e5 02 	lds	r24, 0x02E5
    1cbe:	8f 93       	push	r24
    1cc0:	80 91 e4 02 	lds	r24, 0x02E4
    1cc4:	8f 93       	push	r24
    1cc6:	80 91 e3 02 	lds	r24, 0x02E3
    1cca:	8f 93       	push	r24
    1ccc:	80 91 e2 02 	lds	r24, 0x02E2
    1cd0:	8f 93       	push	r24
    1cd2:	8e e9       	ldi	r24, 0x9E	; 158
    1cd4:	91 e0       	ldi	r25, 0x01	; 1
    1cd6:	9f 93       	push	r25
    1cd8:	8f 93       	push	r24
    1cda:	ff 92       	push	r15
    1cdc:	ef 92       	push	r14
    1cde:	0e 94 21 28 	call	0x5042	; 0x5042 <sprintf>
    1ce2:	8e 8b       	std	Y+22, r24	; 0x16
		for(uint8_t i=0;i<buffersize;i++){oled->draw_ASCI(buffer[i],i*charsize,3*charhighte);}
    1ce4:	2d b7       	in	r18, 0x3d	; 61
    1ce6:	3e b7       	in	r19, 0x3e	; 62
    1ce8:	28 5f       	subi	r18, 0xF8	; 248
    1cea:	3f 4f       	sbci	r19, 0xFF	; 255
    1cec:	0f b6       	in	r0, 0x3f	; 63
    1cee:	f8 94       	cli
    1cf0:	3e bf       	out	0x3e, r19	; 62
    1cf2:	0f be       	out	0x3f, r0	; 63
    1cf4:	2d bf       	out	0x3d, r18	; 61
    1cf6:	88 23       	and	r24, r24
    1cf8:	89 f0       	breq	.+34     	; 0x1d1c <_ZN7wandern4drawEv+0x194>
    1cfa:	00 e0       	ldi	r16, 0x00	; 0
    1cfc:	10 e0       	ldi	r17, 0x00	; 0
    1cfe:	fe 01       	movw	r30, r28
    1d00:	e1 0f       	add	r30, r17
    1d02:	f1 1d       	adc	r31, r1
    1d04:	28 e1       	ldi	r18, 0x18	; 24
    1d06:	40 2f       	mov	r20, r16
    1d08:	62 81       	ldd	r22, Z+2	; 0x02
    1d0a:	8f 89       	ldd	r24, Y+23	; 0x17
    1d0c:	98 8d       	ldd	r25, Y+24	; 0x18
    1d0e:	0e 94 1c 04 	call	0x838	; 0x838 <_ZN7Display9draw_ASCIEhhh>
    1d12:	1f 5f       	subi	r17, 0xFF	; 255
    1d14:	0a 5f       	subi	r16, 0xFA	; 250
    1d16:	8e 89       	ldd	r24, Y+22	; 0x16
    1d18:	18 17       	cp	r17, r24
    1d1a:	88 f3       	brcs	.-30     	; 0x1cfe <_ZN7wandern4drawEv+0x176>
		/*
		for(uint8_t i=18;i<35;i++){oled->draw_ASCI(gpsdata[i],(i-18)*charsize,4*charhighte);}
			*/
		//gpstime
		buffersize=sprintf(buffer,"%02i:%02i:%02i %02i.%02i.%02i",gpsstunde,gpsminute,gpssekunde,gpsTag,gpsMonat,gpsJahr);
    1d1c:	80 91 d8 02 	lds	r24, 0x02D8
    1d20:	1f 92       	push	r1
    1d22:	8f 93       	push	r24
    1d24:	80 91 d9 02 	lds	r24, 0x02D9
    1d28:	1f 92       	push	r1
    1d2a:	8f 93       	push	r24
    1d2c:	80 91 da 02 	lds	r24, 0x02DA
    1d30:	1f 92       	push	r1
    1d32:	8f 93       	push	r24
    1d34:	80 91 db 02 	lds	r24, 0x02DB
    1d38:	1f 92       	push	r1
    1d3a:	8f 93       	push	r24
    1d3c:	80 91 dc 02 	lds	r24, 0x02DC
    1d40:	1f 92       	push	r1
    1d42:	8f 93       	push	r24
    1d44:	80 91 dd 02 	lds	r24, 0x02DD
    1d48:	1f 92       	push	r1
    1d4a:	8f 93       	push	r24
    1d4c:	88 ea       	ldi	r24, 0xA8	; 168
    1d4e:	91 e0       	ldi	r25, 0x01	; 1
    1d50:	9f 93       	push	r25
    1d52:	8f 93       	push	r24
    1d54:	ff 92       	push	r15
    1d56:	ef 92       	push	r14
    1d58:	0e 94 21 28 	call	0x5042	; 0x5042 <sprintf>
    1d5c:	8e 8b       	std	Y+22, r24	; 0x16
		for(uint8_t i=0;i<buffersize;i++){oled->draw_ASCI(buffer[i],i*charsize,5*charhighte);}
    1d5e:	2d b7       	in	r18, 0x3d	; 61
    1d60:	3e b7       	in	r19, 0x3e	; 62
    1d62:	20 5f       	subi	r18, 0xF0	; 240
    1d64:	3f 4f       	sbci	r19, 0xFF	; 255
    1d66:	0f b6       	in	r0, 0x3f	; 63
    1d68:	f8 94       	cli
    1d6a:	3e bf       	out	0x3e, r19	; 62
    1d6c:	0f be       	out	0x3f, r0	; 63
    1d6e:	2d bf       	out	0x3d, r18	; 61
    1d70:	88 23       	and	r24, r24
    1d72:	89 f0       	breq	.+34     	; 0x1d96 <_ZN7wandern4drawEv+0x20e>
    1d74:	00 e0       	ldi	r16, 0x00	; 0
    1d76:	10 e0       	ldi	r17, 0x00	; 0
    1d78:	fe 01       	movw	r30, r28
    1d7a:	e1 0f       	add	r30, r17
    1d7c:	f1 1d       	adc	r31, r1
    1d7e:	28 e2       	ldi	r18, 0x28	; 40
    1d80:	40 2f       	mov	r20, r16
    1d82:	62 81       	ldd	r22, Z+2	; 0x02
    1d84:	8f 89       	ldd	r24, Y+23	; 0x17
    1d86:	98 8d       	ldd	r25, Y+24	; 0x18
    1d88:	0e 94 1c 04 	call	0x838	; 0x838 <_ZN7Display9draw_ASCIEhhh>
    1d8c:	1f 5f       	subi	r17, 0xFF	; 255
    1d8e:	0a 5f       	subi	r16, 0xFA	; 250
    1d90:	8e 89       	ldd	r24, Y+22	; 0x16
    1d92:	18 17       	cp	r17, r24
    1d94:	88 f3       	brcs	.-30     	; 0x1d78 <_ZN7wandern4drawEv+0x1f0>
		oled->clearFrame();
	}

	//send the frame to the display
	void send(){
		oled->sendFrame();	
    1d96:	8f 89       	ldd	r24, Y+23	; 0x17
    1d98:	98 8d       	ldd	r25, Y+24	; 0x18
    1d9a:	0e 94 7e 03 	call	0x6fc	; 0x6fc <_ZN7Display9sendFrameEv>
    1d9e:	04 c0       	rjmp	.+8      	; 0x1da8 <_ZN7wandern4drawEv+0x220>
		return 0;
	}
	
	//drawfunktion
	virtual void draw(){
		oled->clearFrame();
    1da0:	10 e5       	ldi	r17, 0x50	; 80
    1da2:	c1 2c       	mov	r12, r1
    1da4:	d1 2c       	mov	r13, r1
    1da6:	47 cf       	rjmp	.-370    	; 0x1c36 <_ZN7wandern4drawEv+0xae>
		//gpstime
		buffersize=sprintf(buffer,"%02i:%02i:%02i %02i.%02i.%02i",gpsstunde,gpsminute,gpssekunde,gpsTag,gpsMonat,gpsJahr);
		for(uint8_t i=0;i<buffersize;i++){oled->draw_ASCI(buffer[i],i*charsize,5*charhighte);}
		
		send();	
	}
    1da8:	df 91       	pop	r29
    1daa:	cf 91       	pop	r28
    1dac:	1f 91       	pop	r17
    1dae:	0f 91       	pop	r16
    1db0:	ff 90       	pop	r15
    1db2:	ef 90       	pop	r14
    1db4:	df 90       	pop	r13
    1db6:	cf 90       	pop	r12
    1db8:	08 95       	ret

00001dba <_Z12EEPROM_Writejh>:

#ifndef EEPROM_H_
#define EEPROM_H_

void EEPROM_Write(uint16_t adresse, uint8_t data){
	cli();	//zur sicherheit interrupts ausschalten
    1dba:	f8 94       	cli
	while(EECR&(1<<EEPE));
    1dbc:	f9 99       	sbic	0x1f, 1	; 31
    1dbe:	fe cf       	rjmp	.-4      	; 0x1dbc <_Z12EEPROM_Writejh+0x2>
	
	//schreibe adresse und data
	EEAR = adresse;
    1dc0:	92 bd       	out	0x22, r25	; 34
    1dc2:	81 bd       	out	0x21, r24	; 33
	EEDR = data;
    1dc4:	60 bd       	out	0x20, r22	; 32
	//fuehre schreiben aus
	EECR |= (1<<EEMPE);
    1dc6:	fa 9a       	sbi	0x1f, 2	; 31
	EECR |= (1<<EEPE);
    1dc8:	f9 9a       	sbi	0x1f, 1	; 31
	
	sei();
    1dca:	78 94       	sei
    1dcc:	08 95       	ret

00001dce <_ZN7wandern11tastendruckEPh>:
				name[i] = ' ';
			}
		}
	}
	
	uint8_t tastendruck(uint8_t *tast){
    1dce:	cf 93       	push	r28
    1dd0:	df 93       	push	r29
    1dd2:	ec 01       	movw	r28, r24
		if (*tast=='e')
    1dd4:	fb 01       	movw	r30, r22
    1dd6:	90 81       	ld	r25, Z
    1dd8:	95 36       	cpi	r25, 0x65	; 101
    1dda:	09 f0       	breq	.+2      	; 0x1dde <_ZN7wandern11tastendruckEPh+0x10>
    1ddc:	3c c0       	rjmp	.+120    	; 0x1e56 <_ZN7wandern11tastendruckEPh+0x88>
		{
			rtc->Stunden	= gpsstunde;
    1dde:	e9 8d       	ldd	r30, Y+25	; 0x19
    1de0:	fa 8d       	ldd	r31, Y+26	; 0x1a
    1de2:	80 91 dd 02 	lds	r24, 0x02DD
    1de6:	80 8b       	std	Z+16, r24	; 0x10
			rtc->Minuten	= gpsminute;
    1de8:	e9 8d       	ldd	r30, Y+25	; 0x19
    1dea:	fa 8d       	ldd	r31, Y+26	; 0x1a
    1dec:	80 91 dc 02 	lds	r24, 0x02DC
    1df0:	81 8b       	std	Z+17, r24	; 0x11
			rtc->Sekunden	= gpssekunde;
    1df2:	e9 8d       	ldd	r30, Y+25	; 0x19
    1df4:	fa 8d       	ldd	r31, Y+26	; 0x1a
    1df6:	80 91 db 02 	lds	r24, 0x02DB
    1dfa:	82 8b       	std	Z+18, r24	; 0x12
			
			rtc->Tag		= gpsTag;
    1dfc:	e9 8d       	ldd	r30, Y+25	; 0x19
    1dfe:	fa 8d       	ldd	r31, Y+26	; 0x1a
    1e00:	80 91 da 02 	lds	r24, 0x02DA
    1e04:	84 8b       	std	Z+20, r24	; 0x14
			rtc->Monat		= gpsMonat;
    1e06:	e9 8d       	ldd	r30, Y+25	; 0x19
    1e08:	fa 8d       	ldd	r31, Y+26	; 0x1a
    1e0a:	80 91 d9 02 	lds	r24, 0x02D9
    1e0e:	86 8b       	std	Z+22, r24	; 0x16
			rtc->Jahr		= gpsJahr;
    1e10:	e9 8d       	ldd	r30, Y+25	; 0x19
    1e12:	fa 8d       	ldd	r31, Y+26	; 0x1a
    1e14:	80 91 d8 02 	lds	r24, 0x02D8
    1e18:	87 8b       	std	Z+23, r24	; 0x17
			
			//speichern der neuen Zeit im EEPROM
			EEPROM_Write(EEMINUTEN,rtc->Minuten);
    1e1a:	e9 8d       	ldd	r30, Y+25	; 0x19
    1e1c:	fa 8d       	ldd	r31, Y+26	; 0x1a
    1e1e:	61 89       	ldd	r22, Z+17	; 0x11
    1e20:	80 e0       	ldi	r24, 0x00	; 0
    1e22:	90 e0       	ldi	r25, 0x00	; 0
    1e24:	ca df       	rcall	.-108    	; 0x1dba <_Z12EEPROM_Writejh>
			EEPROM_Write(EESTUNDEN,rtc->Stunden);
    1e26:	e9 8d       	ldd	r30, Y+25	; 0x19
    1e28:	fa 8d       	ldd	r31, Y+26	; 0x1a
    1e2a:	60 89       	ldd	r22, Z+16	; 0x10
    1e2c:	81 e0       	ldi	r24, 0x01	; 1
    1e2e:	90 e0       	ldi	r25, 0x00	; 0
    1e30:	c4 df       	rcall	.-120    	; 0x1dba <_Z12EEPROM_Writejh>
			EEPROM_Write(EETAGE,rtc->Tag);
    1e32:	e9 8d       	ldd	r30, Y+25	; 0x19
    1e34:	fa 8d       	ldd	r31, Y+26	; 0x1a
    1e36:	64 89       	ldd	r22, Z+20	; 0x14
    1e38:	82 e0       	ldi	r24, 0x02	; 2
    1e3a:	90 e0       	ldi	r25, 0x00	; 0
    1e3c:	be df       	rcall	.-132    	; 0x1dba <_Z12EEPROM_Writejh>
			EEPROM_Write(EEMONAT,rtc->Monat);
    1e3e:	e9 8d       	ldd	r30, Y+25	; 0x19
    1e40:	fa 8d       	ldd	r31, Y+26	; 0x1a
    1e42:	66 89       	ldd	r22, Z+22	; 0x16
    1e44:	83 e0       	ldi	r24, 0x03	; 3
    1e46:	90 e0       	ldi	r25, 0x00	; 0
    1e48:	b8 df       	rcall	.-144    	; 0x1dba <_Z12EEPROM_Writejh>
			EEPROM_Write(EEJAHR,rtc->Jahr);
    1e4a:	e9 8d       	ldd	r30, Y+25	; 0x19
    1e4c:	fa 8d       	ldd	r31, Y+26	; 0x1a
    1e4e:	67 89       	ldd	r22, Z+23	; 0x17
    1e50:	84 e0       	ldi	r24, 0x04	; 4
    1e52:	90 e0       	ldi	r25, 0x00	; 0
    1e54:	b2 df       	rcall	.-156    	; 0x1dba <_Z12EEPROM_Writejh>
		}
		return 0;
	}
    1e56:	80 e0       	ldi	r24, 0x00	; 0
    1e58:	df 91       	pop	r29
    1e5a:	cf 91       	pop	r28
    1e5c:	08 95       	ret

00001e5e <_Z11EEPROM_Readj>:
}

uint8_t EEPROM_Read(uint16_t adresse){
	cli();	//zur sicherheit interrupts ausschalten
    1e5e:	f8 94       	cli
	while(EECR&(1<<EEPE));
    1e60:	f9 99       	sbic	0x1f, 1	; 31
    1e62:	fe cf       	rjmp	.-4      	; 0x1e60 <_Z11EEPROM_Readj+0x2>
	
	//schreibe adresse
	EEAR = adresse;
    1e64:	92 bd       	out	0x22, r25	; 34
    1e66:	81 bd       	out	0x21, r24	; 33
	//fuehre lesen aus
	EECR |= (1<<EERE);
    1e68:	f8 9a       	sbi	0x1f, 0	; 31
	
	sei();
    1e6a:	78 94       	sei
	return EEDR;
    1e6c:	80 b5       	in	r24, 0x20	; 32
}
    1e6e:	08 95       	ret

00001e70 <__vector_11>:
uint8_t FPS;

//schlechte variante der Uhreinstellung
void uhreinstellen();

ISR(TIMER2_OVF_vect){	//Vektor fuer die RTC
    1e70:	1f 92       	push	r1
    1e72:	0f 92       	push	r0
    1e74:	0f b6       	in	r0, 0x3f	; 63
    1e76:	0f 92       	push	r0
    1e78:	11 24       	eor	r1, r1
    1e7a:	0b b6       	in	r0, 0x3b	; 59
    1e7c:	0f 92       	push	r0
    1e7e:	8f 93       	push	r24
    1e80:	ef 93       	push	r30
    1e82:	ff 93       	push	r31
	//TCNT2=TIMER2RTCTIME;
	rtc.Sekunden++;
    1e84:	ec e3       	ldi	r30, 0x3C	; 60
    1e86:	f8 e0       	ldi	r31, 0x08	; 8
    1e88:	82 89       	ldd	r24, Z+18	; 0x12
    1e8a:	8f 5f       	subi	r24, 0xFF	; 255
    1e8c:	82 8b       	std	Z+18, r24	; 0x12
	rtc.interupts|= (1<<sekundeninterupt);
    1e8e:	80 8d       	ldd	r24, Z+24	; 0x18
    1e90:	82 60       	ori	r24, 0x02	; 2
    1e92:	80 8f       	std	Z+24, r24	; 0x18
}
    1e94:	ff 91       	pop	r31
    1e96:	ef 91       	pop	r30
    1e98:	8f 91       	pop	r24
    1e9a:	0f 90       	pop	r0
    1e9c:	0b be       	out	0x3b, r0	; 59
    1e9e:	0f 90       	pop	r0
    1ea0:	0f be       	out	0x3f, r0	; 63
    1ea2:	0f 90       	pop	r0
    1ea4:	1f 90       	pop	r1
    1ea6:	18 95       	reti

00001ea8 <__vector_13>:

ISR(TIMER1_COMPA_vect){
    1ea8:	1f 92       	push	r1
    1eaa:	0f 92       	push	r0
    1eac:	0f b6       	in	r0, 0x3f	; 63
    1eae:	0f 92       	push	r0
    1eb0:	11 24       	eor	r1, r1
    1eb2:	8f 93       	push	r24
	statusreg |= (1<<updaterate);
    1eb4:	80 91 36 03 	lds	r24, 0x0336
    1eb8:	81 60       	ori	r24, 0x01	; 1
    1eba:	80 93 36 03 	sts	0x0336, r24
}
    1ebe:	8f 91       	pop	r24
    1ec0:	0f 90       	pop	r0
    1ec2:	0f be       	out	0x3f, r0	; 63
    1ec4:	0f 90       	pop	r0
    1ec6:	1f 90       	pop	r1
    1ec8:	18 95       	reti

00001eca <__vector_20>:
uint8_t gpssekunde;
uint8_t gpsTag;
uint8_t gpsMonat;
uint8_t gpsJahr;

ISR(USART0_RX_vect){
    1eca:	1f 92       	push	r1
    1ecc:	0f 92       	push	r0
    1ece:	0f b6       	in	r0, 0x3f	; 63
    1ed0:	0f 92       	push	r0
    1ed2:	11 24       	eor	r1, r1
    1ed4:	0b b6       	in	r0, 0x3b	; 59
    1ed6:	0f 92       	push	r0
    1ed8:	2f 93       	push	r18
    1eda:	8f 93       	push	r24
    1edc:	9f 93       	push	r25
    1ede:	ef 93       	push	r30
    1ee0:	ff 93       	push	r31
	uint8_t temp = UDR0;
    1ee2:	20 91 c6 00 	lds	r18, 0x00C6
	if (temp == '$' && !(gpsstatus&(1<<complete)) && !(gpsstatus&(1<<completenotvalid)))
    1ee6:	24 32       	cpi	r18, 0x24	; 36
    1ee8:	51 f4       	brne	.+20     	; 0x1efe <__vector_20+0x34>
    1eea:	80 91 33 03 	lds	r24, 0x0333
    1eee:	98 2f       	mov	r25, r24
    1ef0:	9c 70       	andi	r25, 0x0C	; 12
    1ef2:	29 f4       	brne	.+10     	; 0x1efe <__vector_20+0x34>
	{
		gpscounter = 0;
    1ef4:	10 92 ea 02 	sts	0x02EA, r1
		gpsstatus |= (1<<message);
    1ef8:	81 60       	ori	r24, 0x01	; 1
    1efa:	80 93 33 03 	sts	0x0333, r24
	}
	if ((gpsstatus&(1<<message)))
    1efe:	90 91 33 03 	lds	r25, 0x0333
    1f02:	90 ff       	sbrs	r25, 0
    1f04:	3c c0       	rjmp	.+120    	; 0x1f7e <__vector_20+0xb4>
	{
		gpsdata[gpscounter] = temp;
    1f06:	80 91 ea 02 	lds	r24, 0x02EA
    1f0a:	e8 2f       	mov	r30, r24
    1f0c:	f0 e0       	ldi	r31, 0x00	; 0
    1f0e:	e5 51       	subi	r30, 0x15	; 21
    1f10:	fd 4f       	sbci	r31, 0xFD	; 253
    1f12:	20 83       	st	Z, r18
		gpscounter++;
    1f14:	8f 5f       	subi	r24, 0xFF	; 255
    1f16:	80 93 ea 02 	sts	0x02EA, r24
		if (gpscounter>72)
    1f1a:	89 34       	cpi	r24, 0x49	; 73
    1f1c:	20 f0       	brcs	.+8      	; 0x1f26 <__vector_20+0x5c>
		{
			gpsstatus &= ~(1<<message);
    1f1e:	9e 7f       	andi	r25, 0xFE	; 254
    1f20:	90 93 33 03 	sts	0x0333, r25
    1f24:	2c c0       	rjmp	.+88     	; 0x1f7e <__vector_20+0xb4>
		}
		else if (gpscounter==19)
    1f26:	83 31       	cpi	r24, 0x13	; 19
    1f28:	c9 f4       	brne	.+50     	; 0x1f5c <__vector_20+0x92>
		{
			if (gpsdata[4]=='M' && gpsdata[5]=='C')
    1f2a:	80 91 ef 02 	lds	r24, 0x02EF
    1f2e:	8d 34       	cpi	r24, 0x4D	; 77
    1f30:	89 f4       	brne	.+34     	; 0x1f54 <__vector_20+0x8a>
    1f32:	80 91 f0 02 	lds	r24, 0x02F0
    1f36:	83 34       	cpi	r24, 0x43	; 67
    1f38:	69 f4       	brne	.+26     	; 0x1f54 <__vector_20+0x8a>
			{
				if (gpsdata[18]!='A')
    1f3a:	80 91 fd 02 	lds	r24, 0x02FD
    1f3e:	81 34       	cpi	r24, 0x41	; 65
    1f40:	29 f0       	breq	.+10     	; 0x1f4c <__vector_20+0x82>
				{
					gpsstatus &= ~((1<<valid));
    1f42:	9d 7f       	andi	r25, 0xFD	; 253
					gpsstatus |= (1<<notvalidgetdate);
    1f44:	90 61       	ori	r25, 0x10	; 16
    1f46:	90 93 33 03 	sts	0x0333, r25
    1f4a:	19 c0       	rjmp	.+50     	; 0x1f7e <__vector_20+0xb4>
				}
				else{
					gpsstatus |= (1<<valid);
    1f4c:	92 60       	ori	r25, 0x02	; 2
    1f4e:	90 93 33 03 	sts	0x0333, r25
    1f52:	15 c0       	rjmp	.+42     	; 0x1f7e <__vector_20+0xb4>
				}
			}
			else{
				gpsstatus &= ~(1<<valid);
				gpsstatus &= ~(1<<message);
    1f54:	9c 7f       	andi	r25, 0xFC	; 252
    1f56:	90 93 33 03 	sts	0x0333, r25
    1f5a:	11 c0       	rjmp	.+34     	; 0x1f7e <__vector_20+0xb4>
			}
		}
		else if (gpscounter == 42 && (gpsstatus&(1<<notvalidgetdate)))
    1f5c:	8a 32       	cpi	r24, 0x2A	; 42
    1f5e:	39 f4       	brne	.+14     	; 0x1f6e <__vector_20+0xa4>
    1f60:	94 ff       	sbrs	r25, 4
    1f62:	0d c0       	rjmp	.+26     	; 0x1f7e <__vector_20+0xb4>
		{
			gpsstatus |= (1<<completenotvalid);
			gpsstatus &= ~(1<<message);
    1f64:	9e 7f       	andi	r25, 0xFE	; 254
    1f66:	98 60       	ori	r25, 0x08	; 8
    1f68:	90 93 33 03 	sts	0x0333, r25
    1f6c:	08 c0       	rjmp	.+16     	; 0x1f7e <__vector_20+0xb4>
		}
		else if (gpscounter == 70 && (gpsstatus&(1<<valid)))
    1f6e:	86 34       	cpi	r24, 0x46	; 70
    1f70:	31 f4       	brne	.+12     	; 0x1f7e <__vector_20+0xb4>
    1f72:	91 ff       	sbrs	r25, 1
    1f74:	04 c0       	rjmp	.+8      	; 0x1f7e <__vector_20+0xb4>
		{
			gpsstatus |= (1<<complete);
			gpsstatus &= ~((1<<message) | (1<<valid));
    1f76:	9c 7f       	andi	r25, 0xFC	; 252
    1f78:	94 60       	ori	r25, 0x04	; 4
    1f7a:	90 93 33 03 	sts	0x0333, r25
		}
	}
}
    1f7e:	ff 91       	pop	r31
    1f80:	ef 91       	pop	r30
    1f82:	9f 91       	pop	r25
    1f84:	8f 91       	pop	r24
    1f86:	2f 91       	pop	r18
    1f88:	0f 90       	pop	r0
    1f8a:	0b be       	out	0x3b, r0	; 59
    1f8c:	0f 90       	pop	r0
    1f8e:	0f be       	out	0x3f, r0	; 63
    1f90:	0f 90       	pop	r0
    1f92:	1f 90       	pop	r1
    1f94:	18 95       	reti

00001f96 <_Z6nullenv>:
double geschw;
double strecke;
double maxgeschw;
uint32_t Fahrtzeit;
void nullen(){
	geschw = 0;
    1f96:	10 92 d4 02 	sts	0x02D4, r1
    1f9a:	10 92 d5 02 	sts	0x02D5, r1
    1f9e:	10 92 d6 02 	sts	0x02D6, r1
    1fa2:	10 92 d7 02 	sts	0x02D7, r1
	strecke = 0;
    1fa6:	10 92 d0 02 	sts	0x02D0, r1
    1faa:	10 92 d1 02 	sts	0x02D1, r1
    1fae:	10 92 d2 02 	sts	0x02D2, r1
    1fb2:	10 92 d3 02 	sts	0x02D3, r1
	maxgeschw = 0;
    1fb6:	10 92 cc 02 	sts	0x02CC, r1
    1fba:	10 92 cd 02 	sts	0x02CD, r1
    1fbe:	10 92 ce 02 	sts	0x02CE, r1
    1fc2:	10 92 cf 02 	sts	0x02CF, r1
	Fahrtzeit = 0;
    1fc6:	10 92 c8 02 	sts	0x02C8, r1
    1fca:	10 92 c9 02 	sts	0x02C9, r1
    1fce:	10 92 ca 02 	sts	0x02CA, r1
    1fd2:	10 92 cb 02 	sts	0x02CB, r1
    1fd6:	08 95       	ret

00001fd8 <_ZN5tacho11tastendruckEPh>:
		nullen();
	}

	//Tasterhandler
	uint8_t tastendruck(uint8_t *tast){
		if (*tast=='e')
    1fd8:	fb 01       	movw	r30, r22
    1fda:	80 81       	ld	r24, Z
    1fdc:	85 36       	cpi	r24, 0x65	; 101
    1fde:	09 f4       	brne	.+2      	; 0x1fe2 <_ZN5tacho11tastendruckEPh+0xa>
		{
			nullen();
    1fe0:	da df       	rcall	.-76     	; 0x1f96 <_Z6nullenv>
		}
		return 0;
	}
    1fe2:	80 e0       	ldi	r24, 0x00	; 0
    1fe4:	08 95       	ret

00001fe6 <_Z13reed_debouncePVhh>:
}
uint8_t reed_debounce(volatile uint8_t *port, uint8_t pin)
{
	if ( (*port & (1 << pin)) )
    1fe6:	fc 01       	movw	r30, r24
    1fe8:	20 81       	ld	r18, Z
    1fea:	30 e0       	ldi	r19, 0x00	; 0
    1fec:	06 2e       	mov	r0, r22
    1fee:	02 c0       	rjmp	.+4      	; 0x1ff4 <_Z13reed_debouncePVhh+0xe>
    1ff0:	35 95       	asr	r19
    1ff2:	27 95       	ror	r18
    1ff4:	0a 94       	dec	r0
    1ff6:	e2 f7       	brpl	.-8      	; 0x1ff0 <_Z13reed_debouncePVhh+0xa>
    1ff8:	20 ff       	sbrs	r18, 0
    1ffa:	16 c0       	rjmp	.+44     	; 0x2028 <_Z13reed_debouncePVhh+0x42>
	#else
		//round up by default
		__ticks_dc = (uint32_t)(ceil(fabs(__tmp)));
	#endif

	__builtin_avr_delay_cycles(__ticks_dc);
    1ffc:	ef e0       	ldi	r30, 0x0F	; 15
    1ffe:	f7 e2       	ldi	r31, 0x27	; 39
    2000:	31 97       	sbiw	r30, 0x01	; 1
    2002:	f1 f7       	brne	.-4      	; 0x2000 <_Z13reed_debouncePVhh+0x1a>
    2004:	00 c0       	rjmp	.+0      	; 0x2006 <_Z13reed_debouncePVhh+0x20>
    2006:	00 00       	nop
	{
		/* Pin wurde auf Masse gezogen, ms warten   */
		_delay_ms(REEDMS);
		if ( !(*port & (1 << pin)) )
    2008:	fc 01       	movw	r30, r24
    200a:	80 81       	ld	r24, Z
    200c:	90 e0       	ldi	r25, 0x00	; 0
    200e:	02 c0       	rjmp	.+4      	; 0x2014 <_Z13reed_debouncePVhh+0x2e>
    2010:	95 95       	asr	r25
    2012:	87 95       	ror	r24
    2014:	6a 95       	dec	r22
    2016:	e2 f7       	brpl	.-8      	; 0x2010 <_Z13reed_debouncePVhh+0x2a>
    2018:	80 fd       	sbrc	r24, 0
    201a:	08 c0       	rjmp	.+16     	; 0x202c <_Z13reed_debouncePVhh+0x46>
	#else
		//round up by default
		__ticks_dc = (uint32_t)(ceil(fabs(__tmp)));
	#endif

	__builtin_avr_delay_cycles(__ticks_dc);
    201c:	f2 e0       	ldi	r31, 0x02	; 2
    201e:	fa 95       	dec	r31
    2020:	f1 f7       	brne	.-4      	; 0x201e <_Z13reed_debouncePVhh+0x38>
    2022:	00 c0       	rjmp	.+0      	; 0x2024 <_Z13reed_debouncePVhh+0x3e>
		{
			/* Anwender Zeit zum Loslassen des Tasters geben */
			_delay_us(1);
			return 1;
    2024:	81 e0       	ldi	r24, 0x01	; 1
    2026:	08 95       	ret
		}
	}
	return 0;
    2028:	80 e0       	ldi	r24, 0x00	; 0
    202a:	08 95       	ret
    202c:	80 e0       	ldi	r24, 0x00	; 0
}
    202e:	08 95       	ret

00002030 <_Z15geschwindigkeitf>:
//Berechnung der Geschwindigkeit
void geschwindigkeit(float durch){
    2030:	cf 92       	push	r12
    2032:	df 92       	push	r13
    2034:	ef 92       	push	r14
    2036:	ff 92       	push	r15
    2038:	cf 93       	push	r28
    203a:	df 93       	push	r29
	//Einholen der Daten und ruecksetzen
	uint16_t zaehlungen = TCNT1;
    203c:	e4 e8       	ldi	r30, 0x84	; 132
    203e:	f0 e0       	ldi	r31, 0x00	; 0
    2040:	c0 81       	ld	r28, Z
    2042:	d1 81       	ldd	r29, Z+1	; 0x01
	TCNT1 = 0;
    2044:	11 82       	std	Z+1, r1	; 0x01
    2046:	10 82       	st	Z, r1
	//Berechnung
	double temp = geschw;
	double umlaufzeit = (REEDMS/1000.0+(zaehlungen/zaehlungenprozeiteinheit)*zeitproachtzaehlungen);
	geschw = (durch)*M_PI*3.6;
    2048:	2b ed       	ldi	r18, 0xDB	; 219
    204a:	3f e0       	ldi	r19, 0x0F	; 15
    204c:	49 e4       	ldi	r20, 0x49	; 73
    204e:	50 e4       	ldi	r21, 0x40	; 64
    2050:	0e 94 93 21 	call	0x4326	; 0x4326 <__mulsf3>
    2054:	26 e6       	ldi	r18, 0x66	; 102
    2056:	36 e6       	ldi	r19, 0x66	; 102
    2058:	46 e6       	ldi	r20, 0x66	; 102
    205a:	50 e4       	ldi	r21, 0x40	; 64
    205c:	0e 94 93 21 	call	0x4326	; 0x4326 <__mulsf3>
    2060:	6b 01       	movw	r12, r22
    2062:	7c 01       	movw	r14, r24
	//Einholen der Daten und ruecksetzen
	uint16_t zaehlungen = TCNT1;
	TCNT1 = 0;
	//Berechnung
	double temp = geschw;
	double umlaufzeit = (REEDMS/1000.0+(zaehlungen/zaehlungenprozeiteinheit)*zeitproachtzaehlungen);
    2064:	be 01       	movw	r22, r28
    2066:	80 e0       	ldi	r24, 0x00	; 0
    2068:	90 e0       	ldi	r25, 0x00	; 0
    206a:	0e 94 7f 20 	call	0x40fe	; 0x40fe <__floatunsisf>
    206e:	20 e0       	ldi	r18, 0x00	; 0
    2070:	30 e0       	ldi	r19, 0x00	; 0
    2072:	40 e0       	ldi	r20, 0x00	; 0
    2074:	5e e3       	ldi	r21, 0x3E	; 62
    2076:	0e 94 93 21 	call	0x4326	; 0x4326 <__mulsf3>
    207a:	2d eb       	ldi	r18, 0xBD	; 189
    207c:	37 e3       	ldi	r19, 0x37	; 55
    207e:	46 e8       	ldi	r20, 0x86	; 134
    2080:	5a e3       	ldi	r21, 0x3A	; 58
    2082:	0e 94 93 21 	call	0x4326	; 0x4326 <__mulsf3>
    2086:	2a e0       	ldi	r18, 0x0A	; 10
    2088:	37 ed       	ldi	r19, 0xD7	; 215
    208a:	43 ea       	ldi	r20, 0xA3	; 163
    208c:	5b e3       	ldi	r21, 0x3B	; 59
    208e:	0e 94 7f 1f 	call	0x3efe	; 0x3efe <__addsf3>
    2092:	9b 01       	movw	r18, r22
    2094:	ac 01       	movw	r20, r24
	geschw = (durch)*M_PI*3.6;
	geschw /= umlaufzeit;
    2096:	c7 01       	movw	r24, r14
    2098:	b6 01       	movw	r22, r12
    209a:	0e 94 e6 1f 	call	0x3fcc	; 0x3fcc <__divsf3>
	//Mittelwert aus der letzten Messung zum Fehler minimieren
	geschw += temp;
    209e:	20 91 d4 02 	lds	r18, 0x02D4
    20a2:	30 91 d5 02 	lds	r19, 0x02D5
    20a6:	40 91 d6 02 	lds	r20, 0x02D6
    20aa:	50 91 d7 02 	lds	r21, 0x02D7
    20ae:	0e 94 7f 1f 	call	0x3efe	; 0x3efe <__addsf3>
	geschw /= 2.0;
    20b2:	20 e0       	ldi	r18, 0x00	; 0
    20b4:	30 e0       	ldi	r19, 0x00	; 0
    20b6:	40 e0       	ldi	r20, 0x00	; 0
    20b8:	5f e3       	ldi	r21, 0x3F	; 63
    20ba:	0e 94 93 21 	call	0x4326	; 0x4326 <__mulsf3>
    20be:	6b 01       	movw	r12, r22
    20c0:	7c 01       	movw	r14, r24
	if (geschw >=160)
    20c2:	20 e0       	ldi	r18, 0x00	; 0
    20c4:	30 e0       	ldi	r19, 0x00	; 0
    20c6:	40 e2       	ldi	r20, 0x20	; 32
    20c8:	53 e4       	ldi	r21, 0x43	; 67
    20ca:	0e 94 8f 21 	call	0x431e	; 0x431e <__gesf2>
    20ce:	88 23       	and	r24, r24
    20d0:	4c f4       	brge	.+18     	; 0x20e4 <_Z15geschwindigkeitf+0xb4>
	double umlaufzeit = (REEDMS/1000.0+(zaehlungen/zaehlungenprozeiteinheit)*zeitproachtzaehlungen);
	geschw = (durch)*M_PI*3.6;
	geschw /= umlaufzeit;
	//Mittelwert aus der letzten Messung zum Fehler minimieren
	geschw += temp;
	geschw /= 2.0;
    20d2:	c0 92 d4 02 	sts	0x02D4, r12
    20d6:	d0 92 d5 02 	sts	0x02D5, r13
    20da:	e0 92 d6 02 	sts	0x02D6, r14
    20de:	f0 92 d7 02 	sts	0x02D7, r15
    20e2:	08 c0       	rjmp	.+16     	; 0x20f4 <_Z15geschwindigkeitf+0xc4>
	if (geschw >=160)
	{
		geschw=0;
    20e4:	10 92 d4 02 	sts	0x02D4, r1
    20e8:	10 92 d5 02 	sts	0x02D5, r1
    20ec:	10 92 d6 02 	sts	0x02D6, r1
    20f0:	10 92 d7 02 	sts	0x02D7, r1
	}
}
    20f4:	df 91       	pop	r29
    20f6:	cf 91       	pop	r28
    20f8:	ff 90       	pop	r15
    20fa:	ef 90       	pop	r14
    20fc:	df 90       	pop	r13
    20fe:	cf 90       	pop	r12
    2100:	08 95       	ret

00002102 <_Z15initialisierungv>:
		maininterupthandler(Folien[position],Tastatur.unified());
		gpshandler();
    }
}

void initialisierung(){	
    2102:	ff 92       	push	r15
    2104:	0f 93       	push	r16
    2106:	1f 93       	push	r17
    2108:	cf 93       	push	r28
    210a:	df 93       	push	r29
    210c:	cd b7       	in	r28, 0x3d	; 61
    210e:	de b7       	in	r29, 0x3e	; 62
    2110:	a9 97       	sbiw	r28, 0x29	; 41
    2112:	0f b6       	in	r0, 0x3f	; 63
    2114:	f8 94       	cli
    2116:	de bf       	out	0x3e, r29	; 62
    2118:	0f be       	out	0x3f, r0	; 63
    211a:	cd bf       	out	0x3d, r28	; 61
	//nullen der Flagregister
	anzeige=0;
    211c:	10 92 37 03 	sts	0x0337, r1
	statusreg=0;
    2120:	10 92 36 03 	sts	0x0336, r1
	position=0;
    2124:	10 92 35 03 	sts	0x0335, r1
	FPS=0;
    2128:	10 92 34 03 	sts	0x0334, r1
	
	//initialisieren des Zaehler fuer die Winkelgeschw sowie den Timer
	TCNT1 = 0;
    212c:	10 92 85 00 	sts	0x0085, r1
    2130:	10 92 84 00 	sts	0x0084, r1
	TIMSK1 = 0;
    2134:	10 92 6f 00 	sts	0x006F, r1
	TCCR1B = ((1<<CS12) | (1<<CS10));
    2138:	85 e0       	ldi	r24, 0x05	; 5
    213a:	80 93 81 00 	sts	0x0081, r24
	
	//Eingang fuer den Reedkontak schalten mit internem Pullup
	DDRA |= ((1<<PORTA6));
    213e:	0e 9a       	sbi	0x01, 6	; 1
	PORTA |= (1<<PORTA6);
    2140:	16 9a       	sbi	0x02, 6	; 2
	
	//ADC Initialisieren auf CH0
	ADMUX = (1<<REFS0);
    2142:	80 e4       	ldi	r24, 0x40	; 64
    2144:	80 93 7c 00 	sts	0x007C, r24
	ADCSRA = (1<<ADPS1) | (1<<ADPS0);
    2148:	ea e7       	ldi	r30, 0x7A	; 122
    214a:	f0 e0       	ldi	r31, 0x00	; 0
    214c:	83 e0       	ldi	r24, 0x03	; 3
    214e:	80 83       	st	Z, r24
	ADCSRA |= (1<<ADEN);
    2150:	80 81       	ld	r24, Z
    2152:	80 68       	ori	r24, 0x80	; 128
    2154:	80 83       	st	Z, r24
	ADCSRA |= (1<<ADSC);
    2156:	80 81       	ld	r24, Z
    2158:	80 64       	ori	r24, 0x40	; 64
    215a:	80 83       	st	Z, r24
	while (ADCSRA & (1<<ADSC) ) {}
    215c:	80 81       	ld	r24, Z
    215e:	18 2f       	mov	r17, r24
    2160:	10 74       	andi	r17, 0x40	; 64
    2162:	86 fd       	sbrc	r24, 6
    2164:	fb cf       	rjmp	.-10     	; 0x215c <_Z15initialisierungv+0x5a>
	(void) ADCW;
    2166:	80 91 78 00 	lds	r24, 0x0078
    216a:	90 91 79 00 	lds	r25, 0x0079
	
	//USART initalisieren, aktivieren erst spaeter
	PIND &= ~((1<<PIND1) | (1<<PIND2));
    216e:	89 b1       	in	r24, 0x09	; 9
    2170:	89 7f       	andi	r24, 0xF9	; 249
    2172:	89 b9       	out	0x09, r24	; 9
	DDRD &= ~((1<<PIND1) | (1<<PIND2));
    2174:	8a b1       	in	r24, 0x0a	; 10
    2176:	89 7f       	andi	r24, 0xF9	; 249
    2178:	8a b9       	out	0x0a, r24	; 10
	UBRR0H = 0;
    217a:	10 92 c5 00 	sts	0x00C5, r1
	UBRR0L = 51;							//9600 Baud
    217e:	83 e3       	ldi	r24, 0x33	; 51
    2180:	80 93 c4 00 	sts	0x00C4, r24
	UCSR0C = (1<<UCSZ00) | (1<<UCSZ01);	// 8Bit Frame
    2184:	86 e0       	ldi	r24, 0x06	; 6
    2186:	80 93 c2 00 	sts	0x00C2, r24
	UCSR0B = (1<<RXCIE0);
    218a:	80 e8       	ldi	r24, 0x80	; 128
    218c:	80 93 c1 00 	sts	0x00C1, r24
	gpscounter = 0;
    2190:	10 92 ea 02 	sts	0x02EA, r1
	gpsstatus = (1<<fix);
    2194:	80 93 33 03 	sts	0x0333, r24
	lat = 0;
    2198:	10 92 e6 02 	sts	0x02E6, r1
    219c:	10 92 e7 02 	sts	0x02E7, r1
    21a0:	10 92 e8 02 	sts	0x02E8, r1
    21a4:	10 92 e9 02 	sts	0x02E9, r1
	lon = 0;
    21a8:	10 92 e2 02 	sts	0x02E2, r1
    21ac:	10 92 e3 02 	sts	0x02E3, r1
    21b0:	10 92 e4 02 	sts	0x02E4, r1
    21b4:	10 92 e5 02 	sts	0x02E5, r1
	gpsspeed = 0;
    21b8:	10 92 de 02 	sts	0x02DE, r1
    21bc:	10 92 df 02 	sts	0x02DF, r1
    21c0:	10 92 e0 02 	sts	0x02E0, r1
    21c4:	10 92 e1 02 	sts	0x02E1, r1
	gpsstunde = 0;
    21c8:	10 92 dd 02 	sts	0x02DD, r1
	gpsminute = 0;
    21cc:	10 92 dc 02 	sts	0x02DC, r1
	gpssekunde = 0;
    21d0:	10 92 db 02 	sts	0x02DB, r1
	gpsTag = 0;
    21d4:	10 92 da 02 	sts	0x02DA, r1
	gpsMonat = 0;
    21d8:	10 92 d9 02 	sts	0x02D9, r1
	gpsJahr = 0;
    21dc:	10 92 d8 02 	sts	0x02D8, r1
		uint8_t posx;
		uint8_t maxentries;
		uint8_t maxentriesx;
	monitor(Display *ol, RTC *rt)
	{
		buffersize = 0;
    21e0:	1f 8a       	std	Y+23, r1	; 0x17
		oled = ol;
    21e2:	8b e3       	ldi	r24, 0x3B	; 59
    21e4:	94 e0       	ldi	r25, 0x04	; 4
    21e6:	99 8f       	std	Y+25, r25	; 0x19
    21e8:	88 8f       	std	Y+24, r24	; 0x18
		rtc = rt;
    21ea:	8c e3       	ldi	r24, 0x3C	; 60
    21ec:	98 e0       	ldi	r25, 0x08	; 8
    21ee:	9b 8f       	std	Y+27, r25	; 0x1b
    21f0:	8a 8f       	std	Y+26, r24	; 0x1a
		posy=0;
    21f2:	1e a2       	std	Y+38, r1	; 0x26
		posx=0;
    21f4:	1f a2       	std	Y+39, r1	; 0x27
		maxentriesx = 1;
    21f6:	81 e0       	ldi	r24, 0x01	; 1
    21f8:	89 a7       	std	Y+41, r24	; 0x29
class wilkommen: public monitor
{
	private:
	
	public:
	wilkommen(Display *ol, RTC *rt):monitor(ol,rt)
    21fa:	83 eb       	ldi	r24, 0xB3	; 179
    21fc:	92 e0       	ldi	r25, 0x02	; 2
    21fe:	9a 83       	std	Y+2, r25	; 0x02
    2200:	89 83       	std	Y+1, r24	; 0x01
	{

	}
	
	void draw(){
		oled->clearFrame();
    2202:	8b e3       	ldi	r24, 0x3B	; 59
    2204:	94 e0       	ldi	r25, 0x04	; 4
    2206:	0e 94 04 03 	call	0x608	; 0x608 <_ZN7Display10clearFrameEv>
		
		buffersize=sprintf(buffer,"Fahradcomputer");
    220a:	8f e0       	ldi	r24, 0x0F	; 15
    220c:	e6 e0       	ldi	r30, 0x06	; 6
    220e:	f1 e0       	ldi	r31, 0x01	; 1
    2210:	de 01       	movw	r26, r28
    2212:	13 96       	adiw	r26, 0x03	; 3
    2214:	01 90       	ld	r0, Z+
    2216:	0d 92       	st	X+, r0
    2218:	8a 95       	dec	r24
    221a:	e1 f7       	brne	.-8      	; 0x2214 <_Z15initialisierungv+0x112>
    221c:	8e e0       	ldi	r24, 0x0E	; 14
    221e:	8f 8b       	std	Y+23, r24	; 0x17
    2220:	f1 2e       	mov	r15, r17
    2222:	00 e0       	ldi	r16, 0x00	; 0
		for(uint8_t i=0; i < buffersize;i++){
			oled->draw_ASCI(buffer[i],i*charsize,0);
    2224:	e3 e0       	ldi	r30, 0x03	; 3
    2226:	f0 e0       	ldi	r31, 0x00	; 0
    2228:	ec 0f       	add	r30, r28
    222a:	fd 1f       	adc	r31, r29
    222c:	e0 0f       	add	r30, r16
    222e:	f1 1d       	adc	r31, r1
    2230:	20 e0       	ldi	r18, 0x00	; 0
    2232:	4f 2d       	mov	r20, r15
    2234:	60 81       	ld	r22, Z
    2236:	88 8d       	ldd	r24, Y+24	; 0x18
    2238:	99 8d       	ldd	r25, Y+25	; 0x19
    223a:	0e 94 1c 04 	call	0x838	; 0x838 <_ZN7Display9draw_ASCIEhhh>
	
	void draw(){
		oled->clearFrame();
		
		buffersize=sprintf(buffer,"Fahradcomputer");
		for(uint8_t i=0; i < buffersize;i++){
    223e:	0f 5f       	subi	r16, 0xFF	; 255
    2240:	26 e0       	ldi	r18, 0x06	; 6
    2242:	f2 0e       	add	r15, r18
    2244:	8f 89       	ldd	r24, Y+23	; 0x17
    2246:	08 17       	cp	r16, r24
    2248:	68 f3       	brcs	.-38     	; 0x2224 <_Z15initialisierungv+0x122>
			oled->draw_ASCI(buffer[i],i*charsize,0);
		}
		buffersize=sprintf(buffer,"--------------");
    224a:	8f e0       	ldi	r24, 0x0F	; 15
    224c:	e5 e1       	ldi	r30, 0x15	; 21
    224e:	f1 e0       	ldi	r31, 0x01	; 1
    2250:	de 01       	movw	r26, r28
    2252:	13 96       	adiw	r26, 0x03	; 3
    2254:	01 90       	ld	r0, Z+
    2256:	0d 92       	st	X+, r0
    2258:	8a 95       	dec	r24
    225a:	e1 f7       	brne	.-8      	; 0x2254 <_Z15initialisierungv+0x152>
    225c:	8e e0       	ldi	r24, 0x0E	; 14
    225e:	8f 8b       	std	Y+23, r24	; 0x17
    2260:	f1 2e       	mov	r15, r17
    2262:	00 e0       	ldi	r16, 0x00	; 0
		for(uint8_t i=0; i < buffersize;i++){
			oled->draw_ASCI(buffer[i],i*charsize,8);
    2264:	e3 e0       	ldi	r30, 0x03	; 3
    2266:	f0 e0       	ldi	r31, 0x00	; 0
    2268:	ec 0f       	add	r30, r28
    226a:	fd 1f       	adc	r31, r29
    226c:	e0 0f       	add	r30, r16
    226e:	f1 1d       	adc	r31, r1
    2270:	28 e0       	ldi	r18, 0x08	; 8
    2272:	4f 2d       	mov	r20, r15
    2274:	60 81       	ld	r22, Z
    2276:	88 8d       	ldd	r24, Y+24	; 0x18
    2278:	99 8d       	ldd	r25, Y+25	; 0x19
    227a:	0e 94 1c 04 	call	0x838	; 0x838 <_ZN7Display9draw_ASCIEhhh>
		buffersize=sprintf(buffer,"Fahradcomputer");
		for(uint8_t i=0; i < buffersize;i++){
			oled->draw_ASCI(buffer[i],i*charsize,0);
		}
		buffersize=sprintf(buffer,"--------------");
		for(uint8_t i=0; i < buffersize;i++){
    227e:	0f 5f       	subi	r16, 0xFF	; 255
    2280:	36 e0       	ldi	r19, 0x06	; 6
    2282:	f3 0e       	add	r15, r19
    2284:	8f 89       	ldd	r24, Y+23	; 0x17
    2286:	08 17       	cp	r16, r24
    2288:	68 f3       	brcs	.-38     	; 0x2264 <_Z15initialisierungv+0x162>
			oled->draw_ASCI(buffer[i],i*charsize,8);
		}
		buffersize=sprintf(buffer,"Version: %.2f",(double)VERSIONSNUMMER);
    228a:	80 e4       	ldi	r24, 0x40	; 64
    228c:	8f 93       	push	r24
    228e:	81 e4       	ldi	r24, 0x41	; 65
    2290:	8f 93       	push	r24
    2292:	87 e4       	ldi	r24, 0x47	; 71
    2294:	8f 93       	push	r24
    2296:	8e ea       	ldi	r24, 0xAE	; 174
    2298:	8f 93       	push	r24
    229a:	84 e2       	ldi	r24, 0x24	; 36
    229c:	91 e0       	ldi	r25, 0x01	; 1
    229e:	9f 93       	push	r25
    22a0:	8f 93       	push	r24
    22a2:	ce 01       	movw	r24, r28
    22a4:	03 96       	adiw	r24, 0x03	; 3
    22a6:	9f 93       	push	r25
    22a8:	8f 93       	push	r24
    22aa:	0e 94 21 28 	call	0x5042	; 0x5042 <sprintf>
    22ae:	8f 8b       	std	Y+23, r24	; 0x17
		for(uint8_t i=0; i < buffersize;i++){
    22b0:	0f b6       	in	r0, 0x3f	; 63
    22b2:	f8 94       	cli
    22b4:	de bf       	out	0x3e, r29	; 62
    22b6:	0f be       	out	0x3f, r0	; 63
    22b8:	cd bf       	out	0x3d, r28	; 61
    22ba:	88 23       	and	r24, r24
    22bc:	99 f0       	breq	.+38     	; 0x22e4 <_Z15initialisierungv+0x1e2>
    22be:	00 e0       	ldi	r16, 0x00	; 0
			oled->draw_ASCI(buffer[i],i*charsize,32);
    22c0:	e3 e0       	ldi	r30, 0x03	; 3
    22c2:	f0 e0       	ldi	r31, 0x00	; 0
    22c4:	ec 0f       	add	r30, r28
    22c6:	fd 1f       	adc	r31, r29
    22c8:	e0 0f       	add	r30, r16
    22ca:	f1 1d       	adc	r31, r1
    22cc:	20 e2       	ldi	r18, 0x20	; 32
    22ce:	41 2f       	mov	r20, r17
    22d0:	60 81       	ld	r22, Z
    22d2:	88 8d       	ldd	r24, Y+24	; 0x18
    22d4:	99 8d       	ldd	r25, Y+25	; 0x19
    22d6:	0e 94 1c 04 	call	0x838	; 0x838 <_ZN7Display9draw_ASCIEhhh>
		buffersize=sprintf(buffer,"--------------");
		for(uint8_t i=0; i < buffersize;i++){
			oled->draw_ASCI(buffer[i],i*charsize,8);
		}
		buffersize=sprintf(buffer,"Version: %.2f",(double)VERSIONSNUMMER);
		for(uint8_t i=0; i < buffersize;i++){
    22da:	0f 5f       	subi	r16, 0xFF	; 255
    22dc:	1a 5f       	subi	r17, 0xFA	; 250
    22de:	8f 89       	ldd	r24, Y+23	; 0x17
    22e0:	08 17       	cp	r16, r24
    22e2:	70 f3       	brcs	.-36     	; 0x22c0 <_Z15initialisierungv+0x1be>
		oled->clearFrame();
	}

	//send the frame to the display
	void send(){
		oled->sendFrame();	
    22e4:	88 8d       	ldd	r24, Y+24	; 0x18
    22e6:	99 8d       	ldd	r25, Y+25	; 0x19
    22e8:	0e 94 7e 03 	call	0x6fc	; 0x6fc <_ZN7Display9sendFrameEv>
    22ec:	8a e0       	ldi	r24, 0x0A	; 10
	#else
		//round up by default
		__ticks_dc = (uint32_t)(ceil(fabs(__tmp)));
	#endif

	__builtin_avr_delay_cycles(__ticks_dc);
    22ee:	ff e7       	ldi	r31, 0x7F	; 127
    22f0:	28 e3       	ldi	r18, 0x38	; 56
    22f2:	31 e0       	ldi	r19, 0x01	; 1
    22f4:	f1 50       	subi	r31, 0x01	; 1
    22f6:	20 40       	sbci	r18, 0x00	; 0
    22f8:	30 40       	sbci	r19, 0x00	; 0
    22fa:	e1 f7       	brne	.-8      	; 0x22f4 <_Z15initialisierungv+0x1f2>
    22fc:	00 c0       	rjmp	.+0      	; 0x22fe <_Z15initialisierungv+0x1fc>
    22fe:	00 00       	nop
    2300:	9f e7       	ldi	r25, 0x7F	; 127
    2302:	e8 e3       	ldi	r30, 0x38	; 56
    2304:	f1 e0       	ldi	r31, 0x01	; 1
    2306:	91 50       	subi	r25, 0x01	; 1
    2308:	e0 40       	sbci	r30, 0x00	; 0
    230a:	f0 40       	sbci	r31, 0x00	; 0
    230c:	e1 f7       	brne	.-8      	; 0x2306 <_Z15initialisierungv+0x204>
    230e:	00 c0       	rjmp	.+0      	; 0x2310 <_Z15initialisierungv+0x20e>
    2310:	00 00       	nop
    2312:	81 50       	subi	r24, 0x01	; 1
	
	//Wilkommensanzeige
	wilkommen wil(&oled,&rtc);
	wil.draw();
	for (uint8_t i=0; i<10;i++)
    2314:	61 f7       	brne	.-40     	; 0x22ee <_Z15initialisierungv+0x1ec>
		_delay_ms(50);
		_delay_ms(50);
	}

	//letzten Zeitpunkt holen und RTC starten
	rtc.Sekunden= 0;
    2316:	0c e3       	ldi	r16, 0x3C	; 60
    2318:	18 e0       	ldi	r17, 0x08	; 8
    231a:	f8 01       	movw	r30, r16
    231c:	12 8a       	std	Z+18, r1	; 0x12
	rtc.Minuten	= EEPROM_Read(EEMINUTEN);
    231e:	80 e0       	ldi	r24, 0x00	; 0
    2320:	90 e0       	ldi	r25, 0x00	; 0
    2322:	9d dd       	rcall	.-1222   	; 0x1e5e <_Z11EEPROM_Readj>
    2324:	f8 01       	movw	r30, r16
    2326:	81 8b       	std	Z+17, r24	; 0x11
	rtc.Stunden	= EEPROM_Read(EESTUNDEN);
    2328:	81 e0       	ldi	r24, 0x01	; 1
    232a:	90 e0       	ldi	r25, 0x00	; 0
    232c:	98 dd       	rcall	.-1232   	; 0x1e5e <_Z11EEPROM_Readj>
    232e:	f8 01       	movw	r30, r16
    2330:	80 8b       	std	Z+16, r24	; 0x10
	rtc.Tag		= EEPROM_Read(EETAGE);
    2332:	82 e0       	ldi	r24, 0x02	; 2
    2334:	90 e0       	ldi	r25, 0x00	; 0
    2336:	93 dd       	rcall	.-1242   	; 0x1e5e <_Z11EEPROM_Readj>
    2338:	f8 01       	movw	r30, r16
    233a:	84 8b       	std	Z+20, r24	; 0x14
	rtc.Monat	= EEPROM_Read(EEMONAT);
    233c:	83 e0       	ldi	r24, 0x03	; 3
    233e:	90 e0       	ldi	r25, 0x00	; 0
    2340:	8e dd       	rcall	.-1252   	; 0x1e5e <_Z11EEPROM_Readj>
    2342:	f8 01       	movw	r30, r16
    2344:	86 8b       	std	Z+22, r24	; 0x16
	rtc.Jahr	= EEPROM_Read(EEJAHR);
    2346:	84 e0       	ldi	r24, 0x04	; 4
    2348:	90 e0       	ldi	r25, 0x00	; 0
    234a:	89 dd       	rcall	.-1262   	; 0x1e5e <_Z11EEPROM_Readj>
    234c:	f8 01       	movw	r30, r16
    234e:	87 8b       	std	Z+23, r24	; 0x17
	rtc.ausgabedatumneu();
    2350:	c8 01       	movw	r24, r16
    2352:	0e 94 3c 1e 	call	0x3c78	; 0x3c78 <_ZN3RTC15ausgabedatumneuEv>
	rtc.RTCstart();
    2356:	c8 01       	movw	r24, r16
    2358:	0e 94 1d 1f 	call	0x3e3a	; 0x3e3a <_ZN3RTC8RTCstartEv>
	
	//USART aktivieren jetzt nur hier zum testen
	UCSR0B |= (1<<RXEN0);
    235c:	e1 ec       	ldi	r30, 0xC1	; 193
    235e:	f0 e0       	ldi	r31, 0x00	; 0
    2360:	80 81       	ld	r24, Z
    2362:	80 61       	ori	r24, 0x10	; 16
    2364:	80 83       	st	Z, r24
	
	sei();
    2366:	78 94       	sei
}
    2368:	a9 96       	adiw	r28, 0x29	; 41
    236a:	0f b6       	in	r0, 0x3f	; 63
    236c:	f8 94       	cli
    236e:	de bf       	out	0x3e, r29	; 62
    2370:	0f be       	out	0x3f, r0	; 63
    2372:	cd bf       	out	0x3d, r28	; 61
    2374:	df 91       	pop	r29
    2376:	cf 91       	pop	r28
    2378:	1f 91       	pop	r17
    237a:	0f 91       	pop	r16
    237c:	ff 90       	pop	r15
    237e:	08 95       	ret

00002380 <_Z19maininterupthandlerP7monitorh>:

void maininterupthandler(monitor *mon, uint8_t taste){
    2380:	cf 92       	push	r12
    2382:	df 92       	push	r13
    2384:	ef 92       	push	r14
    2386:	ff 92       	push	r15
    2388:	0f 93       	push	r16
    238a:	1f 93       	push	r17
    238c:	cf 93       	push	r28
    238e:	df 93       	push	r29
    2390:	1f 92       	push	r1
    2392:	cd b7       	in	r28, 0x3d	; 61
    2394:	de b7       	in	r29, 0x3e	; 62
    2396:	8c 01       	movw	r16, r24
    2398:	69 83       	std	Y+1, r22	; 0x01
	if (taste!=' ')
    239a:	60 32       	cpi	r22, 0x20	; 32
    239c:	09 f4       	brne	.+2      	; 0x23a0 <_Z19maininterupthandlerP7monitorh+0x20>
    239e:	87 c0       	rjmp	.+270    	; 0x24ae <_Z19maininterupthandlerP7monitorh+0x12e>
	{
		anzeige |= (1<<refreshdisplay);
    23a0:	80 91 37 03 	lds	r24, 0x0337
    23a4:	81 60       	ori	r24, 0x01	; 1
    23a6:	80 93 37 03 	sts	0x0337, r24
		switch (taste)							//Tastendruck ueberpruefen
    23aa:	46 2f       	mov	r20, r22
    23ac:	50 e0       	ldi	r21, 0x00	; 0
    23ae:	fa 01       	movw	r30, r20
    23b0:	f0 97       	sbiw	r30, 0x30	; 48
    23b2:	e6 34       	cpi	r30, 0x46	; 70
    23b4:	f1 05       	cpc	r31, r1
    23b6:	08 f0       	brcs	.+2      	; 0x23ba <_Z19maininterupthandlerP7monitorh+0x3a>
    23b8:	6f c0       	rjmp	.+222    	; 0x2498 <_Z19maininterupthandlerP7monitorh+0x118>
    23ba:	e3 5a       	subi	r30, 0xA3	; 163
    23bc:	ff 4f       	sbci	r31, 0xFF	; 255
    23be:	0c 94 c5 25 	jmp	0x4b8a	; 0x4b8a <__tablejump2__>
		{
			case 'm':
				position = numberofpages;
    23c2:	85 e0       	ldi	r24, 0x05	; 5
    23c4:	80 93 35 03 	sts	0x0335, r24
				break;
    23c8:	95 c0       	rjmp	.+298    	; 0x24f4 <_Z19maininterupthandlerP7monitorh+0x174>
			case 'l':
				if (mon->posx==0)
    23ca:	d8 01       	movw	r26, r16
    23cc:	96 96       	adiw	r26, 0x26	; 38
    23ce:	8c 91       	ld	r24, X
    23d0:	81 11       	cpse	r24, r1
    23d2:	04 c0       	rjmp	.+8      	; 0x23dc <_Z19maininterupthandlerP7monitorh+0x5c>
				{
					position = numberofpages;
    23d4:	85 e0       	ldi	r24, 0x05	; 5
    23d6:	80 93 35 03 	sts	0x0335, r24
    23da:	8c c0       	rjmp	.+280    	; 0x24f4 <_Z19maininterupthandlerP7monitorh+0x174>
				}
				else{
					mon->posx--;
    23dc:	81 50       	subi	r24, 0x01	; 1
    23de:	f8 01       	movw	r30, r16
    23e0:	86 a3       	std	Z+38, r24	; 0x26
    23e2:	65 c0       	rjmp	.+202    	; 0x24ae <_Z19maininterupthandlerP7monitorh+0x12e>
				}
				break;
			case 'r':
				if (position==numberofpages)
    23e4:	80 91 35 03 	lds	r24, 0x0335
    23e8:	85 30       	cpi	r24, 0x05	; 5
    23ea:	31 f4       	brne	.+12     	; 0x23f8 <_Z19maininterupthandlerP7monitorh+0x78>
				{
					position=mon->posy;
    23ec:	d8 01       	movw	r26, r16
    23ee:	95 96       	adiw	r26, 0x25	; 37
    23f0:	8c 91       	ld	r24, X
    23f2:	80 93 35 03 	sts	0x0335, r24
    23f6:	5b c0       	rjmp	.+182    	; 0x24ae <_Z19maininterupthandlerP7monitorh+0x12e>
				}
				else if (!(mon->posx >= mon->maxentriesx))
    23f8:	f8 01       	movw	r30, r16
    23fa:	86 a1       	ldd	r24, Z+38	; 0x26
    23fc:	90 a5       	ldd	r25, Z+40	; 0x28
    23fe:	89 17       	cp	r24, r25
    2400:	08 f0       	brcs	.+2      	; 0x2404 <_Z19maininterupthandlerP7monitorh+0x84>
    2402:	55 c0       	rjmp	.+170    	; 0x24ae <_Z19maininterupthandlerP7monitorh+0x12e>
				{
					mon->posx++;
    2404:	8f 5f       	subi	r24, 0xFF	; 255
    2406:	86 a3       	std	Z+38, r24	; 0x26
    2408:	52 c0       	rjmp	.+164    	; 0x24ae <_Z19maininterupthandlerP7monitorh+0x12e>
				}
				break;
				case 'o':
					if (position==numberofpages)
    240a:	80 91 35 03 	lds	r24, 0x0335
    240e:	85 30       	cpi	r24, 0x05	; 5
    2410:	31 f4       	brne	.+12     	; 0x241e <_Z19maininterupthandlerP7monitorh+0x9e>
					{
						position=mon->posy;
    2412:	d8 01       	movw	r26, r16
    2414:	95 96       	adiw	r26, 0x25	; 37
    2416:	8c 91       	ld	r24, X
    2418:	80 93 35 03 	sts	0x0335, r24
    241c:	48 c0       	rjmp	.+144    	; 0x24ae <_Z19maininterupthandlerP7monitorh+0x12e>
					}
					else if (!(mon->posx >= mon->maxentriesx))
    241e:	f8 01       	movw	r30, r16
    2420:	86 a1       	ldd	r24, Z+38	; 0x26
    2422:	90 a5       	ldd	r25, Z+40	; 0x28
    2424:	89 17       	cp	r24, r25
    2426:	08 f0       	brcs	.+2      	; 0x242a <_Z19maininterupthandlerP7monitorh+0xaa>
    2428:	42 c0       	rjmp	.+132    	; 0x24ae <_Z19maininterupthandlerP7monitorh+0x12e>
					{
						mon->posx++;
    242a:	8f 5f       	subi	r24, 0xFF	; 255
    242c:	86 a3       	std	Z+38, r24	; 0x26
    242e:	3f c0       	rjmp	.+126    	; 0x24ae <_Z19maininterupthandlerP7monitorh+0x12e>
					}
					break;
			case 'd':
				if (!(mon->posy >= mon->maxentries-1))
    2430:	d8 01       	movw	r26, r16
    2432:	95 96       	adiw	r26, 0x25	; 37
    2434:	2c 91       	ld	r18, X
    2436:	95 97       	sbiw	r26, 0x25	; 37
    2438:	42 2f       	mov	r20, r18
    243a:	50 e0       	ldi	r21, 0x00	; 0
    243c:	97 96       	adiw	r26, 0x27	; 39
    243e:	8c 91       	ld	r24, X
    2440:	97 97       	sbiw	r26, 0x27	; 39
    2442:	90 e0       	ldi	r25, 0x00	; 0
    2444:	01 97       	sbiw	r24, 0x01	; 1
    2446:	48 17       	cp	r20, r24
    2448:	59 07       	cpc	r21, r25
    244a:	24 f4       	brge	.+8      	; 0x2454 <_Z19maininterupthandlerP7monitorh+0xd4>
				{
					mon->posy++;
    244c:	2f 5f       	subi	r18, 0xFF	; 255
    244e:	95 96       	adiw	r26, 0x25	; 37
    2450:	2c 93       	st	X, r18
    2452:	2d c0       	rjmp	.+90     	; 0x24ae <_Z19maininterupthandlerP7monitorh+0x12e>
				}
				else{
					mon->posy = 0;
    2454:	f8 01       	movw	r30, r16
    2456:	15 a2       	std	Z+37, r1	; 0x25
    2458:	2a c0       	rjmp	.+84     	; 0x24ae <_Z19maininterupthandlerP7monitorh+0x12e>
				}
				break;
			case 'u':
				if (!(mon->posy == 0))
    245a:	d8 01       	movw	r26, r16
    245c:	95 96       	adiw	r26, 0x25	; 37
    245e:	8c 91       	ld	r24, X
    2460:	95 97       	sbiw	r26, 0x25	; 37
    2462:	88 23       	and	r24, r24
    2464:	21 f0       	breq	.+8      	; 0x246e <_Z19maininterupthandlerP7monitorh+0xee>
				{
					mon->posy--;
    2466:	81 50       	subi	r24, 0x01	; 1
    2468:	95 96       	adiw	r26, 0x25	; 37
    246a:	8c 93       	st	X, r24
    246c:	20 c0       	rjmp	.+64     	; 0x24ae <_Z19maininterupthandlerP7monitorh+0x12e>
				}
				else{
					mon->posy=mon->maxentries-1;
    246e:	f8 01       	movw	r30, r16
    2470:	87 a1       	ldd	r24, Z+39	; 0x27
    2472:	81 50       	subi	r24, 0x01	; 1
    2474:	85 a3       	std	Z+37, r24	; 0x25
    2476:	1b c0       	rjmp	.+54     	; 0x24ae <_Z19maininterupthandlerP7monitorh+0x12e>
				}
				break;
			case '0':
				//Licht an/aus
				if (LED.ison())
    2478:	8e e3       	ldi	r24, 0x3E	; 62
    247a:	93 e0       	ldi	r25, 0x03	; 3
    247c:	0e 94 75 1d 	call	0x3aea	; 0x3aea <_ZN6Output4isonEv>
    2480:	88 23       	and	r24, r24
    2482:	29 f0       	breq	.+10     	; 0x248e <_Z19maininterupthandlerP7monitorh+0x10e>
				{
					LED.off();
    2484:	8e e3       	ldi	r24, 0x3E	; 62
    2486:	93 e0       	ldi	r25, 0x03	; 3
    2488:	0e 94 b0 1d 	call	0x3b60	; 0x3b60 <_ZN6Output3offEv>
    248c:	10 c0       	rjmp	.+32     	; 0x24ae <_Z19maininterupthandlerP7monitorh+0x12e>
				}
				else{
					LED.on();
    248e:	8e e3       	ldi	r24, 0x3E	; 62
    2490:	93 e0       	ldi	r25, 0x03	; 3
    2492:	0e 94 38 1d 	call	0x3a70	; 0x3a70 <_ZN6Output2onEv>
    2496:	0b c0       	rjmp	.+22     	; 0x24ae <_Z19maininterupthandlerP7monitorh+0x12e>
				}
				break;
			default:
				//alle anderen Tasten werden an den jeweiligen Handler weiter gegeben
				mon->tastendruck(&taste);
    2498:	d8 01       	movw	r26, r16
    249a:	ed 91       	ld	r30, X+
    249c:	fc 91       	ld	r31, X
    249e:	01 90       	ld	r0, Z+
    24a0:	f0 81       	ld	r31, Z
    24a2:	e0 2d       	mov	r30, r0
    24a4:	be 01       	movw	r22, r28
    24a6:	6f 5f       	subi	r22, 0xFF	; 255
    24a8:	7f 4f       	sbci	r23, 0xFF	; 255
    24aa:	c8 01       	movw	r24, r16
    24ac:	09 95       	icall
				break;
		}
	}
	
	if (position==1)							//Berechnung der Geschwindigkeit fuer Tacho
    24ae:	80 91 35 03 	lds	r24, 0x0335
    24b2:	81 30       	cpi	r24, 0x01	; 1
    24b4:	f9 f4       	brne	.+62     	; 0x24f4 <_Z19maininterupthandlerP7monitorh+0x174>
	{
		//debounce Funktion fuer den Reedswitch
		if (reed_debounce(&PINA,PINA7))
    24b6:	67 e0       	ldi	r22, 0x07	; 7
    24b8:	80 e2       	ldi	r24, 0x20	; 32
    24ba:	90 e0       	ldi	r25, 0x00	; 0
    24bc:	94 dd       	rcall	.-1240   	; 0x1fe6 <_Z13reed_debouncePVhh>
    24be:	88 23       	and	r24, r24
    24c0:	31 f0       	breq	.+12     	; 0x24ce <_Z19maininterupthandlerP7monitorh+0x14e>
		{
			//Durchmesser ist 28 Zoll
			geschwindigkeit(28.0*2.54/100.0);
    24c2:	63 e3       	ldi	r22, 0x33	; 51
    24c4:	71 e1       	ldi	r23, 0x11	; 17
    24c6:	86 e3       	ldi	r24, 0x36	; 54
    24c8:	9f e3       	ldi	r25, 0x3F	; 63
    24ca:	b2 dd       	rcall	.-1180   	; 0x2030 <_Z15geschwindigkeitf>
    24cc:	13 c0       	rjmp	.+38     	; 0x24f4 <_Z19maininterupthandlerP7monitorh+0x174>
		}
		//Hier mit werden geschwindigkeiten, die kleiner als 2.6km/h betragen gefiltert
		//Somit wird die letzte Geschwindigkeit nach 3 Sekunden geloescht
		//Das ist noch nicht die beste Variante
		else if (TCNT1>23437)
    24ce:	80 91 84 00 	lds	r24, 0x0084
    24d2:	90 91 85 00 	lds	r25, 0x0085
    24d6:	8e 38       	cpi	r24, 0x8E	; 142
    24d8:	9b 45       	sbci	r25, 0x5B	; 91
    24da:	60 f0       	brcs	.+24     	; 0x24f4 <_Z19maininterupthandlerP7monitorh+0x174>
		{
			TCNT1=0;
    24dc:	10 92 85 00 	sts	0x0085, r1
    24e0:	10 92 84 00 	sts	0x0084, r1
			geschw=0;
    24e4:	10 92 d4 02 	sts	0x02D4, r1
    24e8:	10 92 d5 02 	sts	0x02D5, r1
    24ec:	10 92 d6 02 	sts	0x02D6, r1
    24f0:	10 92 d7 02 	sts	0x02D7, r1
	if (statusreg&(1<<updaterate))				//24 FPS fuer schnelle anzeigen
	{
		//anzeige &= (1<<refreshdisplay);
	}
	
	if ((rtc.interupts&(1<<sekundeninterupt)))	//Sekunden
    24f4:	80 91 54 08 	lds	r24, 0x0854
    24f8:	81 ff       	sbrs	r24, 1
    24fa:	6a c0       	rjmp	.+212    	; 0x25d0 <_Z19maininterupthandlerP7monitorh+0x250>
	{
		rtc.zeit();
    24fc:	8c e3       	ldi	r24, 0x3C	; 60
    24fe:	98 e0       	ldi	r25, 0x08	; 8
    2500:	0e 94 e2 1e 	call	0x3dc4	; 0x3dc4 <_ZN3RTC4zeitEv>
		if (position==1)
    2504:	80 91 35 03 	lds	r24, 0x0335
    2508:	81 30       	cpi	r24, 0x01	; 1
    250a:	09 f0       	breq	.+2      	; 0x250e <_Z19maininterupthandlerP7monitorh+0x18e>
    250c:	57 c0       	rjmp	.+174    	; 0x25bc <_Z19maininterupthandlerP7monitorh+0x23c>
		{
			if (geschw>maxgeschw)
    250e:	c0 90 d4 02 	lds	r12, 0x02D4
    2512:	d0 90 d5 02 	lds	r13, 0x02D5
    2516:	e0 90 d6 02 	lds	r14, 0x02D6
    251a:	f0 90 d7 02 	lds	r15, 0x02D7
    251e:	20 91 cc 02 	lds	r18, 0x02CC
    2522:	30 91 cd 02 	lds	r19, 0x02CD
    2526:	40 91 ce 02 	lds	r20, 0x02CE
    252a:	50 91 cf 02 	lds	r21, 0x02CF
    252e:	c7 01       	movw	r24, r14
    2530:	b6 01       	movw	r22, r12
    2532:	0e 94 8f 21 	call	0x431e	; 0x431e <__gesf2>
    2536:	18 16       	cp	r1, r24
    2538:	44 f4       	brge	.+16     	; 0x254a <_Z19maininterupthandlerP7monitorh+0x1ca>
			{
				maxgeschw=geschw;
    253a:	c0 92 cc 02 	sts	0x02CC, r12
    253e:	d0 92 cd 02 	sts	0x02CD, r13
    2542:	e0 92 ce 02 	sts	0x02CE, r14
    2546:	f0 92 cf 02 	sts	0x02CF, r15
			}
			if (geschw >= 1.0)
    254a:	20 e0       	ldi	r18, 0x00	; 0
    254c:	30 e0       	ldi	r19, 0x00	; 0
    254e:	40 e8       	ldi	r20, 0x80	; 128
    2550:	5f e3       	ldi	r21, 0x3F	; 63
    2552:	c7 01       	movw	r24, r14
    2554:	b6 01       	movw	r22, r12
    2556:	0e 94 8f 21 	call	0x431e	; 0x431e <__gesf2>
    255a:	88 23       	and	r24, r24
    255c:	9c f0       	brlt	.+38     	; 0x2584 <_Z19maininterupthandlerP7monitorh+0x204>
			{
				Fahrtzeit++;
    255e:	80 91 c8 02 	lds	r24, 0x02C8
    2562:	90 91 c9 02 	lds	r25, 0x02C9
    2566:	a0 91 ca 02 	lds	r26, 0x02CA
    256a:	b0 91 cb 02 	lds	r27, 0x02CB
    256e:	01 96       	adiw	r24, 0x01	; 1
    2570:	a1 1d       	adc	r26, r1
    2572:	b1 1d       	adc	r27, r1
    2574:	80 93 c8 02 	sts	0x02C8, r24
    2578:	90 93 c9 02 	sts	0x02C9, r25
    257c:	a0 93 ca 02 	sts	0x02CA, r26
    2580:	b0 93 cb 02 	sts	0x02CB, r27
			}
			strecke+=geschw/3.6;
    2584:	26 e6       	ldi	r18, 0x66	; 102
    2586:	36 e6       	ldi	r19, 0x66	; 102
    2588:	46 e6       	ldi	r20, 0x66	; 102
    258a:	50 e4       	ldi	r21, 0x40	; 64
    258c:	c7 01       	movw	r24, r14
    258e:	b6 01       	movw	r22, r12
    2590:	0e 94 e6 1f 	call	0x3fcc	; 0x3fcc <__divsf3>
    2594:	9b 01       	movw	r18, r22
    2596:	ac 01       	movw	r20, r24
    2598:	60 91 d0 02 	lds	r22, 0x02D0
    259c:	70 91 d1 02 	lds	r23, 0x02D1
    25a0:	80 91 d2 02 	lds	r24, 0x02D2
    25a4:	90 91 d3 02 	lds	r25, 0x02D3
    25a8:	0e 94 7f 1f 	call	0x3efe	; 0x3efe <__addsf3>
    25ac:	60 93 d0 02 	sts	0x02D0, r22
    25b0:	70 93 d1 02 	sts	0x02D1, r23
    25b4:	80 93 d2 02 	sts	0x02D2, r24
    25b8:	90 93 d3 02 	sts	0x02D3, r25
		}
		
		anzeige |= (1<<refreshdisplay);
    25bc:	80 91 37 03 	lds	r24, 0x0337
    25c0:	81 60       	ori	r24, 0x01	; 1
    25c2:	80 93 37 03 	sts	0x0337, r24
		rtc.interupts &= ~(1<<sekundeninterupt);
    25c6:	ec e3       	ldi	r30, 0x3C	; 60
    25c8:	f8 e0       	ldi	r31, 0x08	; 8
    25ca:	80 8d       	ldd	r24, Z+24	; 0x18
    25cc:	8d 7f       	andi	r24, 0xFD	; 253
    25ce:	80 8f       	std	Z+24, r24	; 0x18
	}
	if ((rtc.interupts&(1<<minuteninterupt)))		//Minuten
    25d0:	80 91 54 08 	lds	r24, 0x0854
    25d4:	82 ff       	sbrs	r24, 2
    25d6:	08 c0       	rjmp	.+16     	; 0x25e8 <_Z19maininterupthandlerP7monitorh+0x268>
	{
		anzeige |= (1<<refreshdisplay);
    25d8:	90 91 37 03 	lds	r25, 0x0337
    25dc:	91 60       	ori	r25, 0x01	; 1
    25de:	90 93 37 03 	sts	0x0337, r25
		rtc.interupts &= ~(1<<minuteninterupt);
    25e2:	8b 7f       	andi	r24, 0xFB	; 251
    25e4:	80 93 54 08 	sts	0x0854, r24
	}
	
	if ((anzeige&(1<<refreshdisplay)))			//Anzeige aktualieseren
    25e8:	80 91 37 03 	lds	r24, 0x0337
    25ec:	80 ff       	sbrs	r24, 0
    25ee:	0d c0       	rjmp	.+26     	; 0x260a <_Z19maininterupthandlerP7monitorh+0x28a>
	{
		//Hier aktuelle seite neu ausgeben
		mon->draw();
    25f0:	d8 01       	movw	r26, r16
    25f2:	ed 91       	ld	r30, X+
    25f4:	fc 91       	ld	r31, X
    25f6:	02 80       	ldd	r0, Z+2	; 0x02
    25f8:	f3 81       	ldd	r31, Z+3	; 0x03
    25fa:	e0 2d       	mov	r30, r0
    25fc:	c8 01       	movw	r24, r16
    25fe:	09 95       	icall
		anzeige &= ~(1<<refreshdisplay);
    2600:	80 91 37 03 	lds	r24, 0x0337
    2604:	8e 7f       	andi	r24, 0xFE	; 254
    2606:	80 93 37 03 	sts	0x0337, r24
		{
			anzeige |= (1<<blinkflag) | (1<<refreshdisplay);
			rtc.interupts &= ~(1<<Weckerein);
		}
	}*/
}
    260a:	0f 90       	pop	r0
    260c:	df 91       	pop	r29
    260e:	cf 91       	pop	r28
    2610:	1f 91       	pop	r17
    2612:	0f 91       	pop	r16
    2614:	ff 90       	pop	r15
    2616:	ef 90       	pop	r14
    2618:	df 90       	pop	r13
    261a:	cf 90       	pop	r12
    261c:	08 95       	ret

0000261e <_Z10gpshandlerv>:

void gpshandler(){
    261e:	4f 92       	push	r4
    2620:	5f 92       	push	r5
    2622:	6f 92       	push	r6
    2624:	7f 92       	push	r7
    2626:	8f 92       	push	r8
    2628:	9f 92       	push	r9
    262a:	af 92       	push	r10
    262c:	bf 92       	push	r11
    262e:	ef 92       	push	r14
    2630:	ff 92       	push	r15
    2632:	1f 93       	push	r17
    2634:	cf 93       	push	r28
    2636:	df 93       	push	r29
    2638:	00 d0       	rcall	.+0      	; 0x263a <_Z10gpshandlerv+0x1c>
    263a:	00 d0       	rcall	.+0      	; 0x263c <_Z10gpshandlerv+0x1e>
    263c:	cd b7       	in	r28, 0x3d	; 61
    263e:	de b7       	in	r29, 0x3e	; 62
	if ((gpsstatus&(1<<complete)) && (gpsstatus&(1<<fix)))
    2640:	10 91 33 03 	lds	r17, 0x0333
    2644:	12 ff       	sbrs	r17, 2
    2646:	40 c2       	rjmp	.+1152   	; 0x2ac8 <_Z10gpshandlerv+0x4aa>
    2648:	11 23       	and	r17, r17
    264a:	0c f0       	brlt	.+2      	; 0x264e <_Z10gpshandlerv+0x30>
    264c:	c8 c2       	rjmp	.+1424   	; 0x2bde <_Z10gpshandlerv+0x5c0>
	{
		//brechnung von Latitutde, Longitude, Zeit und Datum
		//Zeit
		gpsstunde =		(gpsdata[7] - '0')*10;
		gpsstunde +=	(gpsdata[8] - '0');
    264e:	0f 2e       	mov	r0, r31
    2650:	fb ee       	ldi	r31, 0xEB	; 235
    2652:	ef 2e       	mov	r14, r31
    2654:	f2 e0       	ldi	r31, 0x02	; 2
    2656:	ff 2e       	mov	r15, r31
    2658:	f0 2d       	mov	r31, r0
    265a:	f7 01       	movw	r30, r14
    265c:	80 85       	ldd	r24, Z+8	; 0x08
    265e:	21 ed       	ldi	r18, 0xD1	; 209
    2660:	28 0f       	add	r18, r24
void gpshandler(){
	if ((gpsstatus&(1<<complete)) && (gpsstatus&(1<<fix)))
	{
		//brechnung von Latitutde, Longitude, Zeit und Datum
		//Zeit
		gpsstunde =		(gpsdata[7] - '0')*10;
    2662:	87 81       	ldd	r24, Z+7	; 0x07
    2664:	88 0f       	add	r24, r24
    2666:	80 56       	subi	r24, 0x60	; 96
    2668:	98 2f       	mov	r25, r24
    266a:	99 0f       	add	r25, r25
    266c:	99 0f       	add	r25, r25
    266e:	89 0f       	add	r24, r25
		gpsstunde +=	(gpsdata[8] - '0');
		gpsstunde += GMT;
    2670:	82 0f       	add	r24, r18
    2672:	80 93 dd 02 	sts	0x02DD, r24
    2676:	82 85       	ldd	r24, Z+10	; 0x0a
    2678:	20 ed       	ldi	r18, 0xD0	; 208
    267a:	28 0f       	add	r18, r24
		gpsminute =		(gpsdata[9] - '0')*10;
    267c:	81 85       	ldd	r24, Z+9	; 0x09
    267e:	88 0f       	add	r24, r24
    2680:	80 56       	subi	r24, 0x60	; 96
    2682:	98 2f       	mov	r25, r24
    2684:	99 0f       	add	r25, r25
    2686:	99 0f       	add	r25, r25
    2688:	89 0f       	add	r24, r25
		gpsminute +=	(gpsdata[10] - '0');
    268a:	82 0f       	add	r24, r18
    268c:	80 93 dc 02 	sts	0x02DC, r24
    2690:	84 85       	ldd	r24, Z+12	; 0x0c
    2692:	20 ed       	ldi	r18, 0xD0	; 208
    2694:	28 0f       	add	r18, r24
		gpssekunde =	(gpsdata[11] - '0')*10;
    2696:	83 85       	ldd	r24, Z+11	; 0x0b
    2698:	88 0f       	add	r24, r24
    269a:	80 56       	subi	r24, 0x60	; 96
    269c:	98 2f       	mov	r25, r24
    269e:	99 0f       	add	r25, r25
    26a0:	99 0f       	add	r25, r25
    26a2:	89 0f       	add	r24, r25
		gpssekunde +=	(gpsdata[12] - '0');
    26a4:	82 0f       	add	r24, r18
    26a6:	80 93 db 02 	sts	0x02DB, r24
		
		//Latitude
		lat =	(gpsdata[20] - '0')*10;
		lat +=	(gpsdata[21] - '0');
		float latmin =	(gpsdata[22] - '0')*10;
    26aa:	86 89       	ldd	r24, Z+22	; 0x16
    26ac:	90 e0       	ldi	r25, 0x00	; 0
    26ae:	c0 97       	sbiw	r24, 0x30	; 48
    26b0:	bc 01       	movw	r22, r24
    26b2:	66 0f       	add	r22, r22
    26b4:	77 1f       	adc	r23, r23
    26b6:	88 0f       	add	r24, r24
    26b8:	99 1f       	adc	r25, r25
    26ba:	88 0f       	add	r24, r24
    26bc:	99 1f       	adc	r25, r25
    26be:	88 0f       	add	r24, r24
    26c0:	99 1f       	adc	r25, r25
    26c2:	68 0f       	add	r22, r24
    26c4:	79 1f       	adc	r23, r25
    26c6:	07 2e       	mov	r0, r23
    26c8:	00 0c       	add	r0, r0
    26ca:	88 0b       	sbc	r24, r24
    26cc:	99 0b       	sbc	r25, r25
    26ce:	0e 94 81 20 	call	0x4102	; 0x4102 <__floatsisf>
    26d2:	4b 01       	movw	r8, r22
    26d4:	5c 01       	movw	r10, r24
		latmin +=		(gpsdata[23] - '0');
    26d6:	f7 01       	movw	r30, r14
    26d8:	87 89       	ldd	r24, Z+23	; 0x17
    26da:	90 e0       	ldi	r25, 0x00	; 0
    26dc:	c0 97       	sbiw	r24, 0x30	; 48
    26de:	bc 01       	movw	r22, r24
    26e0:	99 0f       	add	r25, r25
    26e2:	88 0b       	sbc	r24, r24
    26e4:	99 0b       	sbc	r25, r25
    26e6:	0e 94 81 20 	call	0x4102	; 0x4102 <__floatsisf>
    26ea:	a5 01       	movw	r20, r10
    26ec:	94 01       	movw	r18, r8
    26ee:	0e 94 7f 1f 	call	0x3efe	; 0x3efe <__addsf3>
    26f2:	4b 01       	movw	r8, r22
    26f4:	5c 01       	movw	r10, r24
		latmin +=		(gpsdata[25] - '0')/10.0;
    26f6:	f7 01       	movw	r30, r14
    26f8:	81 8d       	ldd	r24, Z+25	; 0x19
    26fa:	90 e0       	ldi	r25, 0x00	; 0
    26fc:	c0 97       	sbiw	r24, 0x30	; 48
    26fe:	bc 01       	movw	r22, r24
    2700:	99 0f       	add	r25, r25
    2702:	88 0b       	sbc	r24, r24
    2704:	99 0b       	sbc	r25, r25
    2706:	0e 94 81 20 	call	0x4102	; 0x4102 <__floatsisf>
    270a:	20 e0       	ldi	r18, 0x00	; 0
    270c:	30 e0       	ldi	r19, 0x00	; 0
    270e:	40 e2       	ldi	r20, 0x20	; 32
    2710:	51 e4       	ldi	r21, 0x41	; 65
    2712:	0e 94 e6 1f 	call	0x3fcc	; 0x3fcc <__divsf3>
    2716:	a5 01       	movw	r20, r10
    2718:	94 01       	movw	r18, r8
    271a:	0e 94 7f 1f 	call	0x3efe	; 0x3efe <__addsf3>
    271e:	4b 01       	movw	r8, r22
    2720:	5c 01       	movw	r10, r24
		latmin +=		(gpsdata[26] - '0')/100.0;
    2722:	f7 01       	movw	r30, r14
    2724:	82 8d       	ldd	r24, Z+26	; 0x1a
    2726:	90 e0       	ldi	r25, 0x00	; 0
    2728:	c0 97       	sbiw	r24, 0x30	; 48
    272a:	bc 01       	movw	r22, r24
    272c:	99 0f       	add	r25, r25
    272e:	88 0b       	sbc	r24, r24
    2730:	99 0b       	sbc	r25, r25
    2732:	0e 94 81 20 	call	0x4102	; 0x4102 <__floatsisf>
    2736:	20 e0       	ldi	r18, 0x00	; 0
    2738:	30 e0       	ldi	r19, 0x00	; 0
    273a:	48 ec       	ldi	r20, 0xC8	; 200
    273c:	52 e4       	ldi	r21, 0x42	; 66
    273e:	0e 94 e6 1f 	call	0x3fcc	; 0x3fcc <__divsf3>
    2742:	a5 01       	movw	r20, r10
    2744:	94 01       	movw	r18, r8
    2746:	0e 94 7f 1f 	call	0x3efe	; 0x3efe <__addsf3>
    274a:	4b 01       	movw	r8, r22
    274c:	5c 01       	movw	r10, r24
		latmin +=		(gpsdata[27] - '0')/1000.0;
    274e:	f7 01       	movw	r30, r14
    2750:	83 8d       	ldd	r24, Z+27	; 0x1b
    2752:	90 e0       	ldi	r25, 0x00	; 0
    2754:	c0 97       	sbiw	r24, 0x30	; 48
    2756:	bc 01       	movw	r22, r24
    2758:	99 0f       	add	r25, r25
    275a:	88 0b       	sbc	r24, r24
    275c:	99 0b       	sbc	r25, r25
    275e:	0e 94 81 20 	call	0x4102	; 0x4102 <__floatsisf>
    2762:	20 e0       	ldi	r18, 0x00	; 0
    2764:	30 e0       	ldi	r19, 0x00	; 0
    2766:	4a e7       	ldi	r20, 0x7A	; 122
    2768:	54 e4       	ldi	r21, 0x44	; 68
    276a:	0e 94 e6 1f 	call	0x3fcc	; 0x3fcc <__divsf3>
    276e:	a5 01       	movw	r20, r10
    2770:	94 01       	movw	r18, r8
    2772:	0e 94 7f 1f 	call	0x3efe	; 0x3efe <__addsf3>
    2776:	4b 01       	movw	r8, r22
    2778:	5c 01       	movw	r10, r24
		gpsminute +=	(gpsdata[10] - '0');
		gpssekunde =	(gpsdata[11] - '0')*10;
		gpssekunde +=	(gpsdata[12] - '0');
		
		//Latitude
		lat =	(gpsdata[20] - '0')*10;
    277a:	f7 01       	movw	r30, r14
    277c:	44 89       	ldd	r20, Z+20	; 0x14
    277e:	50 e0       	ldi	r21, 0x00	; 0
    2780:	40 53       	subi	r20, 0x30	; 48
    2782:	51 09       	sbc	r21, r1
    2784:	ca 01       	movw	r24, r20
    2786:	88 0f       	add	r24, r24
    2788:	99 1f       	adc	r25, r25
    278a:	44 0f       	add	r20, r20
    278c:	55 1f       	adc	r21, r21
    278e:	44 0f       	add	r20, r20
    2790:	55 1f       	adc	r21, r21
    2792:	44 0f       	add	r20, r20
    2794:	55 1f       	adc	r21, r21
    2796:	84 0f       	add	r24, r20
    2798:	95 1f       	adc	r25, r21
    279a:	bc 01       	movw	r22, r24
    279c:	99 0f       	add	r25, r25
    279e:	88 0b       	sbc	r24, r24
    27a0:	99 0b       	sbc	r25, r25
    27a2:	0e 94 81 20 	call	0x4102	; 0x4102 <__floatsisf>
    27a6:	2b 01       	movw	r4, r22
    27a8:	3c 01       	movw	r6, r24
		lat +=	(gpsdata[21] - '0');
    27aa:	f7 01       	movw	r30, r14
    27ac:	85 89       	ldd	r24, Z+21	; 0x15
    27ae:	90 e0       	ldi	r25, 0x00	; 0
    27b0:	c0 97       	sbiw	r24, 0x30	; 48
    27b2:	bc 01       	movw	r22, r24
    27b4:	99 0f       	add	r25, r25
    27b6:	88 0b       	sbc	r24, r24
    27b8:	99 0b       	sbc	r25, r25
    27ba:	0e 94 81 20 	call	0x4102	; 0x4102 <__floatsisf>
    27be:	9b 01       	movw	r18, r22
    27c0:	ac 01       	movw	r20, r24
    27c2:	c3 01       	movw	r24, r6
    27c4:	b2 01       	movw	r22, r4
    27c6:	0e 94 7f 1f 	call	0x3efe	; 0x3efe <__addsf3>
    27ca:	2b 01       	movw	r4, r22
    27cc:	3c 01       	movw	r6, r24
		float latmin =	(gpsdata[22] - '0')*10;
		latmin +=		(gpsdata[23] - '0');
		latmin +=		(gpsdata[25] - '0')/10.0;
		latmin +=		(gpsdata[26] - '0')/100.0;
		latmin +=		(gpsdata[27] - '0')/1000.0;
		latmin +=		(gpsdata[28] - '0')/10000.0;
    27ce:	f7 01       	movw	r30, r14
    27d0:	84 8d       	ldd	r24, Z+28	; 0x1c
    27d2:	90 e0       	ldi	r25, 0x00	; 0
    27d4:	c0 97       	sbiw	r24, 0x30	; 48
    27d6:	bc 01       	movw	r22, r24
    27d8:	99 0f       	add	r25, r25
    27da:	88 0b       	sbc	r24, r24
    27dc:	99 0b       	sbc	r25, r25
    27de:	0e 94 81 20 	call	0x4102	; 0x4102 <__floatsisf>
    27e2:	20 e0       	ldi	r18, 0x00	; 0
    27e4:	30 e4       	ldi	r19, 0x40	; 64
    27e6:	4c e1       	ldi	r20, 0x1C	; 28
    27e8:	56 e4       	ldi	r21, 0x46	; 70
    27ea:	0e 94 e6 1f 	call	0x3fcc	; 0x3fcc <__divsf3>
    27ee:	a5 01       	movw	r20, r10
    27f0:	94 01       	movw	r18, r8
    27f2:	0e 94 7f 1f 	call	0x3efe	; 0x3efe <__addsf3>
		lat +=	latmin/60.0;
    27f6:	20 e0       	ldi	r18, 0x00	; 0
    27f8:	30 e0       	ldi	r19, 0x00	; 0
    27fa:	40 e7       	ldi	r20, 0x70	; 112
    27fc:	52 e4       	ldi	r21, 0x42	; 66
    27fe:	0e 94 e6 1f 	call	0x3fcc	; 0x3fcc <__divsf3>
    2802:	9b 01       	movw	r18, r22
    2804:	ac 01       	movw	r20, r24
    2806:	c3 01       	movw	r24, r6
    2808:	b2 01       	movw	r22, r4
    280a:	0e 94 7f 1f 	call	0x3efe	; 0x3efe <__addsf3>
    280e:	60 93 e6 02 	sts	0x02E6, r22
    2812:	70 93 e7 02 	sts	0x02E7, r23
    2816:	80 93 e8 02 	sts	0x02E8, r24
    281a:	90 93 e9 02 	sts	0x02E9, r25
		if (gpsdata[30] != 'N')
    281e:	f7 01       	movw	r30, r14
    2820:	26 8d       	ldd	r18, Z+30	; 0x1e
    2822:	2e 34       	cpi	r18, 0x4E	; 78
    2824:	59 f0       	breq	.+22     	; 0x283c <_Z10gpshandlerv+0x21e>
		{
			lat *= -1;
    2826:	dc 01       	movw	r26, r24
    2828:	cb 01       	movw	r24, r22
    282a:	b0 58       	subi	r27, 0x80	; 128
    282c:	80 93 e6 02 	sts	0x02E6, r24
    2830:	90 93 e7 02 	sts	0x02E7, r25
    2834:	a0 93 e8 02 	sts	0x02E8, r26
    2838:	b0 93 e9 02 	sts	0x02E9, r27
		
		//Longitude
		lon =	(gpsdata[32] - '0')*100;
		lon +=	(gpsdata[33] - '0')*10;
		lon +=	(gpsdata[34] - '0');
		float lonmin =	(gpsdata[35] - '0')*10;
    283c:	0f 2e       	mov	r0, r31
    283e:	fb ee       	ldi	r31, 0xEB	; 235
    2840:	ef 2e       	mov	r14, r31
    2842:	f2 e0       	ldi	r31, 0x02	; 2
    2844:	ff 2e       	mov	r15, r31
    2846:	f0 2d       	mov	r31, r0
    2848:	f7 01       	movw	r30, r14
    284a:	83 a1       	ldd	r24, Z+35	; 0x23
    284c:	90 e0       	ldi	r25, 0x00	; 0
    284e:	c0 97       	sbiw	r24, 0x30	; 48
    2850:	bc 01       	movw	r22, r24
    2852:	66 0f       	add	r22, r22
    2854:	77 1f       	adc	r23, r23
    2856:	88 0f       	add	r24, r24
    2858:	99 1f       	adc	r25, r25
    285a:	88 0f       	add	r24, r24
    285c:	99 1f       	adc	r25, r25
    285e:	88 0f       	add	r24, r24
    2860:	99 1f       	adc	r25, r25
    2862:	68 0f       	add	r22, r24
    2864:	79 1f       	adc	r23, r25
    2866:	07 2e       	mov	r0, r23
    2868:	00 0c       	add	r0, r0
    286a:	88 0b       	sbc	r24, r24
    286c:	99 0b       	sbc	r25, r25
    286e:	0e 94 81 20 	call	0x4102	; 0x4102 <__floatsisf>
    2872:	4b 01       	movw	r8, r22
    2874:	5c 01       	movw	r10, r24
		lonmin +=		(gpsdata[36] - '0');
    2876:	f7 01       	movw	r30, r14
    2878:	84 a1       	ldd	r24, Z+36	; 0x24
    287a:	90 e0       	ldi	r25, 0x00	; 0
    287c:	c0 97       	sbiw	r24, 0x30	; 48
    287e:	bc 01       	movw	r22, r24
    2880:	99 0f       	add	r25, r25
    2882:	88 0b       	sbc	r24, r24
    2884:	99 0b       	sbc	r25, r25
    2886:	0e 94 81 20 	call	0x4102	; 0x4102 <__floatsisf>
    288a:	a5 01       	movw	r20, r10
    288c:	94 01       	movw	r18, r8
    288e:	0e 94 7f 1f 	call	0x3efe	; 0x3efe <__addsf3>
    2892:	4b 01       	movw	r8, r22
    2894:	5c 01       	movw	r10, r24
		lonmin +=		(gpsdata[38] - '0')/10.0;
    2896:	f7 01       	movw	r30, r14
    2898:	86 a1       	ldd	r24, Z+38	; 0x26
    289a:	90 e0       	ldi	r25, 0x00	; 0
    289c:	c0 97       	sbiw	r24, 0x30	; 48
    289e:	bc 01       	movw	r22, r24
    28a0:	99 0f       	add	r25, r25
    28a2:	88 0b       	sbc	r24, r24
    28a4:	99 0b       	sbc	r25, r25
    28a6:	0e 94 81 20 	call	0x4102	; 0x4102 <__floatsisf>
    28aa:	20 e0       	ldi	r18, 0x00	; 0
    28ac:	30 e0       	ldi	r19, 0x00	; 0
    28ae:	40 e2       	ldi	r20, 0x20	; 32
    28b0:	51 e4       	ldi	r21, 0x41	; 65
    28b2:	0e 94 e6 1f 	call	0x3fcc	; 0x3fcc <__divsf3>
    28b6:	a5 01       	movw	r20, r10
    28b8:	94 01       	movw	r18, r8
    28ba:	0e 94 7f 1f 	call	0x3efe	; 0x3efe <__addsf3>
    28be:	4b 01       	movw	r8, r22
    28c0:	5c 01       	movw	r10, r24
		lonmin +=		(gpsdata[39] - '0')/100.0;
    28c2:	f7 01       	movw	r30, r14
    28c4:	87 a1       	ldd	r24, Z+39	; 0x27
    28c6:	90 e0       	ldi	r25, 0x00	; 0
    28c8:	c0 97       	sbiw	r24, 0x30	; 48
    28ca:	bc 01       	movw	r22, r24
    28cc:	99 0f       	add	r25, r25
    28ce:	88 0b       	sbc	r24, r24
    28d0:	99 0b       	sbc	r25, r25
    28d2:	0e 94 81 20 	call	0x4102	; 0x4102 <__floatsisf>
    28d6:	20 e0       	ldi	r18, 0x00	; 0
    28d8:	30 e0       	ldi	r19, 0x00	; 0
    28da:	48 ec       	ldi	r20, 0xC8	; 200
    28dc:	52 e4       	ldi	r21, 0x42	; 66
    28de:	0e 94 e6 1f 	call	0x3fcc	; 0x3fcc <__divsf3>
    28e2:	a5 01       	movw	r20, r10
    28e4:	94 01       	movw	r18, r8
    28e6:	0e 94 7f 1f 	call	0x3efe	; 0x3efe <__addsf3>
    28ea:	4b 01       	movw	r8, r22
    28ec:	5c 01       	movw	r10, r24
		lonmin +=		(gpsdata[40] - '0')/1000.0;
    28ee:	f7 01       	movw	r30, r14
    28f0:	80 a5       	ldd	r24, Z+40	; 0x28
    28f2:	90 e0       	ldi	r25, 0x00	; 0
    28f4:	c0 97       	sbiw	r24, 0x30	; 48
    28f6:	bc 01       	movw	r22, r24
    28f8:	99 0f       	add	r25, r25
    28fa:	88 0b       	sbc	r24, r24
    28fc:	99 0b       	sbc	r25, r25
    28fe:	0e 94 81 20 	call	0x4102	; 0x4102 <__floatsisf>
    2902:	20 e0       	ldi	r18, 0x00	; 0
    2904:	30 e0       	ldi	r19, 0x00	; 0
    2906:	4a e7       	ldi	r20, 0x7A	; 122
    2908:	54 e4       	ldi	r21, 0x44	; 68
    290a:	0e 94 e6 1f 	call	0x3fcc	; 0x3fcc <__divsf3>
    290e:	a5 01       	movw	r20, r10
    2910:	94 01       	movw	r18, r8
    2912:	0e 94 7f 1f 	call	0x3efe	; 0x3efe <__addsf3>
    2916:	4b 01       	movw	r8, r22
    2918:	5c 01       	movw	r10, r24
		{
			lat *= -1;
		}
		
		//Longitude
		lon =	(gpsdata[32] - '0')*100;
    291a:	f7 01       	movw	r30, r14
    291c:	80 a1       	ldd	r24, Z+32	; 0x20
    291e:	90 e0       	ldi	r25, 0x00	; 0
    2920:	c0 97       	sbiw	r24, 0x30	; 48
    2922:	24 e6       	ldi	r18, 0x64	; 100
    2924:	28 9f       	mul	r18, r24
    2926:	b0 01       	movw	r22, r0
    2928:	29 9f       	mul	r18, r25
    292a:	70 0d       	add	r23, r0
    292c:	11 24       	eor	r1, r1
    292e:	07 2e       	mov	r0, r23
    2930:	00 0c       	add	r0, r0
    2932:	88 0b       	sbc	r24, r24
    2934:	99 0b       	sbc	r25, r25
    2936:	0e 94 81 20 	call	0x4102	; 0x4102 <__floatsisf>
    293a:	2b 01       	movw	r4, r22
    293c:	3c 01       	movw	r6, r24
		lon +=	(gpsdata[33] - '0')*10;
    293e:	f7 01       	movw	r30, r14
    2940:	21 a1       	ldd	r18, Z+33	; 0x21
    2942:	30 e0       	ldi	r19, 0x00	; 0
    2944:	20 53       	subi	r18, 0x30	; 48
    2946:	31 09       	sbc	r19, r1
    2948:	c9 01       	movw	r24, r18
    294a:	88 0f       	add	r24, r24
    294c:	99 1f       	adc	r25, r25
    294e:	22 0f       	add	r18, r18
    2950:	33 1f       	adc	r19, r19
    2952:	22 0f       	add	r18, r18
    2954:	33 1f       	adc	r19, r19
    2956:	22 0f       	add	r18, r18
    2958:	33 1f       	adc	r19, r19
    295a:	82 0f       	add	r24, r18
    295c:	93 1f       	adc	r25, r19
    295e:	bc 01       	movw	r22, r24
    2960:	99 0f       	add	r25, r25
    2962:	88 0b       	sbc	r24, r24
    2964:	99 0b       	sbc	r25, r25
    2966:	0e 94 81 20 	call	0x4102	; 0x4102 <__floatsisf>
    296a:	9b 01       	movw	r18, r22
    296c:	ac 01       	movw	r20, r24
    296e:	c3 01       	movw	r24, r6
    2970:	b2 01       	movw	r22, r4
    2972:	0e 94 7f 1f 	call	0x3efe	; 0x3efe <__addsf3>
    2976:	2b 01       	movw	r4, r22
    2978:	3c 01       	movw	r6, r24
		lon +=	(gpsdata[34] - '0');
    297a:	f7 01       	movw	r30, r14
    297c:	82 a1       	ldd	r24, Z+34	; 0x22
    297e:	90 e0       	ldi	r25, 0x00	; 0
    2980:	c0 97       	sbiw	r24, 0x30	; 48
    2982:	bc 01       	movw	r22, r24
    2984:	99 0f       	add	r25, r25
    2986:	88 0b       	sbc	r24, r24
    2988:	99 0b       	sbc	r25, r25
    298a:	0e 94 81 20 	call	0x4102	; 0x4102 <__floatsisf>
    298e:	9b 01       	movw	r18, r22
    2990:	ac 01       	movw	r20, r24
    2992:	c3 01       	movw	r24, r6
    2994:	b2 01       	movw	r22, r4
    2996:	0e 94 7f 1f 	call	0x3efe	; 0x3efe <__addsf3>
    299a:	2b 01       	movw	r4, r22
    299c:	3c 01       	movw	r6, r24
		float lonmin =	(gpsdata[35] - '0')*10;
		lonmin +=		(gpsdata[36] - '0');
		lonmin +=		(gpsdata[38] - '0')/10.0;
		lonmin +=		(gpsdata[39] - '0')/100.0;
		lonmin +=		(gpsdata[40] - '0')/1000.0;
		lonmin +=		(gpsdata[41] - '0')/10000.0;
    299e:	f7 01       	movw	r30, r14
    29a0:	81 a5       	ldd	r24, Z+41	; 0x29
    29a2:	90 e0       	ldi	r25, 0x00	; 0
    29a4:	c0 97       	sbiw	r24, 0x30	; 48
    29a6:	bc 01       	movw	r22, r24
    29a8:	99 0f       	add	r25, r25
    29aa:	88 0b       	sbc	r24, r24
    29ac:	99 0b       	sbc	r25, r25
    29ae:	0e 94 81 20 	call	0x4102	; 0x4102 <__floatsisf>
    29b2:	20 e0       	ldi	r18, 0x00	; 0
    29b4:	30 e4       	ldi	r19, 0x40	; 64
    29b6:	4c e1       	ldi	r20, 0x1C	; 28
    29b8:	56 e4       	ldi	r21, 0x46	; 70
    29ba:	0e 94 e6 1f 	call	0x3fcc	; 0x3fcc <__divsf3>
    29be:	a5 01       	movw	r20, r10
    29c0:	94 01       	movw	r18, r8
    29c2:	0e 94 7f 1f 	call	0x3efe	; 0x3efe <__addsf3>
		lon +=			lonmin/60.0;
    29c6:	20 e0       	ldi	r18, 0x00	; 0
    29c8:	30 e0       	ldi	r19, 0x00	; 0
    29ca:	40 e7       	ldi	r20, 0x70	; 112
    29cc:	52 e4       	ldi	r21, 0x42	; 66
    29ce:	0e 94 e6 1f 	call	0x3fcc	; 0x3fcc <__divsf3>
    29d2:	9b 01       	movw	r18, r22
    29d4:	ac 01       	movw	r20, r24
    29d6:	c3 01       	movw	r24, r6
    29d8:	b2 01       	movw	r22, r4
    29da:	0e 94 7f 1f 	call	0x3efe	; 0x3efe <__addsf3>
    29de:	60 93 e2 02 	sts	0x02E2, r22
    29e2:	70 93 e3 02 	sts	0x02E3, r23
    29e6:	80 93 e4 02 	sts	0x02E4, r24
    29ea:	90 93 e5 02 	sts	0x02E5, r25
		if (gpsdata[43] != 'E')
    29ee:	f7 01       	movw	r30, r14
    29f0:	23 a5       	ldd	r18, Z+43	; 0x2b
    29f2:	25 34       	cpi	r18, 0x45	; 69
    29f4:	59 f0       	breq	.+22     	; 0x2a0c <_Z10gpshandlerv+0x3ee>
		{
			lon *= -1;
    29f6:	dc 01       	movw	r26, r24
    29f8:	cb 01       	movw	r24, r22
    29fa:	b0 58       	subi	r27, 0x80	; 128
    29fc:	80 93 e2 02 	sts	0x02E2, r24
    2a00:	90 93 e3 02 	sts	0x02E3, r25
    2a04:	a0 93 e4 02 	sts	0x02E4, r26
    2a08:	b0 93 e5 02 	sts	0x02E5, r27
		}
		//Speed and direktion ar discarted for now
		volatile uint8_t counter = 19;
    2a0c:	83 e1       	ldi	r24, 0x13	; 19
    2a0e:	8c 83       	std	Y+4, r24	; 0x04
		volatile uint8_t nichterreicht = 0;
    2a10:	1b 82       	std	Y+3, r1	; 0x03
		
		while (nichterreicht < 7)
    2a12:	8b 81       	ldd	r24, Y+3	; 0x03
    2a14:	87 30       	cpi	r24, 0x07	; 7
    2a16:	80 f4       	brcc	.+32     	; 0x2a38 <_Z10gpshandlerv+0x41a>
		{
			if (gpsdata[counter] == ',')
    2a18:	ec 81       	ldd	r30, Y+4	; 0x04
    2a1a:	f0 e0       	ldi	r31, 0x00	; 0
    2a1c:	e5 51       	subi	r30, 0x15	; 21
    2a1e:	fd 4f       	sbci	r31, 0xFD	; 253
    2a20:	80 81       	ld	r24, Z
    2a22:	8c 32       	cpi	r24, 0x2C	; 44
    2a24:	19 f4       	brne	.+6      	; 0x2a2c <_Z10gpshandlerv+0x40e>
			{
				nichterreicht++;
    2a26:	8b 81       	ldd	r24, Y+3	; 0x03
    2a28:	8f 5f       	subi	r24, 0xFF	; 255
    2a2a:	8b 83       	std	Y+3, r24	; 0x03
			}
			counter++;
    2a2c:	8c 81       	ldd	r24, Y+4	; 0x04
    2a2e:	8f 5f       	subi	r24, 0xFF	; 255
    2a30:	8c 83       	std	Y+4, r24	; 0x04
		}
		//Speed and direktion ar discarted for now
		volatile uint8_t counter = 19;
		volatile uint8_t nichterreicht = 0;
		
		while (nichterreicht < 7)
    2a32:	8b 81       	ldd	r24, Y+3	; 0x03
    2a34:	87 30       	cpi	r24, 0x07	; 7
    2a36:	80 f3       	brcs	.-32     	; 0x2a18 <_Z10gpshandlerv+0x3fa>
			}
			counter++;
		}
		
		//Datum
		gpsTag =	(gpsdata[counter+0] - '0')*10;
    2a38:	ac 81       	ldd	r26, Y+4	; 0x04
		gpsTag +=	(gpsdata[counter+1] - '0');
    2a3a:	ec 81       	ldd	r30, Y+4	; 0x04
			}
			counter++;
		}
		
		//Datum
		gpsTag =	(gpsdata[counter+0] - '0')*10;
    2a3c:	b0 e0       	ldi	r27, 0x00	; 0
    2a3e:	a5 51       	subi	r26, 0x15	; 21
    2a40:	bd 4f       	sbci	r27, 0xFD	; 253
    2a42:	8c 91       	ld	r24, X
    2a44:	88 0f       	add	r24, r24
    2a46:	80 56       	subi	r24, 0x60	; 96
    2a48:	28 2f       	mov	r18, r24
    2a4a:	22 0f       	add	r18, r18
    2a4c:	22 0f       	add	r18, r18
    2a4e:	28 0f       	add	r18, r24
		gpsTag +=	(gpsdata[counter+1] - '0');
    2a50:	f0 e0       	ldi	r31, 0x00	; 0
    2a52:	e5 51       	subi	r30, 0x15	; 21
    2a54:	fd 4f       	sbci	r31, 0xFD	; 253
    2a56:	81 81       	ldd	r24, Z+1	; 0x01
    2a58:	90 e0       	ldi	r25, 0x00	; 0
    2a5a:	c0 97       	sbiw	r24, 0x30	; 48
    2a5c:	82 0f       	add	r24, r18
    2a5e:	91 1d       	adc	r25, r1
    2a60:	80 93 da 02 	sts	0x02DA, r24
		gpsMonat =	(gpsdata[counter+2] - '0')*10;
    2a64:	ac 81       	ldd	r26, Y+4	; 0x04
		gpsMonat +=	(gpsdata[counter+3] - '0');
    2a66:	ec 81       	ldd	r30, Y+4	; 0x04
		}
		
		//Datum
		gpsTag =	(gpsdata[counter+0] - '0')*10;
		gpsTag +=	(gpsdata[counter+1] - '0');
		gpsMonat =	(gpsdata[counter+2] - '0')*10;
    2a68:	b0 e0       	ldi	r27, 0x00	; 0
    2a6a:	a5 51       	subi	r26, 0x15	; 21
    2a6c:	bd 4f       	sbci	r27, 0xFD	; 253
    2a6e:	12 96       	adiw	r26, 0x02	; 2
    2a70:	8c 91       	ld	r24, X
    2a72:	88 0f       	add	r24, r24
    2a74:	80 56       	subi	r24, 0x60	; 96
    2a76:	28 2f       	mov	r18, r24
    2a78:	22 0f       	add	r18, r18
    2a7a:	22 0f       	add	r18, r18
    2a7c:	28 0f       	add	r18, r24
		gpsMonat +=	(gpsdata[counter+3] - '0');
    2a7e:	f0 e0       	ldi	r31, 0x00	; 0
    2a80:	e5 51       	subi	r30, 0x15	; 21
    2a82:	fd 4f       	sbci	r31, 0xFD	; 253
    2a84:	83 81       	ldd	r24, Z+3	; 0x03
    2a86:	90 e0       	ldi	r25, 0x00	; 0
    2a88:	c0 97       	sbiw	r24, 0x30	; 48
    2a8a:	82 0f       	add	r24, r18
    2a8c:	91 1d       	adc	r25, r1
    2a8e:	80 93 d9 02 	sts	0x02D9, r24
		gpsJahr =	(gpsdata[counter+4] - '0')*10;
    2a92:	ac 81       	ldd	r26, Y+4	; 0x04
		gpsJahr +=	(gpsdata[counter+5] - '0');
    2a94:	ec 81       	ldd	r30, Y+4	; 0x04
		//Datum
		gpsTag =	(gpsdata[counter+0] - '0')*10;
		gpsTag +=	(gpsdata[counter+1] - '0');
		gpsMonat =	(gpsdata[counter+2] - '0')*10;
		gpsMonat +=	(gpsdata[counter+3] - '0');
		gpsJahr =	(gpsdata[counter+4] - '0')*10;
    2a96:	b0 e0       	ldi	r27, 0x00	; 0
    2a98:	a5 51       	subi	r26, 0x15	; 21
    2a9a:	bd 4f       	sbci	r27, 0xFD	; 253
    2a9c:	14 96       	adiw	r26, 0x04	; 4
    2a9e:	8c 91       	ld	r24, X
    2aa0:	88 0f       	add	r24, r24
    2aa2:	80 56       	subi	r24, 0x60	; 96
    2aa4:	28 2f       	mov	r18, r24
    2aa6:	22 0f       	add	r18, r18
    2aa8:	22 0f       	add	r18, r18
    2aaa:	28 0f       	add	r18, r24
		gpsJahr +=	(gpsdata[counter+5] - '0');
    2aac:	f0 e0       	ldi	r31, 0x00	; 0
    2aae:	e5 51       	subi	r30, 0x15	; 21
    2ab0:	fd 4f       	sbci	r31, 0xFD	; 253
    2ab2:	85 81       	ldd	r24, Z+5	; 0x05
    2ab4:	90 e0       	ldi	r25, 0x00	; 0
    2ab6:	c0 97       	sbiw	r24, 0x30	; 48
    2ab8:	82 0f       	add	r24, r18
    2aba:	91 1d       	adc	r25, r1
    2abc:	80 93 d8 02 	sts	0x02D8, r24
		
		gpsstatus &= ~(1<<complete);
    2ac0:	1b 7f       	andi	r17, 0xFB	; 251
    2ac2:	10 93 33 03 	sts	0x0333, r17
    2ac6:	8b c0       	rjmp	.+278    	; 0x2bde <_Z10gpshandlerv+0x5c0>
	}
	else if ((gpsstatus&(1<<completenotvalid))  && (gpsstatus&(1<<fix)))
    2ac8:	13 ff       	sbrs	r17, 3
    2aca:	89 c0       	rjmp	.+274    	; 0x2bde <_Z10gpshandlerv+0x5c0>
    2acc:	11 23       	and	r17, r17
    2ace:	0c f0       	brlt	.+2      	; 0x2ad2 <_Z10gpshandlerv+0x4b4>
    2ad0:	86 c0       	rjmp	.+268    	; 0x2bde <_Z10gpshandlerv+0x5c0>
	{
		//Zeit
		gpsstunde =		(gpsdata[7] - '0')*10;
		gpsstunde +=	(gpsdata[8] - '0');
    2ad2:	eb ee       	ldi	r30, 0xEB	; 235
    2ad4:	f2 e0       	ldi	r31, 0x02	; 2
    2ad6:	80 85       	ldd	r24, Z+8	; 0x08
    2ad8:	21 ed       	ldi	r18, 0xD1	; 209
    2ada:	28 0f       	add	r18, r24
		gpsstatus &= ~(1<<complete);
	}
	else if ((gpsstatus&(1<<completenotvalid))  && (gpsstatus&(1<<fix)))
	{
		//Zeit
		gpsstunde =		(gpsdata[7] - '0')*10;
    2adc:	87 81       	ldd	r24, Z+7	; 0x07
    2ade:	88 0f       	add	r24, r24
    2ae0:	80 56       	subi	r24, 0x60	; 96
    2ae2:	98 2f       	mov	r25, r24
    2ae4:	99 0f       	add	r25, r25
    2ae6:	99 0f       	add	r25, r25
    2ae8:	89 0f       	add	r24, r25
		gpsstunde +=	(gpsdata[8] - '0');
		gpsstunde += GMT;
    2aea:	82 0f       	add	r24, r18
    2aec:	80 93 dd 02 	sts	0x02DD, r24
    2af0:	82 85       	ldd	r24, Z+10	; 0x0a
    2af2:	20 ed       	ldi	r18, 0xD0	; 208
    2af4:	28 0f       	add	r18, r24
		gpsminute =		(gpsdata[9] - '0')*10;
    2af6:	81 85       	ldd	r24, Z+9	; 0x09
    2af8:	88 0f       	add	r24, r24
    2afa:	80 56       	subi	r24, 0x60	; 96
    2afc:	98 2f       	mov	r25, r24
    2afe:	99 0f       	add	r25, r25
    2b00:	99 0f       	add	r25, r25
    2b02:	89 0f       	add	r24, r25
		gpsminute +=	(gpsdata[10] - '0');
    2b04:	82 0f       	add	r24, r18
    2b06:	80 93 dc 02 	sts	0x02DC, r24
    2b0a:	84 85       	ldd	r24, Z+12	; 0x0c
    2b0c:	20 ed       	ldi	r18, 0xD0	; 208
    2b0e:	28 0f       	add	r18, r24
		gpssekunde =	(gpsdata[11] - '0')*10;
    2b10:	83 85       	ldd	r24, Z+11	; 0x0b
    2b12:	88 0f       	add	r24, r24
    2b14:	80 56       	subi	r24, 0x60	; 96
    2b16:	98 2f       	mov	r25, r24
    2b18:	99 0f       	add	r25, r25
    2b1a:	99 0f       	add	r25, r25
    2b1c:	89 0f       	add	r24, r25
		gpssekunde +=	(gpsdata[12] - '0');
    2b1e:	82 0f       	add	r24, r18
    2b20:	80 93 db 02 	sts	0x02DB, r24
		
		volatile uint8_t counter = 19;
    2b24:	83 e1       	ldi	r24, 0x13	; 19
    2b26:	8a 83       	std	Y+2, r24	; 0x02
		volatile uint8_t nichterreicht = 0;
    2b28:	19 82       	std	Y+1, r1	; 0x01
		
		while (nichterreicht < 7)
    2b2a:	89 81       	ldd	r24, Y+1	; 0x01
    2b2c:	87 30       	cpi	r24, 0x07	; 7
    2b2e:	80 f4       	brcc	.+32     	; 0x2b50 <_Z10gpshandlerv+0x532>
		{
			if (gpsdata[counter] == ',')
    2b30:	ea 81       	ldd	r30, Y+2	; 0x02
    2b32:	f0 e0       	ldi	r31, 0x00	; 0
    2b34:	e5 51       	subi	r30, 0x15	; 21
    2b36:	fd 4f       	sbci	r31, 0xFD	; 253
    2b38:	80 81       	ld	r24, Z
    2b3a:	8c 32       	cpi	r24, 0x2C	; 44
    2b3c:	19 f4       	brne	.+6      	; 0x2b44 <_Z10gpshandlerv+0x526>
			{
				nichterreicht++;
    2b3e:	89 81       	ldd	r24, Y+1	; 0x01
    2b40:	8f 5f       	subi	r24, 0xFF	; 255
    2b42:	89 83       	std	Y+1, r24	; 0x01
			}
			counter++;
    2b44:	8a 81       	ldd	r24, Y+2	; 0x02
    2b46:	8f 5f       	subi	r24, 0xFF	; 255
    2b48:	8a 83       	std	Y+2, r24	; 0x02
		gpssekunde +=	(gpsdata[12] - '0');
		
		volatile uint8_t counter = 19;
		volatile uint8_t nichterreicht = 0;
		
		while (nichterreicht < 7)
    2b4a:	89 81       	ldd	r24, Y+1	; 0x01
    2b4c:	87 30       	cpi	r24, 0x07	; 7
    2b4e:	80 f3       	brcs	.-32     	; 0x2b30 <_Z10gpshandlerv+0x512>
			}
			counter++;
		}
		
		//Datum
		gpsTag =	(gpsdata[counter+0] - '0')*10;
    2b50:	aa 81       	ldd	r26, Y+2	; 0x02
		gpsTag +=	(gpsdata[counter+1] - '0');
    2b52:	ea 81       	ldd	r30, Y+2	; 0x02
			}
			counter++;
		}
		
		//Datum
		gpsTag =	(gpsdata[counter+0] - '0')*10;
    2b54:	b0 e0       	ldi	r27, 0x00	; 0
    2b56:	a5 51       	subi	r26, 0x15	; 21
    2b58:	bd 4f       	sbci	r27, 0xFD	; 253
    2b5a:	8c 91       	ld	r24, X
    2b5c:	88 0f       	add	r24, r24
    2b5e:	80 56       	subi	r24, 0x60	; 96
    2b60:	28 2f       	mov	r18, r24
    2b62:	22 0f       	add	r18, r18
    2b64:	22 0f       	add	r18, r18
    2b66:	28 0f       	add	r18, r24
		gpsTag +=	(gpsdata[counter+1] - '0');
    2b68:	f0 e0       	ldi	r31, 0x00	; 0
    2b6a:	e5 51       	subi	r30, 0x15	; 21
    2b6c:	fd 4f       	sbci	r31, 0xFD	; 253
    2b6e:	81 81       	ldd	r24, Z+1	; 0x01
    2b70:	90 e0       	ldi	r25, 0x00	; 0
    2b72:	c0 97       	sbiw	r24, 0x30	; 48
    2b74:	82 0f       	add	r24, r18
    2b76:	91 1d       	adc	r25, r1
    2b78:	80 93 da 02 	sts	0x02DA, r24
		gpsMonat =	(gpsdata[counter+2] - '0')*10;
    2b7c:	aa 81       	ldd	r26, Y+2	; 0x02
		gpsMonat +=	(gpsdata[counter+3] - '0');
    2b7e:	ea 81       	ldd	r30, Y+2	; 0x02
		}
		
		//Datum
		gpsTag =	(gpsdata[counter+0] - '0')*10;
		gpsTag +=	(gpsdata[counter+1] - '0');
		gpsMonat =	(gpsdata[counter+2] - '0')*10;
    2b80:	b0 e0       	ldi	r27, 0x00	; 0
    2b82:	a5 51       	subi	r26, 0x15	; 21
    2b84:	bd 4f       	sbci	r27, 0xFD	; 253
    2b86:	12 96       	adiw	r26, 0x02	; 2
    2b88:	8c 91       	ld	r24, X
    2b8a:	88 0f       	add	r24, r24
    2b8c:	80 56       	subi	r24, 0x60	; 96
    2b8e:	28 2f       	mov	r18, r24
    2b90:	22 0f       	add	r18, r18
    2b92:	22 0f       	add	r18, r18
    2b94:	28 0f       	add	r18, r24
		gpsMonat +=	(gpsdata[counter+3] - '0');
    2b96:	f0 e0       	ldi	r31, 0x00	; 0
    2b98:	e5 51       	subi	r30, 0x15	; 21
    2b9a:	fd 4f       	sbci	r31, 0xFD	; 253
    2b9c:	83 81       	ldd	r24, Z+3	; 0x03
    2b9e:	90 e0       	ldi	r25, 0x00	; 0
    2ba0:	c0 97       	sbiw	r24, 0x30	; 48
    2ba2:	82 0f       	add	r24, r18
    2ba4:	91 1d       	adc	r25, r1
    2ba6:	80 93 d9 02 	sts	0x02D9, r24
		gpsJahr =	(gpsdata[counter+4] - '0')*10;
    2baa:	aa 81       	ldd	r26, Y+2	; 0x02
		gpsJahr +=	(gpsdata[counter+5] - '0');
    2bac:	ea 81       	ldd	r30, Y+2	; 0x02
		//Datum
		gpsTag =	(gpsdata[counter+0] - '0')*10;
		gpsTag +=	(gpsdata[counter+1] - '0');
		gpsMonat =	(gpsdata[counter+2] - '0')*10;
		gpsMonat +=	(gpsdata[counter+3] - '0');
		gpsJahr =	(gpsdata[counter+4] - '0')*10;
    2bae:	b0 e0       	ldi	r27, 0x00	; 0
    2bb0:	a5 51       	subi	r26, 0x15	; 21
    2bb2:	bd 4f       	sbci	r27, 0xFD	; 253
    2bb4:	14 96       	adiw	r26, 0x04	; 4
    2bb6:	8c 91       	ld	r24, X
    2bb8:	88 0f       	add	r24, r24
    2bba:	80 56       	subi	r24, 0x60	; 96
    2bbc:	28 2f       	mov	r18, r24
    2bbe:	22 0f       	add	r18, r18
    2bc0:	22 0f       	add	r18, r18
    2bc2:	28 0f       	add	r18, r24
		gpsJahr +=	(gpsdata[counter+5] - '0');
    2bc4:	f0 e0       	ldi	r31, 0x00	; 0
    2bc6:	e5 51       	subi	r30, 0x15	; 21
    2bc8:	fd 4f       	sbci	r31, 0xFD	; 253
    2bca:	85 81       	ldd	r24, Z+5	; 0x05
    2bcc:	90 e0       	ldi	r25, 0x00	; 0
    2bce:	c0 97       	sbiw	r24, 0x30	; 48
    2bd0:	82 0f       	add	r24, r18
    2bd2:	91 1d       	adc	r25, r1
    2bd4:	80 93 d8 02 	sts	0x02D8, r24
		
		gpsstatus &= ~(1<<completenotvalid);
    2bd8:	17 7f       	andi	r17, 0xF7	; 247
    2bda:	10 93 33 03 	sts	0x0333, r17
	}
	//fix status pruefen, wenn implementiert
}
    2bde:	0f 90       	pop	r0
    2be0:	0f 90       	pop	r0
    2be2:	0f 90       	pop	r0
    2be4:	0f 90       	pop	r0
    2be6:	df 91       	pop	r29
    2be8:	cf 91       	pop	r28
    2bea:	1f 91       	pop	r17
    2bec:	ff 90       	pop	r15
    2bee:	ef 90       	pop	r14
    2bf0:	bf 90       	pop	r11
    2bf2:	af 90       	pop	r10
    2bf4:	9f 90       	pop	r9
    2bf6:	8f 90       	pop	r8
    2bf8:	7f 90       	pop	r7
    2bfa:	6f 90       	pop	r6
    2bfc:	5f 90       	pop	r5
    2bfe:	4f 90       	pop	r4
    2c00:	08 95       	ret

00002c02 <main>:
void initialisierung();
void maininterupthandler(monitor *mon, uint8_t taste);
void gpshandler();

int main(void)
{
    2c02:	cf 93       	push	r28
    2c04:	df 93       	push	r29
    2c06:	cd b7       	in	r28, 0x3d	; 61
    2c08:	de b7       	in	r29, 0x3e	; 62
    2c0a:	65 97       	sbiw	r28, 0x15	; 21
    2c0c:	0f b6       	in	r0, 0x3f	; 63
    2c0e:	f8 94       	cli
    2c10:	de bf       	out	0x3e, r29	; 62
    2c12:	0f be       	out	0x3f, r0	; 63
    2c14:	cd bf       	out	0x3d, r28	; 61
    initialisierung();
    2c16:	75 da       	rcall	.-2838   	; 0x2102 <_Z15initialisierungv>
} while(0)

//define new and delete operator
void * operator new(size_t size)
{
	return malloc(size);
    2c18:	8a e2       	ldi	r24, 0x2A	; 42
    2c1a:	90 e0       	ldi	r25, 0x00	; 0
    2c1c:	0e 94 ce 25 	call	0x4b9c	; 0x4b9c <malloc>
    2c20:	fc 01       	movw	r30, r24
		uint8_t posx;
		uint8_t maxentries;
		uint8_t maxentriesx;
	monitor(Display *ol, RTC *rt)
	{
		buffersize = 0;
    2c22:	16 8a       	std	Z+22, r1	; 0x16
		oled = ol;
    2c24:	8b e3       	ldi	r24, 0x3B	; 59
    2c26:	94 e0       	ldi	r25, 0x04	; 4
    2c28:	90 8f       	std	Z+24, r25	; 0x18
    2c2a:	87 8b       	std	Z+23, r24	; 0x17
		rtc = rt;
    2c2c:	8c e3       	ldi	r24, 0x3C	; 60
    2c2e:	98 e0       	ldi	r25, 0x08	; 8
    2c30:	92 8f       	std	Z+26, r25	; 0x1a
    2c32:	81 8f       	std	Z+25, r24	; 0x19
		posy=0;
    2c34:	15 a2       	std	Z+37, r1	; 0x25
		posx=0;
    2c36:	16 a2       	std	Z+38, r1	; 0x26
		maxentriesx = 1;
    2c38:	81 e0       	ldi	r24, 0x01	; 1
    2c3a:	80 a7       	std	Z+40, r24	; 0x28
class uhr:public monitor
{
	private:
	uint8_t Zeiger;
	public:
	uhr(Display *ol, RTC *rt):monitor(ol,rt)
    2c3c:	83 e9       	ldi	r24, 0x93	; 147
    2c3e:	92 e0       	ldi	r25, 0x02	; 2
    2c40:	91 83       	std	Z+1, r25	; 0x01
    2c42:	80 83       	st	Z, r24
	{
		char na[] = "Uhr";
    2c44:	85 e5       	ldi	r24, 0x55	; 85
    2c46:	98 e6       	ldi	r25, 0x68	; 104
    2c48:	a2 e7       	ldi	r26, 0x72	; 114
    2c4a:	b0 e0       	ldi	r27, 0x00	; 0
    2c4c:	89 83       	std	Y+1, r24	; 0x01
    2c4e:	9a 83       	std	Y+2, r25	; 0x02
    2c50:	ab 83       	std	Y+3, r26	; 0x03
    2c52:	bc 83       	std	Y+4, r27	; 0x04
    2c54:	9e 01       	movw	r18, r28
    2c56:	2f 5f       	subi	r18, 0xFF	; 255
    2c58:	3f 4f       	sbci	r19, 0xFF	; 255
    2c5a:	cf 01       	movw	r24, r30
    2c5c:	4b 96       	adiw	r24, 0x1b	; 27
    2c5e:	be 01       	movw	r22, r28
    2c60:	65 5f       	subi	r22, 0xF5	; 245
    2c62:	7f 4f       	sbci	r23, 0xFF	; 255
    2c64:	89 01       	movw	r16, r18
			{
				name[i] = na[i];
			}
			else
			{
				name[i] = ' ';
    2c66:	40 e2       	ldi	r20, 0x20	; 32
    2c68:	50 2f       	mov	r21, r16
    2c6a:	52 1b       	sub	r21, r18
	public:
	uhr(Display *ol, RTC *rt):monitor(ol,rt)
	{
		char na[] = "Uhr";
		for(uint8_t i =0; i< namesize;i++){
			if (i<sizeof(na))
    2c6c:	54 30       	cpi	r21, 0x04	; 4
    2c6e:	28 f4       	brcc	.+10     	; 0x2c7a <main+0x78>
			{
				name[i] = na[i];
    2c70:	d8 01       	movw	r26, r16
    2c72:	5c 91       	ld	r21, X
    2c74:	dc 01       	movw	r26, r24
    2c76:	5c 93       	st	X, r21
    2c78:	02 c0       	rjmp	.+4      	; 0x2c7e <main+0x7c>
			}
			else
			{
				name[i] = ' ';
    2c7a:	dc 01       	movw	r26, r24
    2c7c:	4c 93       	st	X, r20
    2c7e:	0f 5f       	subi	r16, 0xFF	; 255
    2c80:	1f 4f       	sbci	r17, 0xFF	; 255
    2c82:	01 96       	adiw	r24, 0x01	; 1
	uint8_t Zeiger;
	public:
	uhr(Display *ol, RTC *rt):monitor(ol,rt)
	{
		char na[] = "Uhr";
		for(uint8_t i =0; i< namesize;i++){
    2c84:	06 17       	cp	r16, r22
    2c86:	17 07       	cpc	r17, r23
    2c88:	79 f7       	brne	.-34     	; 0x2c68 <main+0x66>
			else
			{
				name[i] = ' ';
			}
		}
		Zeiger = 1;
    2c8a:	ff 24       	eor	r15, r15
    2c8c:	f3 94       	inc	r15
    2c8e:	f1 a6       	std	Z+41, r15	; 0x29
		maxentries = 3;
    2c90:	83 e0       	ldi	r24, 0x03	; 3
    2c92:	87 a3       	std	Z+39, r24	; 0x27
		new tacho(&oled,&rtc),
		new wandern(&oled,&rtc),
		new einstellungen(&oled,&rtc),
		new offscreen(&oled,&rtc),
		new menue(&oled,&rtc)
	};
    2c94:	fa 83       	std	Y+2, r31	; 0x02
    2c96:	e9 83       	std	Y+1, r30	; 0x01
} while(0)

//define new and delete operator
void * operator new(size_t size)
{
	return malloc(size);
    2c98:	89 e2       	ldi	r24, 0x29	; 41
    2c9a:	90 e0       	ldi	r25, 0x00	; 0
    2c9c:	0e 94 ce 25 	call	0x4b9c	; 0x4b9c <malloc>
    2ca0:	8c 01       	movw	r16, r24
		uint8_t posx;
		uint8_t maxentries;
		uint8_t maxentriesx;
	monitor(Display *ol, RTC *rt)
	{
		buffersize = 0;
    2ca2:	fc 01       	movw	r30, r24
    2ca4:	16 8a       	std	Z+22, r1	; 0x16
		oled = ol;
    2ca6:	8b e3       	ldi	r24, 0x3B	; 59
    2ca8:	94 e0       	ldi	r25, 0x04	; 4
    2caa:	90 8f       	std	Z+24, r25	; 0x18
    2cac:	87 8b       	std	Z+23, r24	; 0x17
		rtc = rt;
    2cae:	8c e3       	ldi	r24, 0x3C	; 60
    2cb0:	98 e0       	ldi	r25, 0x08	; 8
    2cb2:	92 8f       	std	Z+26, r25	; 0x1a
    2cb4:	81 8f       	std	Z+25, r24	; 0x19
		posy=0;
    2cb6:	15 a2       	std	Z+37, r1	; 0x25
		posx=0;
    2cb8:	16 a2       	std	Z+38, r1	; 0x26
		maxentriesx = 1;
    2cba:	f0 a6       	std	Z+40, r15	; 0x28
class tacho: public monitor
{
	private:
		
	public:
	tacho(Display *ol,RTC *rtc):monitor(ol,rtc)
    2cbc:	8b e9       	ldi	r24, 0x9B	; 155
    2cbe:	92 e0       	ldi	r25, 0x02	; 2
    2cc0:	91 83       	std	Z+1, r25	; 0x01
    2cc2:	80 83       	st	Z, r24
	{
		char na[] = "Tacho";
    2cc4:	86 e0       	ldi	r24, 0x06	; 6
    2cc6:	ec e3       	ldi	r30, 0x3C	; 60
    2cc8:	f1 e0       	ldi	r31, 0x01	; 1
    2cca:	de 01       	movw	r26, r28
    2ccc:	1d 96       	adiw	r26, 0x0d	; 13
    2cce:	01 90       	ld	r0, Z+
    2cd0:	0d 92       	st	X+, r0
    2cd2:	8a 95       	dec	r24
    2cd4:	e1 f7       	brne	.-8      	; 0x2cce <main+0xcc>
    2cd6:	ce 01       	movw	r24, r28
    2cd8:	0d 96       	adiw	r24, 0x0d	; 13
    2cda:	d8 01       	movw	r26, r16
    2cdc:	5b 96       	adiw	r26, 0x1b	; 27
    2cde:	ae 01       	movw	r20, r28
    2ce0:	49 5e       	subi	r20, 0xE9	; 233
    2ce2:	5f 4f       	sbci	r21, 0xFF	; 255
    2ce4:	fc 01       	movw	r30, r24
			{
				name[i] = na[i];
			}
			else
			{
				name[i] = ' ';
    2ce6:	20 e2       	ldi	r18, 0x20	; 32
    2ce8:	3e 2f       	mov	r19, r30
    2cea:	38 1b       	sub	r19, r24
	public:
	tacho(Display *ol,RTC *rtc):monitor(ol,rtc)
	{
		char na[] = "Tacho";
		for(uint8_t i =0; i< namesize;i++){
			if (i<sizeof(na))
    2cec:	36 30       	cpi	r19, 0x06	; 6
    2cee:	18 f4       	brcc	.+6      	; 0x2cf6 <main+0xf4>
			{
				name[i] = na[i];
    2cf0:	30 81       	ld	r19, Z
    2cf2:	3c 93       	st	X, r19
    2cf4:	01 c0       	rjmp	.+2      	; 0x2cf8 <main+0xf6>
			}
			else
			{
				name[i] = ' ';
    2cf6:	2c 93       	st	X, r18
    2cf8:	31 96       	adiw	r30, 0x01	; 1
    2cfa:	11 96       	adiw	r26, 0x01	; 1
		
	public:
	tacho(Display *ol,RTC *rtc):monitor(ol,rtc)
	{
		char na[] = "Tacho";
		for(uint8_t i =0; i< namesize;i++){
    2cfc:	e4 17       	cp	r30, r20
    2cfe:	f5 07       	cpc	r31, r21
    2d00:	99 f7       	brne	.-26     	; 0x2ce8 <main+0xe6>
			else
			{
				name[i] = ' ';
			}
		}
		nullen();
    2d02:	49 d9       	rcall	.-3438   	; 0x1f96 <_Z6nullenv>
		new tacho(&oled,&rtc),
		new wandern(&oled,&rtc),
		new einstellungen(&oled,&rtc),
		new offscreen(&oled,&rtc),
		new menue(&oled,&rtc)
	};
    2d04:	1c 83       	std	Y+4, r17	; 0x04
    2d06:	0b 83       	std	Y+3, r16	; 0x03
} while(0)

//define new and delete operator
void * operator new(size_t size)
{
	return malloc(size);
    2d08:	89 e2       	ldi	r24, 0x29	; 41
    2d0a:	90 e0       	ldi	r25, 0x00	; 0
    2d0c:	0e 94 ce 25 	call	0x4b9c	; 0x4b9c <malloc>
		uint8_t posx;
		uint8_t maxentries;
		uint8_t maxentriesx;
	monitor(Display *ol, RTC *rt)
	{
		buffersize = 0;
    2d10:	dc 01       	movw	r26, r24
    2d12:	56 96       	adiw	r26, 0x16	; 22
    2d14:	1c 92       	st	X, r1
    2d16:	56 97       	sbiw	r26, 0x16	; 22
		oled = ol;
    2d18:	2b e3       	ldi	r18, 0x3B	; 59
    2d1a:	34 e0       	ldi	r19, 0x04	; 4
    2d1c:	58 96       	adiw	r26, 0x18	; 24
    2d1e:	3c 93       	st	X, r19
    2d20:	2e 93       	st	-X, r18
    2d22:	57 97       	sbiw	r26, 0x17	; 23
		rtc = rt;
    2d24:	2c e3       	ldi	r18, 0x3C	; 60
    2d26:	38 e0       	ldi	r19, 0x08	; 8
    2d28:	5a 96       	adiw	r26, 0x1a	; 26
    2d2a:	3c 93       	st	X, r19
    2d2c:	2e 93       	st	-X, r18
    2d2e:	59 97       	sbiw	r26, 0x19	; 25
		posy=0;
    2d30:	95 96       	adiw	r26, 0x25	; 37
    2d32:	1c 92       	st	X, r1
    2d34:	95 97       	sbiw	r26, 0x25	; 37
		posx=0;
    2d36:	96 96       	adiw	r26, 0x26	; 38
    2d38:	1c 92       	st	X, r1
    2d3a:	96 97       	sbiw	r26, 0x26	; 38
		maxentriesx = 1;
    2d3c:	21 e0       	ldi	r18, 0x01	; 1
    2d3e:	98 96       	adiw	r26, 0x28	; 40
    2d40:	2c 93       	st	X, r18
    2d42:	98 97       	sbiw	r26, 0x28	; 40
class wandern: public monitor
{
	private:
	
	public:	
	wandern(Display *ol,RTC *rtc):monitor(ol,rtc)
    2d44:	23 ea       	ldi	r18, 0xA3	; 163
    2d46:	32 e0       	ldi	r19, 0x02	; 2
    2d48:	2d 93       	st	X+, r18
    2d4a:	3c 93       	st	X, r19
	{
		char na[] = "Wandern";
    2d4c:	28 e0       	ldi	r18, 0x08	; 8
    2d4e:	e2 e4       	ldi	r30, 0x42	; 66
    2d50:	f1 e0       	ldi	r31, 0x01	; 1
    2d52:	de 01       	movw	r26, r28
    2d54:	1d 96       	adiw	r26, 0x0d	; 13
    2d56:	01 90       	ld	r0, Z+
    2d58:	0d 92       	st	X+, r0
    2d5a:	2a 95       	dec	r18
    2d5c:	e1 f7       	brne	.-8      	; 0x2d56 <main+0x154>
    2d5e:	9e 01       	movw	r18, r28
    2d60:	23 5f       	subi	r18, 0xF3	; 243
    2d62:	3f 4f       	sbci	r19, 0xFF	; 255
    2d64:	dc 01       	movw	r26, r24
    2d66:	5b 96       	adiw	r26, 0x1b	; 27
    2d68:	be 01       	movw	r22, r28
    2d6a:	69 5e       	subi	r22, 0xE9	; 233
    2d6c:	7f 4f       	sbci	r23, 0xFF	; 255
    2d6e:	f9 01       	movw	r30, r18
			{
				name[i] = na[i];
			}
			else
			{
				name[i] = ' ';
    2d70:	40 e2       	ldi	r20, 0x20	; 32
    2d72:	5e 2f       	mov	r21, r30
    2d74:	52 1b       	sub	r21, r18
	public:	
	wandern(Display *ol,RTC *rtc):monitor(ol,rtc)
	{
		char na[] = "Wandern";
		for(uint8_t i =0; i< namesize;i++){
			if (i<sizeof(na))
    2d76:	58 30       	cpi	r21, 0x08	; 8
    2d78:	18 f4       	brcc	.+6      	; 0x2d80 <main+0x17e>
			{
				name[i] = na[i];
    2d7a:	50 81       	ld	r21, Z
    2d7c:	5c 93       	st	X, r21
    2d7e:	01 c0       	rjmp	.+2      	; 0x2d82 <main+0x180>
			}
			else
			{
				name[i] = ' ';
    2d80:	4c 93       	st	X, r20
    2d82:	31 96       	adiw	r30, 0x01	; 1
    2d84:	11 96       	adiw	r26, 0x01	; 1
	
	public:	
	wandern(Display *ol,RTC *rtc):monitor(ol,rtc)
	{
		char na[] = "Wandern";
		for(uint8_t i =0; i< namesize;i++){
    2d86:	e6 17       	cp	r30, r22
    2d88:	f7 07       	cpc	r31, r23
    2d8a:	99 f7       	brne	.-26     	; 0x2d72 <main+0x170>
		new tacho(&oled,&rtc),
		new wandern(&oled,&rtc),
		new einstellungen(&oled,&rtc),
		new offscreen(&oled,&rtc),
		new menue(&oled,&rtc)
	};
    2d8c:	9e 83       	std	Y+6, r25	; 0x06
    2d8e:	8d 83       	std	Y+5, r24	; 0x05
} while(0)

//define new and delete operator
void * operator new(size_t size)
{
	return malloc(size);
    2d90:	89 e2       	ldi	r24, 0x29	; 41
    2d92:	90 e0       	ldi	r25, 0x00	; 0
    2d94:	0e 94 ce 25 	call	0x4b9c	; 0x4b9c <malloc>
		uint8_t posx;
		uint8_t maxentries;
		uint8_t maxentriesx;
	monitor(Display *ol, RTC *rt)
	{
		buffersize = 0;
    2d98:	fc 01       	movw	r30, r24
    2d9a:	16 8a       	std	Z+22, r1	; 0x16
		oled = ol;
    2d9c:	2b e3       	ldi	r18, 0x3B	; 59
    2d9e:	34 e0       	ldi	r19, 0x04	; 4
    2da0:	30 8f       	std	Z+24, r19	; 0x18
    2da2:	27 8b       	std	Z+23, r18	; 0x17
		rtc = rt;
    2da4:	2c e3       	ldi	r18, 0x3C	; 60
    2da6:	38 e0       	ldi	r19, 0x08	; 8
    2da8:	32 8f       	std	Z+26, r19	; 0x1a
    2daa:	21 8f       	std	Z+25, r18	; 0x19
		posy=0;
    2dac:	15 a2       	std	Z+37, r1	; 0x25
		posx=0;
    2dae:	16 a2       	std	Z+38, r1	; 0x26
		maxentriesx = 1;
    2db0:	21 e0       	ldi	r18, 0x01	; 1
    2db2:	20 a7       	std	Z+40, r18	; 0x28

class einstellungen: public monitor
{
	private:
	public:
	einstellungen(Display *ol,RTC *rt): monitor(ol,rt)
    2db4:	2b ea       	ldi	r18, 0xAB	; 171
    2db6:	32 e0       	ldi	r19, 0x02	; 2
    2db8:	31 83       	std	Z+1, r19	; 0x01
    2dba:	20 83       	st	Z, r18
	{
		char na[] = "Settings";
    2dbc:	29 e0       	ldi	r18, 0x09	; 9
    2dbe:	e6 ec       	ldi	r30, 0xC6	; 198
    2dc0:	f1 e0       	ldi	r31, 0x01	; 1
    2dc2:	de 01       	movw	r26, r28
    2dc4:	1d 96       	adiw	r26, 0x0d	; 13
    2dc6:	01 90       	ld	r0, Z+
    2dc8:	0d 92       	st	X+, r0
    2dca:	2a 95       	dec	r18
    2dcc:	e1 f7       	brne	.-8      	; 0x2dc6 <main+0x1c4>
    2dce:	9e 01       	movw	r18, r28
    2dd0:	23 5f       	subi	r18, 0xF3	; 243
    2dd2:	3f 4f       	sbci	r19, 0xFF	; 255
    2dd4:	dc 01       	movw	r26, r24
    2dd6:	5b 96       	adiw	r26, 0x1b	; 27
    2dd8:	be 01       	movw	r22, r28
    2dda:	69 5e       	subi	r22, 0xE9	; 233
    2ddc:	7f 4f       	sbci	r23, 0xFF	; 255
    2dde:	f9 01       	movw	r30, r18
			{
				name[i] = na[i];
			}
			else
			{
				name[i] = ' ';
    2de0:	40 e2       	ldi	r20, 0x20	; 32
    2de2:	5e 2f       	mov	r21, r30
    2de4:	52 1b       	sub	r21, r18
	public:
	einstellungen(Display *ol,RTC *rt): monitor(ol,rt)
	{
		char na[] = "Settings";
		for(uint8_t i =0; i< namesize;i++){
			if (i<sizeof(na))
    2de6:	59 30       	cpi	r21, 0x09	; 9
    2de8:	18 f4       	brcc	.+6      	; 0x2df0 <main+0x1ee>
			{
				name[i] = na[i];
    2dea:	50 81       	ld	r21, Z
    2dec:	5c 93       	st	X, r21
    2dee:	01 c0       	rjmp	.+2      	; 0x2df2 <main+0x1f0>
			}
			else
			{
				name[i] = ' ';
    2df0:	4c 93       	st	X, r20
    2df2:	31 96       	adiw	r30, 0x01	; 1
    2df4:	11 96       	adiw	r26, 0x01	; 1
	private:
	public:
	einstellungen(Display *ol,RTC *rt): monitor(ol,rt)
	{
		char na[] = "Settings";
		for(uint8_t i =0; i< namesize;i++){
    2df6:	e6 17       	cp	r30, r22
    2df8:	f7 07       	cpc	r31, r23
    2dfa:	99 f7       	brne	.-26     	; 0x2de2 <main+0x1e0>
			else
			{
				name[i] = ' ';
			}
		}
		maxentries = 4;
    2dfc:	24 e0       	ldi	r18, 0x04	; 4
    2dfe:	dc 01       	movw	r26, r24
    2e00:	97 96       	adiw	r26, 0x27	; 39
    2e02:	2c 93       	st	X, r18
		new tacho(&oled,&rtc),
		new wandern(&oled,&rtc),
		new einstellungen(&oled,&rtc),
		new offscreen(&oled,&rtc),
		new menue(&oled,&rtc)
	};
    2e04:	98 87       	std	Y+8, r25	; 0x08
    2e06:	8f 83       	std	Y+7, r24	; 0x07
} while(0)

//define new and delete operator
void * operator new(size_t size)
{
	return malloc(size);
    2e08:	89 e2       	ldi	r24, 0x29	; 41
    2e0a:	90 e0       	ldi	r25, 0x00	; 0
    2e0c:	0e 94 ce 25 	call	0x4b9c	; 0x4b9c <malloc>
    2e10:	fc 01       	movw	r30, r24
		uint8_t posx;
		uint8_t maxentries;
		uint8_t maxentriesx;
	monitor(Display *ol, RTC *rt)
	{
		buffersize = 0;
    2e12:	16 8a       	std	Z+22, r1	; 0x16
		oled = ol;
    2e14:	0f 2e       	mov	r0, r31
    2e16:	fb e3       	ldi	r31, 0x3B	; 59
    2e18:	cf 2e       	mov	r12, r31
    2e1a:	f4 e0       	ldi	r31, 0x04	; 4
    2e1c:	df 2e       	mov	r13, r31
    2e1e:	f0 2d       	mov	r31, r0
    2e20:	d0 8e       	std	Z+24, r13	; 0x18
    2e22:	c7 8a       	std	Z+23, r12	; 0x17
		rtc = rt;
    2e24:	0f 2e       	mov	r0, r31
    2e26:	fc e3       	ldi	r31, 0x3C	; 60
    2e28:	ef 2e       	mov	r14, r31
    2e2a:	f8 e0       	ldi	r31, 0x08	; 8
    2e2c:	ff 2e       	mov	r15, r31
    2e2e:	f0 2d       	mov	r31, r0
    2e30:	f2 8e       	std	Z+26, r15	; 0x1a
    2e32:	e1 8e       	std	Z+25, r14	; 0x19
		posy=0;
    2e34:	15 a2       	std	Z+37, r1	; 0x25
		posx=0;
    2e36:	16 a2       	std	Z+38, r1	; 0x26
		maxentriesx = 1;
    2e38:	11 e0       	ldi	r17, 0x01	; 1
    2e3a:	10 a7       	std	Z+40, r17	; 0x28
class offscreen: public monitor
{
	private:
	
	public:
	offscreen(Display *ol, RTC *rt):monitor(ol,rt){
    2e3c:	83 ec       	ldi	r24, 0xC3	; 195
    2e3e:	92 e0       	ldi	r25, 0x02	; 2
    2e40:	91 83       	std	Z+1, r25	; 0x01
    2e42:	80 83       	st	Z, r24
		new tacho(&oled,&rtc),
		new wandern(&oled,&rtc),
		new einstellungen(&oled,&rtc),
		new offscreen(&oled,&rtc),
		new menue(&oled,&rtc)
	};
    2e44:	fa 87       	std	Y+10, r31	; 0x0a
    2e46:	e9 87       	std	Y+9, r30	; 0x09
} while(0)

//define new and delete operator
void * operator new(size_t size)
{
	return malloc(size);
    2e48:	89 e2       	ldi	r24, 0x29	; 41
    2e4a:	90 e0       	ldi	r25, 0x00	; 0
    2e4c:	0e 94 ce 25 	call	0x4b9c	; 0x4b9c <malloc>
		uint8_t posx;
		uint8_t maxentries;
		uint8_t maxentriesx;
	monitor(Display *ol, RTC *rt)
	{
		buffersize = 0;
    2e50:	fc 01       	movw	r30, r24
    2e52:	16 8a       	std	Z+22, r1	; 0x16
		oled = ol;
    2e54:	d0 8e       	std	Z+24, r13	; 0x18
    2e56:	c7 8a       	std	Z+23, r12	; 0x17
		rtc = rt;
    2e58:	f2 8e       	std	Z+26, r15	; 0x1a
    2e5a:	e1 8e       	std	Z+25, r14	; 0x19
		posy=0;
    2e5c:	15 a2       	std	Z+37, r1	; 0x25
		posx=0;
    2e5e:	16 a2       	std	Z+38, r1	; 0x26
		maxentriesx = 1;
    2e60:	10 a7       	std	Z+40, r17	; 0x28

class menue: public monitor
{
	private:
	public:
	menue(Display *ol, RTC *rt):monitor(ol,rt)
    2e62:	2b eb       	ldi	r18, 0xBB	; 187
    2e64:	32 e0       	ldi	r19, 0x02	; 2
    2e66:	31 83       	std	Z+1, r19	; 0x01
    2e68:	20 83       	st	Z, r18
	{
		char na[] = "Menue";
    2e6a:	26 e0       	ldi	r18, 0x06	; 6
    2e6c:	ef ec       	ldi	r30, 0xCF	; 207
    2e6e:	f1 e0       	ldi	r31, 0x01	; 1
    2e70:	de 01       	movw	r26, r28
    2e72:	1d 96       	adiw	r26, 0x0d	; 13
    2e74:	01 90       	ld	r0, Z+
    2e76:	0d 92       	st	X+, r0
    2e78:	2a 95       	dec	r18
    2e7a:	e1 f7       	brne	.-8      	; 0x2e74 <main+0x272>
    2e7c:	9e 01       	movw	r18, r28
    2e7e:	23 5f       	subi	r18, 0xF3	; 243
    2e80:	3f 4f       	sbci	r19, 0xFF	; 255
    2e82:	dc 01       	movw	r26, r24
    2e84:	5b 96       	adiw	r26, 0x1b	; 27
    2e86:	be 01       	movw	r22, r28
    2e88:	69 5e       	subi	r22, 0xE9	; 233
    2e8a:	7f 4f       	sbci	r23, 0xFF	; 255
    2e8c:	f9 01       	movw	r30, r18
			{
				name[i] = na[i];
			}
			else
			{
				name[i] = ' ';
    2e8e:	40 e2       	ldi	r20, 0x20	; 32
    2e90:	5e 2f       	mov	r21, r30
    2e92:	52 1b       	sub	r21, r18
	public:
	menue(Display *ol, RTC *rt):monitor(ol,rt)
	{
		char na[] = "Menue";
		for(uint8_t i =0; i< namesize;i++)
			if (i<sizeof(na))
    2e94:	56 30       	cpi	r21, 0x06	; 6
    2e96:	18 f4       	brcc	.+6      	; 0x2e9e <main+0x29c>
			{
				name[i] = na[i];
    2e98:	50 81       	ld	r21, Z
    2e9a:	5c 93       	st	X, r21
    2e9c:	01 c0       	rjmp	.+2      	; 0x2ea0 <main+0x29e>
			}
			else
			{
				name[i] = ' ';
    2e9e:	4c 93       	st	X, r20
    2ea0:	31 96       	adiw	r30, 0x01	; 1
    2ea2:	11 96       	adiw	r26, 0x01	; 1
	private:
	public:
	menue(Display *ol, RTC *rt):monitor(ol,rt)
	{
		char na[] = "Menue";
		for(uint8_t i =0; i< namesize;i++)
    2ea4:	e6 17       	cp	r30, r22
    2ea6:	f7 07       	cpc	r31, r23
    2ea8:	99 f7       	brne	.-26     	; 0x2e90 <main+0x28e>
			}
			else
			{
				name[i] = ' ';
			}
			maxentriesx = 0;
    2eaa:	dc 01       	movw	r26, r24
    2eac:	98 96       	adiw	r26, 0x28	; 40
    2eae:	1c 92       	st	X, r1
    2eb0:	98 97       	sbiw	r26, 0x28	; 40
			maxentries = numberofpages;
    2eb2:	25 e0       	ldi	r18, 0x05	; 5
    2eb4:	97 96       	adiw	r26, 0x27	; 39
    2eb6:	2c 93       	st	X, r18
		new tacho(&oled,&rtc),
		new wandern(&oled,&rtc),
		new einstellungen(&oled,&rtc),
		new offscreen(&oled,&rtc),
		new menue(&oled,&rtc)
	};
    2eb8:	9c 87       	std	Y+12, r25	; 0x0c
    2eba:	8b 87       	std	Y+11, r24	; 0x0b
	
	

	while (1) 
    {
		maininterupthandler(Folien[position],Tastatur.unified());
    2ebc:	8f e2       	ldi	r24, 0x2F	; 47
    2ebe:	94 e0       	ldi	r25, 0x04	; 4
    2ec0:	0e 94 5d 08 	call	0x10ba	; 0x10ba <_ZN9Interface7unifiedEv>
    2ec4:	e0 91 35 03 	lds	r30, 0x0335
    2ec8:	f0 e0       	ldi	r31, 0x00	; 0
    2eca:	ee 0f       	add	r30, r30
    2ecc:	ff 1f       	adc	r31, r31
    2ece:	21 e0       	ldi	r18, 0x01	; 1
    2ed0:	30 e0       	ldi	r19, 0x00	; 0
    2ed2:	2c 0f       	add	r18, r28
    2ed4:	3d 1f       	adc	r19, r29
    2ed6:	e2 0f       	add	r30, r18
    2ed8:	f3 1f       	adc	r31, r19
    2eda:	68 2f       	mov	r22, r24
    2edc:	80 81       	ld	r24, Z
    2ede:	91 81       	ldd	r25, Z+1	; 0x01
    2ee0:	4f da       	rcall	.-2914   	; 0x2380 <_Z19maininterupthandlerP7monitorh>
		gpshandler();
    2ee2:	9d db       	rcall	.-2246   	; 0x261e <_Z10gpshandlerv>
    }
    2ee4:	eb cf       	rjmp	.-42     	; 0x2ebc <main+0x2ba>

00002ee6 <_Z13uhreinstellenv>:
		gpsstatus &= ~(1<<completenotvalid);
	}
	//fix status pruefen, wenn implementiert
}

void uhreinstellen(){
    2ee6:	2f 92       	push	r2
    2ee8:	3f 92       	push	r3
    2eea:	4f 92       	push	r4
    2eec:	5f 92       	push	r5
    2eee:	6f 92       	push	r6
    2ef0:	7f 92       	push	r7
    2ef2:	8f 92       	push	r8
    2ef4:	9f 92       	push	r9
    2ef6:	af 92       	push	r10
    2ef8:	bf 92       	push	r11
    2efa:	cf 92       	push	r12
    2efc:	df 92       	push	r13
    2efe:	ef 92       	push	r14
    2f00:	ff 92       	push	r15
    2f02:	0f 93       	push	r16
    2f04:	1f 93       	push	r17
    2f06:	cf 93       	push	r28
    2f08:	df 93       	push	r29
    2f0a:	cd b7       	in	r28, 0x3d	; 61
    2f0c:	de b7       	in	r29, 0x3e	; 62
    2f0e:	66 97       	sbiw	r28, 0x16	; 22
    2f10:	0f b6       	in	r0, 0x3f	; 63
    2f12:	f8 94       	cli
    2f14:	de bf       	out	0x3e, r29	; 62
    2f16:	0f be       	out	0x3f, r0	; 63
    2f18:	cd bf       	out	0x3d, r28	; 61
	rtc.RTCstop();
    2f1a:	8c e3       	ldi	r24, 0x3C	; 60
    2f1c:	98 e0       	ldi	r25, 0x08	; 8
    2f1e:	a7 d7       	rcall	.+3918   	; 0x3e6e <_ZN3RTC7RTCstopEv>
	
	oled.clearFrame();
    2f20:	8b e3       	ldi	r24, 0x3B	; 59
    2f22:	94 e0       	ldi	r25, 0x04	; 4
    2f24:	0e 94 04 03 	call	0x608	; 0x608 <_ZN7Display10clearFrameEv>
	char buffer[20];
	uint8_t buffersize;
	uint8_t pos=0;
    2f28:	91 2c       	mov	r9, r1
	while(pos<11){
		buffersize=sprintf(buffer,"Uhreinstellung");
    2f2a:	0f 2e       	mov	r0, r31
    2f2c:	ff e0       	ldi	r31, 0x0F	; 15
    2f2e:	7f 2e       	mov	r7, r31
    2f30:	f0 2d       	mov	r31, r0
    2f32:	ce 01       	movw	r24, r28
    2f34:	01 96       	adiw	r24, 0x01	; 1
    2f36:	2c 01       	movw	r4, r24
    2f38:	f1 2c       	mov	r15, r1
		for(uint8_t i = 0; i<buffersize;i++){
			oled.draw_ASCI(buffer[i],charsize*i,0);
		}
		buffersize=sprintf(buffer,"--------------");
    2f3a:	8d 8b       	std	Y+21, r24	; 0x15
    2f3c:	5e 8a       	std	Y+22, r5	; 0x16
		for(uint8_t i = 0; i<buffersize;i++){
			oled.draw_ASCI(buffer[i],charsize*i,8);
		}
		buffer[0]=rtc.Stunden/10;
    2f3e:	0f 2e       	mov	r0, r31
    2f40:	fc e3       	ldi	r31, 0x3C	; 60
    2f42:	cf 2e       	mov	r12, r31
    2f44:	f8 e0       	ldi	r31, 0x08	; 8
    2f46:	df 2e       	mov	r13, r31
    2f48:	f0 2d       	mov	r31, r0
    2f4a:	0f 2e       	mov	r0, r31
    2f4c:	fd ec       	ldi	r31, 0xCD	; 205
    2f4e:	8f 2e       	mov	r8, r31
    2f50:	f0 2d       	mov	r31, r0
		buffer[1]=rtc.Stunden%10;
		buffer[2]=':';
		buffer[3]=rtc.Minuten/10;
		buffer[4]=rtc.Minuten%10;
		buffer[5]=' ';
    2f52:	68 94       	set
    2f54:	ee 24       	eor	r14, r14
    2f56:	e5 f8       	bld	r14, 5
		buffer[6]=rtc.Tag/10;
		buffer[7]=rtc.Tag%10;
		buffer[8]='.';
    2f58:	0f 2e       	mov	r0, r31
    2f5a:	fe e2       	ldi	r31, 0x2E	; 46
    2f5c:	6f 2e       	mov	r6, r31
    2f5e:	f0 2d       	mov	r31, r0
	oled.clearFrame();
	char buffer[20];
	uint8_t buffersize;
	uint8_t pos=0;
	while(pos<11){
		buffersize=sprintf(buffer,"Uhreinstellung");
    2f60:	e5 ed       	ldi	r30, 0xD5	; 213
    2f62:	f1 e0       	ldi	r31, 0x01	; 1
    2f64:	d2 01       	movw	r26, r4
    2f66:	87 2d       	mov	r24, r7
    2f68:	01 90       	ld	r0, Z+
    2f6a:	0d 92       	st	X+, r0
    2f6c:	8a 95       	dec	r24
    2f6e:	e1 f7       	brne	.-8      	; 0x2f68 <_Z13uhreinstellenv+0x82>
    2f70:	52 01       	movw	r10, r4
    2f72:	12 01       	movw	r2, r4
    2f74:	1f 2d       	mov	r17, r15
		for(uint8_t i = 0; i<buffersize;i++){
			oled.draw_ASCI(buffer[i],charsize*i,0);
    2f76:	f1 01       	movw	r30, r2
    2f78:	61 91       	ld	r22, Z+
    2f7a:	1f 01       	movw	r2, r30
    2f7c:	2f 2d       	mov	r18, r15
    2f7e:	41 2f       	mov	r20, r17
    2f80:	8b e3       	ldi	r24, 0x3B	; 59
    2f82:	94 e0       	ldi	r25, 0x04	; 4
    2f84:	0e 94 1c 04 	call	0x838	; 0x838 <_ZN7Display9draw_ASCIEhhh>
    2f88:	1a 5f       	subi	r17, 0xFA	; 250
	char buffer[20];
	uint8_t buffersize;
	uint8_t pos=0;
	while(pos<11){
		buffersize=sprintf(buffer,"Uhreinstellung");
		for(uint8_t i = 0; i<buffersize;i++){
    2f8a:	14 35       	cpi	r17, 0x54	; 84
    2f8c:	a1 f7       	brne	.-24     	; 0x2f76 <_Z13uhreinstellenv+0x90>
			oled.draw_ASCI(buffer[i],charsize*i,0);
		}
		buffersize=sprintf(buffer,"--------------");
    2f8e:	e5 e1       	ldi	r30, 0x15	; 21
    2f90:	f1 e0       	ldi	r31, 0x01	; 1
    2f92:	d2 01       	movw	r26, r4
    2f94:	87 2d       	mov	r24, r7
    2f96:	01 90       	ld	r0, Z+
    2f98:	0d 92       	st	X+, r0
    2f9a:	8a 95       	dec	r24
    2f9c:	e1 f7       	brne	.-8      	; 0x2f96 <_Z13uhreinstellenv+0xb0>
    2f9e:	2d 88       	ldd	r2, Y+21	; 0x15
    2fa0:	3e 88       	ldd	r3, Y+22	; 0x16
    2fa2:	1f 2d       	mov	r17, r15
		for(uint8_t i = 0; i<buffersize;i++){
			oled.draw_ASCI(buffer[i],charsize*i,8);
    2fa4:	f1 01       	movw	r30, r2
    2fa6:	61 91       	ld	r22, Z+
    2fa8:	1f 01       	movw	r2, r30
    2faa:	28 e0       	ldi	r18, 0x08	; 8
    2fac:	41 2f       	mov	r20, r17
    2fae:	8b e3       	ldi	r24, 0x3B	; 59
    2fb0:	94 e0       	ldi	r25, 0x04	; 4
    2fb2:	0e 94 1c 04 	call	0x838	; 0x838 <_ZN7Display9draw_ASCIEhhh>
    2fb6:	1a 5f       	subi	r17, 0xFA	; 250
		buffersize=sprintf(buffer,"Uhreinstellung");
		for(uint8_t i = 0; i<buffersize;i++){
			oled.draw_ASCI(buffer[i],charsize*i,0);
		}
		buffersize=sprintf(buffer,"--------------");
		for(uint8_t i = 0; i<buffersize;i++){
    2fb8:	14 35       	cpi	r17, 0x54	; 84
    2fba:	a1 f7       	brne	.-24     	; 0x2fa4 <_Z13uhreinstellenv+0xbe>
			oled.draw_ASCI(buffer[i],charsize*i,8);
		}
		buffer[0]=rtc.Stunden/10;
    2fbc:	f6 01       	movw	r30, r12
    2fbe:	90 89       	ldd	r25, Z+16	; 0x10
    2fc0:	98 9d       	mul	r25, r8
    2fc2:	81 2d       	mov	r24, r1
    2fc4:	11 24       	eor	r1, r1
    2fc6:	86 95       	lsr	r24
    2fc8:	86 95       	lsr	r24
    2fca:	86 95       	lsr	r24
    2fcc:	89 83       	std	Y+1, r24	; 0x01
		buffer[1]=rtc.Stunden%10;
    2fce:	88 0f       	add	r24, r24
    2fd0:	28 2f       	mov	r18, r24
    2fd2:	22 0f       	add	r18, r18
    2fd4:	22 0f       	add	r18, r18
    2fd6:	82 0f       	add	r24, r18
    2fd8:	98 1b       	sub	r25, r24
    2fda:	9a 83       	std	Y+2, r25	; 0x02
		buffer[2]=':';
    2fdc:	fa e3       	ldi	r31, 0x3A	; 58
    2fde:	fb 83       	std	Y+3, r31	; 0x03
		buffer[3]=rtc.Minuten/10;
    2fe0:	f6 01       	movw	r30, r12
    2fe2:	91 89       	ldd	r25, Z+17	; 0x11
    2fe4:	98 9d       	mul	r25, r8
    2fe6:	81 2d       	mov	r24, r1
    2fe8:	11 24       	eor	r1, r1
    2fea:	86 95       	lsr	r24
    2fec:	86 95       	lsr	r24
    2fee:	86 95       	lsr	r24
    2ff0:	8c 83       	std	Y+4, r24	; 0x04
		buffer[4]=rtc.Minuten%10;
    2ff2:	88 0f       	add	r24, r24
    2ff4:	28 2f       	mov	r18, r24
    2ff6:	22 0f       	add	r18, r18
    2ff8:	22 0f       	add	r18, r18
    2ffa:	82 0f       	add	r24, r18
    2ffc:	98 1b       	sub	r25, r24
    2ffe:	9d 83       	std	Y+5, r25	; 0x05
		buffer[5]=' ';
    3000:	ee 82       	std	Y+6, r14	; 0x06
		buffer[6]=rtc.Tag/10;
    3002:	94 89       	ldd	r25, Z+20	; 0x14
    3004:	98 9d       	mul	r25, r8
    3006:	81 2d       	mov	r24, r1
    3008:	11 24       	eor	r1, r1
    300a:	86 95       	lsr	r24
    300c:	86 95       	lsr	r24
    300e:	86 95       	lsr	r24
    3010:	8f 83       	std	Y+7, r24	; 0x07
		buffer[7]=rtc.Tag%10;
    3012:	88 0f       	add	r24, r24
    3014:	28 2f       	mov	r18, r24
    3016:	22 0f       	add	r18, r18
    3018:	22 0f       	add	r18, r18
    301a:	82 0f       	add	r24, r18
    301c:	98 1b       	sub	r25, r24
    301e:	98 87       	std	Y+8, r25	; 0x08
		buffer[8]='.';
    3020:	69 86       	std	Y+9, r6	; 0x09
		buffer[9]=rtc.Monat/10;
    3022:	96 89       	ldd	r25, Z+22	; 0x16
    3024:	98 9d       	mul	r25, r8
    3026:	81 2d       	mov	r24, r1
    3028:	11 24       	eor	r1, r1
    302a:	86 95       	lsr	r24
    302c:	86 95       	lsr	r24
    302e:	86 95       	lsr	r24
    3030:	8a 87       	std	Y+10, r24	; 0x0a
		buffer[10]=rtc.Monat%10;
    3032:	88 0f       	add	r24, r24
    3034:	28 2f       	mov	r18, r24
    3036:	22 0f       	add	r18, r18
    3038:	22 0f       	add	r18, r18
    303a:	82 0f       	add	r24, r18
    303c:	98 1b       	sub	r25, r24
    303e:	9b 87       	std	Y+11, r25	; 0x0b
		buffer[11]='.';
    3040:	6c 86       	std	Y+12, r6	; 0x0c
		buffer[12]=rtc.Jahr/10;
    3042:	97 89       	ldd	r25, Z+23	; 0x17
    3044:	98 9d       	mul	r25, r8
    3046:	81 2d       	mov	r24, r1
    3048:	11 24       	eor	r1, r1
    304a:	86 95       	lsr	r24
    304c:	86 95       	lsr	r24
    304e:	86 95       	lsr	r24
    3050:	8d 87       	std	Y+13, r24	; 0x0d
		buffer[13]=rtc.Jahr%10;
    3052:	88 0f       	add	r24, r24
    3054:	28 2f       	mov	r18, r24
    3056:	22 0f       	add	r18, r18
    3058:	22 0f       	add	r18, r18
    305a:	82 0f       	add	r24, r18
    305c:	98 1b       	sub	r25, r24
    305e:	9e 87       	std	Y+14, r25	; 0x0e
    3060:	0d 89       	ldd	r16, Y+21	; 0x15
    3062:	1e 89       	ldd	r17, Y+22	; 0x16
    3064:	2f 2c       	mov	r2, r15
    3066:	33 24       	eor	r3, r3
    3068:	33 94       	inc	r3
    306a:	05 c0       	rjmp	.+10     	; 0x3076 <_Z13uhreinstellenv+0x190>
    306c:	33 94       	inc	r3
    306e:	0f 5f       	subi	r16, 0xFF	; 255
    3070:	1f 4f       	sbci	r17, 0xFF	; 255
    3072:	f0 e1       	ldi	r31, 0x10	; 16
    3074:	2f 0e       	add	r2, r31
		buffersize=14;
		for(uint8_t i = 0; i<5;i++){
			if(i!=2){
    3076:	83 e0       	ldi	r24, 0x03	; 3
    3078:	38 16       	cp	r3, r24
    307a:	61 f0       	breq	.+24     	; 0x3094 <_Z13uhreinstellenv+0x1ae>
				oled.draw_number16x16(buffer[i],i*numbersmalsize,2*charhighte);
    307c:	20 e1       	ldi	r18, 0x10	; 16
    307e:	42 2d       	mov	r20, r2
    3080:	f8 01       	movw	r30, r16
    3082:	60 81       	ld	r22, Z
    3084:	8b e3       	ldi	r24, 0x3B	; 59
    3086:	94 e0       	ldi	r25, 0x04	; 4
    3088:	0e 94 66 04 	call	0x8cc	; 0x8cc <_ZN7Display16draw_number16x16Ehhh>
		buffer[10]=rtc.Monat%10;
		buffer[11]='.';
		buffer[12]=rtc.Jahr/10;
		buffer[13]=rtc.Jahr%10;
		buffersize=14;
		for(uint8_t i = 0; i<5;i++){
    308c:	f4 e0       	ldi	r31, 0x04	; 4
    308e:	f3 15       	cp	r31, r3
    3090:	68 f7       	brcc	.-38     	; 0x306c <_Z13uhreinstellenv+0x186>
    3092:	08 c0       	rjmp	.+16     	; 0x30a4 <_Z13uhreinstellenv+0x1be>
			if(i!=2){
				oled.draw_number16x16(buffer[i],i*numbersmalsize,2*charhighte);
			}
			else {
				oled.draw_ASCI(buffer[i],i*numbersmalsize+numbersmalsize/2,2*charhighte+charhighte/2);
    3094:	24 e1       	ldi	r18, 0x14	; 20
    3096:	48 e2       	ldi	r20, 0x28	; 40
    3098:	6b 81       	ldd	r22, Y+3	; 0x03
    309a:	8b e3       	ldi	r24, 0x3B	; 59
    309c:	94 e0       	ldi	r25, 0x04	; 4
    309e:	0e 94 1c 04 	call	0x838	; 0x838 <_ZN7Display9draw_ASCIEhhh>
    30a2:	e4 cf       	rjmp	.-56     	; 0x306c <_Z13uhreinstellenv+0x186>
    30a4:	8e 01       	movw	r16, r28
    30a6:	09 5f       	subi	r16, 0xF9	; 249
    30a8:	1f 4f       	sbci	r17, 0xFF	; 255
		buffer[10]=rtc.Monat%10;
		buffer[11]='.';
		buffer[12]=rtc.Jahr/10;
		buffer[13]=rtc.Jahr%10;
		buffersize=14;
		for(uint8_t i = 0; i<5;i++){
    30aa:	2f 2c       	mov	r2, r15
    30ac:	0f 2e       	mov	r0, r31
    30ae:	f6 e0       	ldi	r31, 0x06	; 6
    30b0:	3f 2e       	mov	r3, r31
    30b2:	f0 2d       	mov	r31, r0
			else {
				oled.draw_ASCI(buffer[i],i*numbersmalsize+numbersmalsize/2,2*charhighte+charhighte/2);
			}
		}
		for(uint8_t i = 6; i<buffersize;i++){
			if(i!=8 && i!=11){
    30b4:	88 e0       	ldi	r24, 0x08	; 8
    30b6:	38 16       	cp	r3, r24
    30b8:	61 f0       	breq	.+24     	; 0x30d2 <_Z13uhreinstellenv+0x1ec>
    30ba:	9b e0       	ldi	r25, 0x0B	; 11
    30bc:	39 16       	cp	r3, r25
    30be:	49 f0       	breq	.+18     	; 0x30d2 <_Z13uhreinstellenv+0x1ec>
				oled.draw_number16x16(buffer[i],i*numbersmalsize-6*numbersmalsize,4*charhighte);
    30c0:	2e 2d       	mov	r18, r14
    30c2:	42 2d       	mov	r20, r2
    30c4:	f8 01       	movw	r30, r16
    30c6:	60 81       	ld	r22, Z
    30c8:	8b e3       	ldi	r24, 0x3B	; 59
    30ca:	94 e0       	ldi	r25, 0x04	; 4
    30cc:	0e 94 66 04 	call	0x8cc	; 0x8cc <_ZN7Display16draw_number16x16Ehhh>
    30d0:	09 c0       	rjmp	.+18     	; 0x30e4 <_Z13uhreinstellenv+0x1fe>
			}
			else {
				oled.draw_ASCI(buffer[i],i*numbersmalsize+numbersmalsize/2-6*numbersmalsize,5*charhighte);
    30d2:	28 e2       	ldi	r18, 0x28	; 40
    30d4:	48 e0       	ldi	r20, 0x08	; 8
    30d6:	42 0d       	add	r20, r2
    30d8:	f8 01       	movw	r30, r16
    30da:	60 81       	ld	r22, Z
    30dc:	8b e3       	ldi	r24, 0x3B	; 59
    30de:	94 e0       	ldi	r25, 0x04	; 4
    30e0:	0e 94 1c 04 	call	0x838	; 0x838 <_ZN7Display9draw_ASCIEhhh>
			}
			else {
				oled.draw_ASCI(buffer[i],i*numbersmalsize+numbersmalsize/2,2*charhighte+charhighte/2);
			}
		}
		for(uint8_t i = 6; i<buffersize;i++){
    30e4:	33 94       	inc	r3
    30e6:	0f 5f       	subi	r16, 0xFF	; 255
    30e8:	1f 4f       	sbci	r17, 0xFF	; 255
    30ea:	f0 e1       	ldi	r31, 0x10	; 16
    30ec:	2f 0e       	add	r2, r31
    30ee:	8e e0       	ldi	r24, 0x0E	; 14
    30f0:	38 12       	cpse	r3, r24
    30f2:	e0 cf       	rjmp	.-64     	; 0x30b4 <_Z13uhreinstellenv+0x1ce>
			else {
				oled.draw_ASCI(buffer[i],i*numbersmalsize+numbersmalsize/2-6*numbersmalsize,5*charhighte);
			}
		}

		oled.sendFrame();
    30f4:	8b e3       	ldi	r24, 0x3B	; 59
    30f6:	94 e0       	ldi	r25, 0x04	; 4
    30f8:	0e 94 7e 03 	call	0x6fc	; 0x6fc <_ZN7Display9sendFrameEv>
		oled.clearFrame();
    30fc:	8b e3       	ldi	r24, 0x3B	; 59
    30fe:	94 e0       	ldi	r25, 0x04	; 4
    3100:	0e 94 04 03 	call	0x608	; 0x608 <_ZN7Display10clearFrameEv>
		switch (pos) {
    3104:	89 2d       	mov	r24, r9
    3106:	90 e0       	ldi	r25, 0x00	; 0
    3108:	8a 30       	cpi	r24, 0x0A	; 10
    310a:	91 05       	cpc	r25, r1
    310c:	08 f0       	brcs	.+2      	; 0x3110 <_Z13uhreinstellenv+0x22a>
    310e:	2c c2       	rjmp	.+1112   	; 0x3568 <_Z13uhreinstellenv+0x682>
    3110:	fc 01       	movw	r30, r24
    3112:	ed 55       	subi	r30, 0x5D	; 93
    3114:	ff 4f       	sbci	r31, 0xFF	; 255
    3116:	0c 94 c5 25 	jmp	0x4b8a	; 0x4b8a <__tablejump2__>
			case 0:
			rtc.Stunden=Tastatur.ZahlenausTastatur()*10;
    311a:	8f e2       	ldi	r24, 0x2F	; 47
    311c:	94 e0       	ldi	r25, 0x04	; 4
    311e:	0e 94 81 08 	call	0x1102	; 0x1102 <_ZN9Interface17ZahlenausTastaturEv>
    3122:	88 0f       	add	r24, r24
    3124:	98 2f       	mov	r25, r24
    3126:	99 0f       	add	r25, r25
    3128:	99 0f       	add	r25, r25
    312a:	89 0f       	add	r24, r25
			if(rtc.Stunden>=24){
    312c:	88 31       	cpi	r24, 0x18	; 24
    312e:	08 f4       	brcc	.+2      	; 0x3132 <_Z13uhreinstellenv+0x24c>
    3130:	57 c2       	rjmp	.+1198   	; 0x35e0 <_Z13uhreinstellenv+0x6fa>
				rtc.Stunden=0;
    3132:	f6 01       	movw	r30, r12
    3134:	10 8a       	std	Z+16, r1	; 0x10
				pos=-1;
				buffersize=sprintf(buffer,"Stunden falsch");
    3136:	e4 ee       	ldi	r30, 0xE4	; 228
    3138:	f1 e0       	ldi	r31, 0x01	; 1
    313a:	d2 01       	movw	r26, r4
    313c:	87 2d       	mov	r24, r7
    313e:	01 90       	ld	r0, Z+
    3140:	0d 92       	st	X+, r0
    3142:	8a 95       	dec	r24
    3144:	e1 f7       	brne	.-8      	; 0x313e <_Z13uhreinstellenv+0x258>
    3146:	1f 2d       	mov	r17, r15
				for(uint8_t i = 0; i<buffersize;i++){
					oled.draw_ASCI(buffer[i],charsize*i,7*8);
    3148:	f5 01       	movw	r30, r10
    314a:	61 91       	ld	r22, Z+
    314c:	5f 01       	movw	r10, r30
    314e:	28 e3       	ldi	r18, 0x38	; 56
    3150:	41 2f       	mov	r20, r17
    3152:	8b e3       	ldi	r24, 0x3B	; 59
    3154:	94 e0       	ldi	r25, 0x04	; 4
    3156:	0e 94 1c 04 	call	0x838	; 0x838 <_ZN7Display9draw_ASCIEhhh>
    315a:	1a 5f       	subi	r17, 0xFA	; 250
			rtc.Stunden=Tastatur.ZahlenausTastatur()*10;
			if(rtc.Stunden>=24){
				rtc.Stunden=0;
				pos=-1;
				buffersize=sprintf(buffer,"Stunden falsch");
				for(uint8_t i = 0; i<buffersize;i++){
    315c:	14 35       	cpi	r17, 0x54	; 84
    315e:	a1 f7       	brne	.-24     	; 0x3148 <_Z13uhreinstellenv+0x262>
		switch (pos) {
			case 0:
			rtc.Stunden=Tastatur.ZahlenausTastatur()*10;
			if(rtc.Stunden>=24){
				rtc.Stunden=0;
				pos=-1;
    3160:	99 24       	eor	r9, r9
    3162:	9a 94       	dec	r9
    3164:	3f c2       	rjmp	.+1150   	; 0x35e4 <_Z13uhreinstellenv+0x6fe>
					oled.draw_ASCI(buffer[i],charsize*i,7*8);
				}
			}
			break;
			case 1:
			rtc.Stunden+=Tastatur.ZahlenausTastatur();
    3166:	8f e2       	ldi	r24, 0x2F	; 47
    3168:	94 e0       	ldi	r25, 0x04	; 4
    316a:	0e 94 81 08 	call	0x1102	; 0x1102 <_ZN9Interface17ZahlenausTastaturEv>
    316e:	f6 01       	movw	r30, r12
    3170:	20 89       	ldd	r18, Z+16	; 0x10
    3172:	90 e0       	ldi	r25, 0x00	; 0
    3174:	82 0f       	add	r24, r18
    3176:	91 1d       	adc	r25, r1
			if(rtc.Stunden>=24){
    3178:	88 31       	cpi	r24, 0x18	; 24
    317a:	10 f4       	brcc	.+4      	; 0x3180 <_Z13uhreinstellenv+0x29a>
					oled.draw_ASCI(buffer[i],charsize*i,7*8);
				}
			}
			break;
			case 1:
			rtc.Stunden+=Tastatur.ZahlenausTastatur();
    317c:	80 8b       	std	Z+16, r24	; 0x10
    317e:	32 c2       	rjmp	.+1124   	; 0x35e4 <_Z13uhreinstellenv+0x6fe>
			if(rtc.Stunden>=24){
				rtc.Stunden=0;
    3180:	f6 01       	movw	r30, r12
    3182:	10 8a       	std	Z+16, r1	; 0x10
				pos=-1;
				buffersize=sprintf(buffer,"Stunden falsch");
    3184:	e4 ee       	ldi	r30, 0xE4	; 228
    3186:	f1 e0       	ldi	r31, 0x01	; 1
    3188:	d2 01       	movw	r26, r4
    318a:	87 2d       	mov	r24, r7
    318c:	01 90       	ld	r0, Z+
    318e:	0d 92       	st	X+, r0
    3190:	8a 95       	dec	r24
    3192:	e1 f7       	brne	.-8      	; 0x318c <_Z13uhreinstellenv+0x2a6>
    3194:	1f 2d       	mov	r17, r15
				for(uint8_t i = 0; i<buffersize;i++){
					oled.draw_ASCI(buffer[i],charsize*i,7*8);
    3196:	f5 01       	movw	r30, r10
    3198:	61 91       	ld	r22, Z+
    319a:	5f 01       	movw	r10, r30
    319c:	28 e3       	ldi	r18, 0x38	; 56
    319e:	41 2f       	mov	r20, r17
    31a0:	8b e3       	ldi	r24, 0x3B	; 59
    31a2:	94 e0       	ldi	r25, 0x04	; 4
    31a4:	0e 94 1c 04 	call	0x838	; 0x838 <_ZN7Display9draw_ASCIEhhh>
    31a8:	1a 5f       	subi	r17, 0xFA	; 250
			rtc.Stunden+=Tastatur.ZahlenausTastatur();
			if(rtc.Stunden>=24){
				rtc.Stunden=0;
				pos=-1;
				buffersize=sprintf(buffer,"Stunden falsch");
				for(uint8_t i = 0; i<buffersize;i++){
    31aa:	14 35       	cpi	r17, 0x54	; 84
    31ac:	a1 f7       	brne	.-24     	; 0x3196 <_Z13uhreinstellenv+0x2b0>
			break;
			case 1:
			rtc.Stunden+=Tastatur.ZahlenausTastatur();
			if(rtc.Stunden>=24){
				rtc.Stunden=0;
				pos=-1;
    31ae:	99 24       	eor	r9, r9
    31b0:	9a 94       	dec	r9
    31b2:	18 c2       	rjmp	.+1072   	; 0x35e4 <_Z13uhreinstellenv+0x6fe>
					oled.draw_ASCI(buffer[i],charsize*i,7*8);
				}
			}
			break;
			case 2:
			rtc.Minuten=Tastatur.ZahlenausTastatur()*10;
    31b4:	8f e2       	ldi	r24, 0x2F	; 47
    31b6:	94 e0       	ldi	r25, 0x04	; 4
    31b8:	0e 94 81 08 	call	0x1102	; 0x1102 <_ZN9Interface17ZahlenausTastaturEv>
    31bc:	88 0f       	add	r24, r24
    31be:	98 2f       	mov	r25, r24
    31c0:	99 0f       	add	r25, r25
    31c2:	99 0f       	add	r25, r25
    31c4:	89 0f       	add	r24, r25
			if(rtc.Minuten>=60){
    31c6:	8c 33       	cpi	r24, 0x3C	; 60
    31c8:	18 f4       	brcc	.+6      	; 0x31d0 <_Z13uhreinstellenv+0x2ea>
					oled.draw_ASCI(buffer[i],charsize*i,7*8);
				}
			}
			break;
			case 2:
			rtc.Minuten=Tastatur.ZahlenausTastatur()*10;
    31ca:	f6 01       	movw	r30, r12
    31cc:	81 8b       	std	Z+17, r24	; 0x11
    31ce:	0a c2       	rjmp	.+1044   	; 0x35e4 <_Z13uhreinstellenv+0x6fe>
			if(rtc.Minuten>=60){
				rtc.Minuten=0;
    31d0:	f6 01       	movw	r30, r12
    31d2:	11 8a       	std	Z+17, r1	; 0x11
				pos=1;
				buffersize=sprintf(buffer,"Minuten falsch");
    31d4:	e3 ef       	ldi	r30, 0xF3	; 243
    31d6:	f1 e0       	ldi	r31, 0x01	; 1
    31d8:	d2 01       	movw	r26, r4
    31da:	87 2d       	mov	r24, r7
    31dc:	01 90       	ld	r0, Z+
    31de:	0d 92       	st	X+, r0
    31e0:	8a 95       	dec	r24
    31e2:	e1 f7       	brne	.-8      	; 0x31dc <_Z13uhreinstellenv+0x2f6>
    31e4:	1f 2d       	mov	r17, r15
				for(uint8_t i = 0; i<buffersize;i++){
					oled.draw_ASCI(buffer[i],charsize*i,7*8);
    31e6:	f5 01       	movw	r30, r10
    31e8:	61 91       	ld	r22, Z+
    31ea:	5f 01       	movw	r10, r30
    31ec:	28 e3       	ldi	r18, 0x38	; 56
    31ee:	41 2f       	mov	r20, r17
    31f0:	8b e3       	ldi	r24, 0x3B	; 59
    31f2:	94 e0       	ldi	r25, 0x04	; 4
    31f4:	0e 94 1c 04 	call	0x838	; 0x838 <_ZN7Display9draw_ASCIEhhh>
    31f8:	1a 5f       	subi	r17, 0xFA	; 250
			rtc.Minuten=Tastatur.ZahlenausTastatur()*10;
			if(rtc.Minuten>=60){
				rtc.Minuten=0;
				pos=1;
				buffersize=sprintf(buffer,"Minuten falsch");
				for(uint8_t i = 0; i<buffersize;i++){
    31fa:	14 35       	cpi	r17, 0x54	; 84
    31fc:	a1 f7       	brne	.-24     	; 0x31e6 <_Z13uhreinstellenv+0x300>
			break;
			case 2:
			rtc.Minuten=Tastatur.ZahlenausTastatur()*10;
			if(rtc.Minuten>=60){
				rtc.Minuten=0;
				pos=1;
    31fe:	99 24       	eor	r9, r9
    3200:	93 94       	inc	r9
    3202:	f0 c1       	rjmp	.+992    	; 0x35e4 <_Z13uhreinstellenv+0x6fe>
					oled.draw_ASCI(buffer[i],charsize*i,7*8);
				}
			}
			break;
			case 3:
			rtc.Minuten+=Tastatur.ZahlenausTastatur();
    3204:	8f e2       	ldi	r24, 0x2F	; 47
    3206:	94 e0       	ldi	r25, 0x04	; 4
    3208:	0e 94 81 08 	call	0x1102	; 0x1102 <_ZN9Interface17ZahlenausTastaturEv>
    320c:	f6 01       	movw	r30, r12
    320e:	21 89       	ldd	r18, Z+17	; 0x11
    3210:	90 e0       	ldi	r25, 0x00	; 0
    3212:	82 0f       	add	r24, r18
    3214:	91 1d       	adc	r25, r1
			if(rtc.Minuten>=60){
    3216:	8c 33       	cpi	r24, 0x3C	; 60
    3218:	10 f4       	brcc	.+4      	; 0x321e <_Z13uhreinstellenv+0x338>
					oled.draw_ASCI(buffer[i],charsize*i,7*8);
				}
			}
			break;
			case 3:
			rtc.Minuten+=Tastatur.ZahlenausTastatur();
    321a:	81 8b       	std	Z+17, r24	; 0x11
    321c:	e3 c1       	rjmp	.+966    	; 0x35e4 <_Z13uhreinstellenv+0x6fe>
			if(rtc.Minuten>=60){
				rtc.Minuten=0;
    321e:	f6 01       	movw	r30, r12
    3220:	11 8a       	std	Z+17, r1	; 0x11
				pos=1;
				buffersize=sprintf(buffer,"Minuten falsch");
    3222:	e3 ef       	ldi	r30, 0xF3	; 243
    3224:	f1 e0       	ldi	r31, 0x01	; 1
    3226:	d2 01       	movw	r26, r4
    3228:	87 2d       	mov	r24, r7
    322a:	01 90       	ld	r0, Z+
    322c:	0d 92       	st	X+, r0
    322e:	8a 95       	dec	r24
    3230:	e1 f7       	brne	.-8      	; 0x322a <_Z13uhreinstellenv+0x344>
    3232:	1f 2d       	mov	r17, r15
				for(uint8_t i = 0; i<buffersize;i++){
					oled.draw_ASCI(buffer[i],charsize*i,7*8);
    3234:	f5 01       	movw	r30, r10
    3236:	61 91       	ld	r22, Z+
    3238:	5f 01       	movw	r10, r30
    323a:	28 e3       	ldi	r18, 0x38	; 56
    323c:	41 2f       	mov	r20, r17
    323e:	8b e3       	ldi	r24, 0x3B	; 59
    3240:	94 e0       	ldi	r25, 0x04	; 4
    3242:	0e 94 1c 04 	call	0x838	; 0x838 <_ZN7Display9draw_ASCIEhhh>
    3246:	1a 5f       	subi	r17, 0xFA	; 250
			rtc.Minuten+=Tastatur.ZahlenausTastatur();
			if(rtc.Minuten>=60){
				rtc.Minuten=0;
				pos=1;
				buffersize=sprintf(buffer,"Minuten falsch");
				for(uint8_t i = 0; i<buffersize;i++){
    3248:	14 35       	cpi	r17, 0x54	; 84
    324a:	a1 f7       	brne	.-24     	; 0x3234 <_Z13uhreinstellenv+0x34e>
			break;
			case 3:
			rtc.Minuten+=Tastatur.ZahlenausTastatur();
			if(rtc.Minuten>=60){
				rtc.Minuten=0;
				pos=1;
    324c:	99 24       	eor	r9, r9
    324e:	93 94       	inc	r9
    3250:	c9 c1       	rjmp	.+914    	; 0x35e4 <_Z13uhreinstellenv+0x6fe>
					oled.draw_ASCI(buffer[i],charsize*i,7*8);
				}
			}
			break;
			case 4:
			rtc.Tag=Tastatur.ZahlenausTastatur()*10;
    3252:	8f e2       	ldi	r24, 0x2F	; 47
    3254:	94 e0       	ldi	r25, 0x04	; 4
    3256:	0e 94 81 08 	call	0x1102	; 0x1102 <_ZN9Interface17ZahlenausTastaturEv>
    325a:	88 0f       	add	r24, r24
    325c:	98 2f       	mov	r25, r24
    325e:	99 0f       	add	r25, r25
    3260:	99 0f       	add	r25, r25
    3262:	89 0f       	add	r24, r25
			if(rtc.Tag>=32){
    3264:	80 32       	cpi	r24, 0x20	; 32
    3266:	18 f4       	brcc	.+6      	; 0x326e <_Z13uhreinstellenv+0x388>
					oled.draw_ASCI(buffer[i],charsize*i,7*8);
				}
			}
			break;
			case 4:
			rtc.Tag=Tastatur.ZahlenausTastatur()*10;
    3268:	f6 01       	movw	r30, r12
    326a:	84 8b       	std	Z+20, r24	; 0x14
    326c:	bb c1       	rjmp	.+886    	; 0x35e4 <_Z13uhreinstellenv+0x6fe>
			if(rtc.Tag>=32){
				rtc.Tag=0;
    326e:	f6 01       	movw	r30, r12
    3270:	14 8a       	std	Z+20, r1	; 0x14
				pos=3;
				buffersize=sprintf(buffer,"Tag falsch");
    3272:	8b e0       	ldi	r24, 0x0B	; 11
    3274:	e2 e0       	ldi	r30, 0x02	; 2
    3276:	f2 e0       	ldi	r31, 0x02	; 2
    3278:	d2 01       	movw	r26, r4
    327a:	01 90       	ld	r0, Z+
    327c:	0d 92       	st	X+, r0
    327e:	8a 95       	dec	r24
    3280:	e1 f7       	brne	.-8      	; 0x327a <_Z13uhreinstellenv+0x394>
    3282:	1f 2d       	mov	r17, r15
				for(uint8_t i = 0; i<buffersize;i++){
					oled.draw_ASCI(buffer[i],charsize*i,7*8);
    3284:	f5 01       	movw	r30, r10
    3286:	61 91       	ld	r22, Z+
    3288:	5f 01       	movw	r10, r30
    328a:	28 e3       	ldi	r18, 0x38	; 56
    328c:	41 2f       	mov	r20, r17
    328e:	8b e3       	ldi	r24, 0x3B	; 59
    3290:	94 e0       	ldi	r25, 0x04	; 4
    3292:	0e 94 1c 04 	call	0x838	; 0x838 <_ZN7Display9draw_ASCIEhhh>
    3296:	1a 5f       	subi	r17, 0xFA	; 250
			rtc.Tag=Tastatur.ZahlenausTastatur()*10;
			if(rtc.Tag>=32){
				rtc.Tag=0;
				pos=3;
				buffersize=sprintf(buffer,"Tag falsch");
				for(uint8_t i = 0; i<buffersize;i++){
    3298:	1c 33       	cpi	r17, 0x3C	; 60
    329a:	a1 f7       	brne	.-24     	; 0x3284 <_Z13uhreinstellenv+0x39e>
			break;
			case 4:
			rtc.Tag=Tastatur.ZahlenausTastatur()*10;
			if(rtc.Tag>=32){
				rtc.Tag=0;
				pos=3;
    329c:	0f 2e       	mov	r0, r31
    329e:	f3 e0       	ldi	r31, 0x03	; 3
    32a0:	9f 2e       	mov	r9, r31
    32a2:	f0 2d       	mov	r31, r0
    32a4:	9f c1       	rjmp	.+830    	; 0x35e4 <_Z13uhreinstellenv+0x6fe>
					oled.draw_ASCI(buffer[i],charsize*i,7*8);
				}
			}
			break;
			case 5:
			rtc.Tag+=Tastatur.ZahlenausTastatur();
    32a6:	8f e2       	ldi	r24, 0x2F	; 47
    32a8:	94 e0       	ldi	r25, 0x04	; 4
    32aa:	0e 94 81 08 	call	0x1102	; 0x1102 <_ZN9Interface17ZahlenausTastaturEv>
    32ae:	f6 01       	movw	r30, r12
    32b0:	24 89       	ldd	r18, Z+20	; 0x14
    32b2:	90 e0       	ldi	r25, 0x00	; 0
    32b4:	82 0f       	add	r24, r18
    32b6:	91 1d       	adc	r25, r1
			if(rtc.Tag>=32){
    32b8:	80 32       	cpi	r24, 0x20	; 32
    32ba:	10 f4       	brcc	.+4      	; 0x32c0 <_Z13uhreinstellenv+0x3da>
					oled.draw_ASCI(buffer[i],charsize*i,7*8);
				}
			}
			break;
			case 5:
			rtc.Tag+=Tastatur.ZahlenausTastatur();
    32bc:	84 8b       	std	Z+20, r24	; 0x14
    32be:	92 c1       	rjmp	.+804    	; 0x35e4 <_Z13uhreinstellenv+0x6fe>
			if(rtc.Tag>=32){
				rtc.Tag=0;
    32c0:	f6 01       	movw	r30, r12
    32c2:	14 8a       	std	Z+20, r1	; 0x14
				pos=3;
				buffersize=sprintf(buffer,"Tag falsch");
    32c4:	8b e0       	ldi	r24, 0x0B	; 11
    32c6:	e2 e0       	ldi	r30, 0x02	; 2
    32c8:	f2 e0       	ldi	r31, 0x02	; 2
    32ca:	d2 01       	movw	r26, r4
    32cc:	01 90       	ld	r0, Z+
    32ce:	0d 92       	st	X+, r0
    32d0:	8a 95       	dec	r24
    32d2:	e1 f7       	brne	.-8      	; 0x32cc <_Z13uhreinstellenv+0x3e6>
    32d4:	1f 2d       	mov	r17, r15
				for(uint8_t i = 0; i<buffersize;i++){
					oled.draw_ASCI(buffer[i],charsize*i,7*8);
    32d6:	f5 01       	movw	r30, r10
    32d8:	61 91       	ld	r22, Z+
    32da:	5f 01       	movw	r10, r30
    32dc:	28 e3       	ldi	r18, 0x38	; 56
    32de:	41 2f       	mov	r20, r17
    32e0:	8b e3       	ldi	r24, 0x3B	; 59
    32e2:	94 e0       	ldi	r25, 0x04	; 4
    32e4:	0e 94 1c 04 	call	0x838	; 0x838 <_ZN7Display9draw_ASCIEhhh>
    32e8:	1a 5f       	subi	r17, 0xFA	; 250
			rtc.Tag+=Tastatur.ZahlenausTastatur();
			if(rtc.Tag>=32){
				rtc.Tag=0;
				pos=3;
				buffersize=sprintf(buffer,"Tag falsch");
				for(uint8_t i = 0; i<buffersize;i++){
    32ea:	1c 33       	cpi	r17, 0x3C	; 60
    32ec:	a1 f7       	brne	.-24     	; 0x32d6 <_Z13uhreinstellenv+0x3f0>
			break;
			case 5:
			rtc.Tag+=Tastatur.ZahlenausTastatur();
			if(rtc.Tag>=32){
				rtc.Tag=0;
				pos=3;
    32ee:	0f 2e       	mov	r0, r31
    32f0:	f3 e0       	ldi	r31, 0x03	; 3
    32f2:	9f 2e       	mov	r9, r31
    32f4:	f0 2d       	mov	r31, r0
    32f6:	76 c1       	rjmp	.+748    	; 0x35e4 <_Z13uhreinstellenv+0x6fe>
					oled.draw_ASCI(buffer[i],charsize*i,7*8);
				}
			}
			break;
			case 6:
			rtc.Monat=Tastatur.ZahlenausTastatur()*10;
    32f8:	8f e2       	ldi	r24, 0x2F	; 47
    32fa:	94 e0       	ldi	r25, 0x04	; 4
    32fc:	0e 94 81 08 	call	0x1102	; 0x1102 <_ZN9Interface17ZahlenausTastaturEv>
    3300:	88 0f       	add	r24, r24
    3302:	98 2f       	mov	r25, r24
    3304:	99 0f       	add	r25, r25
    3306:	99 0f       	add	r25, r25
    3308:	89 0f       	add	r24, r25
			if(rtc.Monat>=13){
    330a:	8d 30       	cpi	r24, 0x0D	; 13
    330c:	18 f4       	brcc	.+6      	; 0x3314 <_Z13uhreinstellenv+0x42e>
					oled.draw_ASCI(buffer[i],charsize*i,7*8);
				}
			}
			break;
			case 6:
			rtc.Monat=Tastatur.ZahlenausTastatur()*10;
    330e:	f6 01       	movw	r30, r12
    3310:	86 8b       	std	Z+22, r24	; 0x16
    3312:	68 c1       	rjmp	.+720    	; 0x35e4 <_Z13uhreinstellenv+0x6fe>
			if(rtc.Monat>=13){
				rtc.Monat=0;
    3314:	f6 01       	movw	r30, r12
    3316:	16 8a       	std	Z+22, r1	; 0x16
				pos=5;
				buffersize=sprintf(buffer,"Monat falsch");
    3318:	8d e0       	ldi	r24, 0x0D	; 13
    331a:	ed e0       	ldi	r30, 0x0D	; 13
    331c:	f2 e0       	ldi	r31, 0x02	; 2
    331e:	d2 01       	movw	r26, r4
    3320:	01 90       	ld	r0, Z+
    3322:	0d 92       	st	X+, r0
    3324:	8a 95       	dec	r24
    3326:	e1 f7       	brne	.-8      	; 0x3320 <_Z13uhreinstellenv+0x43a>
    3328:	1f 2d       	mov	r17, r15
				for(uint8_t i = 0; i<buffersize;i++){
					oled.draw_ASCI(buffer[i],charsize*i,7*8);
    332a:	f5 01       	movw	r30, r10
    332c:	61 91       	ld	r22, Z+
    332e:	5f 01       	movw	r10, r30
    3330:	28 e3       	ldi	r18, 0x38	; 56
    3332:	41 2f       	mov	r20, r17
    3334:	8b e3       	ldi	r24, 0x3B	; 59
    3336:	94 e0       	ldi	r25, 0x04	; 4
    3338:	0e 94 1c 04 	call	0x838	; 0x838 <_ZN7Display9draw_ASCIEhhh>
    333c:	1a 5f       	subi	r17, 0xFA	; 250
			rtc.Monat=Tastatur.ZahlenausTastatur()*10;
			if(rtc.Monat>=13){
				rtc.Monat=0;
				pos=5;
				buffersize=sprintf(buffer,"Monat falsch");
				for(uint8_t i = 0; i<buffersize;i++){
    333e:	18 34       	cpi	r17, 0x48	; 72
    3340:	a1 f7       	brne	.-24     	; 0x332a <_Z13uhreinstellenv+0x444>
			break;
			case 6:
			rtc.Monat=Tastatur.ZahlenausTastatur()*10;
			if(rtc.Monat>=13){
				rtc.Monat=0;
				pos=5;
    3342:	0f 2e       	mov	r0, r31
    3344:	f5 e0       	ldi	r31, 0x05	; 5
    3346:	9f 2e       	mov	r9, r31
    3348:	f0 2d       	mov	r31, r0
    334a:	4c c1       	rjmp	.+664    	; 0x35e4 <_Z13uhreinstellenv+0x6fe>
					oled.draw_ASCI(buffer[i],charsize*i,7*8);
				}
			}
			break;
			case 7:
			rtc.Monat+=Tastatur.ZahlenausTastatur();
    334c:	8f e2       	ldi	r24, 0x2F	; 47
    334e:	94 e0       	ldi	r25, 0x04	; 4
    3350:	0e 94 81 08 	call	0x1102	; 0x1102 <_ZN9Interface17ZahlenausTastaturEv>
    3354:	f6 01       	movw	r30, r12
    3356:	26 89       	ldd	r18, Z+22	; 0x16
    3358:	90 e0       	ldi	r25, 0x00	; 0
    335a:	82 0f       	add	r24, r18
    335c:	91 1d       	adc	r25, r1
			if(rtc.Monat>=13){
    335e:	8d 30       	cpi	r24, 0x0D	; 13
    3360:	10 f4       	brcc	.+4      	; 0x3366 <_Z13uhreinstellenv+0x480>
					oled.draw_ASCI(buffer[i],charsize*i,7*8);
				}
			}
			break;
			case 7:
			rtc.Monat+=Tastatur.ZahlenausTastatur();
    3362:	86 8b       	std	Z+22, r24	; 0x16
    3364:	1d c0       	rjmp	.+58     	; 0x33a0 <_Z13uhreinstellenv+0x4ba>
			if(rtc.Monat>=13){
				rtc.Monat=0;
    3366:	f6 01       	movw	r30, r12
    3368:	16 8a       	std	Z+22, r1	; 0x16
				pos=5;
				buffersize=sprintf(buffer,"Monat falsch");
    336a:	8d e0       	ldi	r24, 0x0D	; 13
    336c:	ed e0       	ldi	r30, 0x0D	; 13
    336e:	f2 e0       	ldi	r31, 0x02	; 2
    3370:	d2 01       	movw	r26, r4
    3372:	01 90       	ld	r0, Z+
    3374:	0d 92       	st	X+, r0
    3376:	8a 95       	dec	r24
    3378:	e1 f7       	brne	.-8      	; 0x3372 <_Z13uhreinstellenv+0x48c>
    337a:	2d 88       	ldd	r2, Y+21	; 0x15
    337c:	3e 88       	ldd	r3, Y+22	; 0x16
    337e:	1f 2d       	mov	r17, r15
				for(uint8_t i = 0; i<buffersize;i++){
					oled.draw_ASCI(buffer[i],charsize*i,7*8);
    3380:	f1 01       	movw	r30, r2
    3382:	61 91       	ld	r22, Z+
    3384:	1f 01       	movw	r2, r30
    3386:	28 e3       	ldi	r18, 0x38	; 56
    3388:	41 2f       	mov	r20, r17
    338a:	8b e3       	ldi	r24, 0x3B	; 59
    338c:	94 e0       	ldi	r25, 0x04	; 4
    338e:	0e 94 1c 04 	call	0x838	; 0x838 <_ZN7Display9draw_ASCIEhhh>
    3392:	1a 5f       	subi	r17, 0xFA	; 250
			rtc.Monat+=Tastatur.ZahlenausTastatur();
			if(rtc.Monat>=13){
				rtc.Monat=0;
				pos=5;
				buffersize=sprintf(buffer,"Monat falsch");
				for(uint8_t i = 0; i<buffersize;i++){
    3394:	18 34       	cpi	r17, 0x48	; 72
    3396:	a1 f7       	brne	.-24     	; 0x3380 <_Z13uhreinstellenv+0x49a>
			break;
			case 7:
			rtc.Monat+=Tastatur.ZahlenausTastatur();
			if(rtc.Monat>=13){
				rtc.Monat=0;
				pos=5;
    3398:	0f 2e       	mov	r0, r31
    339a:	f5 e0       	ldi	r31, 0x05	; 5
    339c:	9f 2e       	mov	r9, r31
    339e:	f0 2d       	mov	r31, r0
				buffersize=sprintf(buffer,"Monat falsch");
				for(uint8_t i = 0; i<buffersize;i++){
					oled.draw_ASCI(buffer[i],charsize*i,7*8);
				}
			}
			if(rtc.Monat==4||rtc.Monat==6||rtc.Monat==9||rtc.Monat==11){
    33a0:	f6 01       	movw	r30, r12
    33a2:	96 89       	ldd	r25, Z+22	; 0x16
    33a4:	89 2f       	mov	r24, r25
    33a6:	8d 7f       	andi	r24, 0xFD	; 253
    33a8:	84 30       	cpi	r24, 0x04	; 4
    33aa:	11 f0       	breq	.+4      	; 0x33b0 <_Z13uhreinstellenv+0x4ca>
    33ac:	89 30       	cpi	r24, 0x09	; 9
    33ae:	09 f5       	brne	.+66     	; 0x33f2 <_Z13uhreinstellenv+0x50c>
				if(rtc.Tag>=31){
    33b0:	f6 01       	movw	r30, r12
    33b2:	84 89       	ldd	r24, Z+20	; 0x14
    33b4:	8f 31       	cpi	r24, 0x1F	; 31
    33b6:	08 f4       	brcc	.+2      	; 0x33ba <_Z13uhreinstellenv+0x4d4>
    33b8:	d8 c0       	rjmp	.+432    	; 0x356a <_Z13uhreinstellenv+0x684>
					rtc.Tag=0;
    33ba:	14 8a       	std	Z+20, r1	; 0x14
					rtc.Monat=0;
    33bc:	16 8a       	std	Z+22, r1	; 0x16
					pos=3;
					buffersize=sprintf(buffer,"Tag falsch");
    33be:	8b e0       	ldi	r24, 0x0B	; 11
    33c0:	e2 e0       	ldi	r30, 0x02	; 2
    33c2:	f2 e0       	ldi	r31, 0x02	; 2
    33c4:	d2 01       	movw	r26, r4
    33c6:	01 90       	ld	r0, Z+
    33c8:	0d 92       	st	X+, r0
    33ca:	8a 95       	dec	r24
    33cc:	e1 f7       	brne	.-8      	; 0x33c6 <_Z13uhreinstellenv+0x4e0>
    33ce:	1f 2d       	mov	r17, r15
					for(uint8_t i = 0; i<buffersize;i++){
						oled.draw_ASCI(buffer[i],charsize*i,7*8);
    33d0:	f5 01       	movw	r30, r10
    33d2:	61 91       	ld	r22, Z+
    33d4:	5f 01       	movw	r10, r30
    33d6:	28 e3       	ldi	r18, 0x38	; 56
    33d8:	41 2f       	mov	r20, r17
    33da:	8b e3       	ldi	r24, 0x3B	; 59
    33dc:	94 e0       	ldi	r25, 0x04	; 4
    33de:	0e 94 1c 04 	call	0x838	; 0x838 <_ZN7Display9draw_ASCIEhhh>
    33e2:	1a 5f       	subi	r17, 0xFA	; 250
				if(rtc.Tag>=31){
					rtc.Tag=0;
					rtc.Monat=0;
					pos=3;
					buffersize=sprintf(buffer,"Tag falsch");
					for(uint8_t i = 0; i<buffersize;i++){
    33e4:	1c 33       	cpi	r17, 0x3C	; 60
    33e6:	a1 f7       	brne	.-24     	; 0x33d0 <_Z13uhreinstellenv+0x4ea>
			}
			if(rtc.Monat==4||rtc.Monat==6||rtc.Monat==9||rtc.Monat==11){
				if(rtc.Tag>=31){
					rtc.Tag=0;
					rtc.Monat=0;
					pos=3;
    33e8:	0f 2e       	mov	r0, r31
    33ea:	f3 e0       	ldi	r31, 0x03	; 3
    33ec:	9f 2e       	mov	r9, r31
    33ee:	f0 2d       	mov	r31, r0
    33f0:	f9 c0       	rjmp	.+498    	; 0x35e4 <_Z13uhreinstellenv+0x6fe>
					for(uint8_t i = 0; i<buffersize;i++){
						oled.draw_ASCI(buffer[i],charsize*i,7*8);
					}
				}
			}
			else if(rtc.Monat==2){
    33f2:	92 30       	cpi	r25, 0x02	; 2
    33f4:	09 f0       	breq	.+2      	; 0x33f8 <_Z13uhreinstellenv+0x512>
    33f6:	b9 c0       	rjmp	.+370    	; 0x356a <_Z13uhreinstellenv+0x684>
				if(rtc.Tag>=30){
    33f8:	f6 01       	movw	r30, r12
    33fa:	84 89       	ldd	r24, Z+20	; 0x14
    33fc:	8e 31       	cpi	r24, 0x1E	; 30
    33fe:	08 f4       	brcc	.+2      	; 0x3402 <_Z13uhreinstellenv+0x51c>
    3400:	b4 c0       	rjmp	.+360    	; 0x356a <_Z13uhreinstellenv+0x684>
					rtc.Tag=0;
    3402:	14 8a       	std	Z+20, r1	; 0x14
					rtc.Monat=0;
    3404:	16 8a       	std	Z+22, r1	; 0x16
					pos=3;
					buffersize=sprintf(buffer,"Tag falsch");
    3406:	8b e0       	ldi	r24, 0x0B	; 11
    3408:	e2 e0       	ldi	r30, 0x02	; 2
    340a:	f2 e0       	ldi	r31, 0x02	; 2
    340c:	d2 01       	movw	r26, r4
    340e:	01 90       	ld	r0, Z+
    3410:	0d 92       	st	X+, r0
    3412:	8a 95       	dec	r24
    3414:	e1 f7       	brne	.-8      	; 0x340e <_Z13uhreinstellenv+0x528>
    3416:	1f 2d       	mov	r17, r15
					for(uint8_t i = 0; i<buffersize;i++){
						oled.draw_ASCI(buffer[i],charsize*i,7*8);
    3418:	f5 01       	movw	r30, r10
    341a:	61 91       	ld	r22, Z+
    341c:	5f 01       	movw	r10, r30
    341e:	28 e3       	ldi	r18, 0x38	; 56
    3420:	41 2f       	mov	r20, r17
    3422:	8b e3       	ldi	r24, 0x3B	; 59
    3424:	94 e0       	ldi	r25, 0x04	; 4
    3426:	0e 94 1c 04 	call	0x838	; 0x838 <_ZN7Display9draw_ASCIEhhh>
    342a:	1a 5f       	subi	r17, 0xFA	; 250
				if(rtc.Tag>=30){
					rtc.Tag=0;
					rtc.Monat=0;
					pos=3;
					buffersize=sprintf(buffer,"Tag falsch");
					for(uint8_t i = 0; i<buffersize;i++){
    342c:	1c 33       	cpi	r17, 0x3C	; 60
    342e:	a1 f7       	brne	.-24     	; 0x3418 <_Z13uhreinstellenv+0x532>
			}
			else if(rtc.Monat==2){
				if(rtc.Tag>=30){
					rtc.Tag=0;
					rtc.Monat=0;
					pos=3;
    3430:	0f 2e       	mov	r0, r31
    3432:	f3 e0       	ldi	r31, 0x03	; 3
    3434:	9f 2e       	mov	r9, r31
    3436:	f0 2d       	mov	r31, r0
    3438:	d5 c0       	rjmp	.+426    	; 0x35e4 <_Z13uhreinstellenv+0x6fe>
					}
				}
			}
			break;
			case 8:
			rtc.Jahr=Tastatur.ZahlenausTastatur()*10;
    343a:	8f e2       	ldi	r24, 0x2F	; 47
    343c:	94 e0       	ldi	r25, 0x04	; 4
    343e:	0e 94 81 08 	call	0x1102	; 0x1102 <_ZN9Interface17ZahlenausTastaturEv>
    3442:	88 0f       	add	r24, r24
    3444:	98 2f       	mov	r25, r24
    3446:	99 0f       	add	r25, r25
    3448:	99 0f       	add	r25, r25
    344a:	89 0f       	add	r24, r25
			if(rtc.Jahr>=50){
    344c:	82 33       	cpi	r24, 0x32	; 50
    344e:	18 f4       	brcc	.+6      	; 0x3456 <_Z13uhreinstellenv+0x570>
					}
				}
			}
			break;
			case 8:
			rtc.Jahr=Tastatur.ZahlenausTastatur()*10;
    3450:	f6 01       	movw	r30, r12
    3452:	87 8b       	std	Z+23, r24	; 0x17
    3454:	c7 c0       	rjmp	.+398    	; 0x35e4 <_Z13uhreinstellenv+0x6fe>
			if(rtc.Jahr>=50){
				rtc.Jahr=0;
    3456:	f6 01       	movw	r30, r12
    3458:	17 8a       	std	Z+23, r1	; 0x17
				pos=7;
				buffersize=sprintf(buffer,"Jahr falsch");
    345a:	8c e0       	ldi	r24, 0x0C	; 12
    345c:	ea e1       	ldi	r30, 0x1A	; 26
    345e:	f2 e0       	ldi	r31, 0x02	; 2
    3460:	d2 01       	movw	r26, r4
    3462:	01 90       	ld	r0, Z+
    3464:	0d 92       	st	X+, r0
    3466:	8a 95       	dec	r24
    3468:	e1 f7       	brne	.-8      	; 0x3462 <_Z13uhreinstellenv+0x57c>
    346a:	1f 2d       	mov	r17, r15
				for(uint8_t i = 0; i<buffersize;i++){
					oled.draw_ASCI(buffer[i],charsize*i,7*8);
    346c:	f5 01       	movw	r30, r10
    346e:	61 91       	ld	r22, Z+
    3470:	5f 01       	movw	r10, r30
    3472:	28 e3       	ldi	r18, 0x38	; 56
    3474:	41 2f       	mov	r20, r17
    3476:	8b e3       	ldi	r24, 0x3B	; 59
    3478:	94 e0       	ldi	r25, 0x04	; 4
    347a:	0e 94 1c 04 	call	0x838	; 0x838 <_ZN7Display9draw_ASCIEhhh>
    347e:	1a 5f       	subi	r17, 0xFA	; 250
			rtc.Jahr=Tastatur.ZahlenausTastatur()*10;
			if(rtc.Jahr>=50){
				rtc.Jahr=0;
				pos=7;
				buffersize=sprintf(buffer,"Jahr falsch");
				for(uint8_t i = 0; i<buffersize;i++){
    3480:	12 34       	cpi	r17, 0x42	; 66
    3482:	a1 f7       	brne	.-24     	; 0x346c <_Z13uhreinstellenv+0x586>
			break;
			case 8:
			rtc.Jahr=Tastatur.ZahlenausTastatur()*10;
			if(rtc.Jahr>=50){
				rtc.Jahr=0;
				pos=7;
    3484:	0f 2e       	mov	r0, r31
    3486:	f7 e0       	ldi	r31, 0x07	; 7
    3488:	9f 2e       	mov	r9, r31
    348a:	f0 2d       	mov	r31, r0
    348c:	ab c0       	rjmp	.+342    	; 0x35e4 <_Z13uhreinstellenv+0x6fe>
					oled.draw_ASCI(buffer[i],charsize*i,7*8);
				}
			}
			break;
			case 9:
			rtc.Jahr+=Tastatur.ZahlenausTastatur();
    348e:	8f e2       	ldi	r24, 0x2F	; 47
    3490:	94 e0       	ldi	r25, 0x04	; 4
    3492:	0e 94 81 08 	call	0x1102	; 0x1102 <_ZN9Interface17ZahlenausTastaturEv>
    3496:	f6 01       	movw	r30, r12
    3498:	27 89       	ldd	r18, Z+23	; 0x17
    349a:	90 e0       	ldi	r25, 0x00	; 0
    349c:	82 0f       	add	r24, r18
    349e:	91 1d       	adc	r25, r1
			if(rtc.Jahr>=50){
    34a0:	82 33       	cpi	r24, 0x32	; 50
    34a2:	08 f4       	brcc	.+2      	; 0x34a6 <_Z13uhreinstellenv+0x5c0>
    34a4:	96 c0       	rjmp	.+300    	; 0x35d2 <_Z13uhreinstellenv+0x6ec>
				rtc.Jahr=0;
    34a6:	17 8a       	std	Z+23, r1	; 0x17
				pos=7;
				buffersize=sprintf(buffer,"Jahr falsch");
    34a8:	8c e0       	ldi	r24, 0x0C	; 12
    34aa:	ea e1       	ldi	r30, 0x1A	; 26
    34ac:	f2 e0       	ldi	r31, 0x02	; 2
    34ae:	d2 01       	movw	r26, r4
    34b0:	01 90       	ld	r0, Z+
    34b2:	0d 92       	st	X+, r0
    34b4:	8a 95       	dec	r24
    34b6:	e1 f7       	brne	.-8      	; 0x34b0 <_Z13uhreinstellenv+0x5ca>
    34b8:	2d 88       	ldd	r2, Y+21	; 0x15
    34ba:	3e 88       	ldd	r3, Y+22	; 0x16
    34bc:	1f 2d       	mov	r17, r15
				for(uint8_t i = 0; i<buffersize;i++){
					oled.draw_ASCI(buffer[i],charsize*i,7*8);
    34be:	f1 01       	movw	r30, r2
    34c0:	61 91       	ld	r22, Z+
    34c2:	1f 01       	movw	r2, r30
    34c4:	28 e3       	ldi	r18, 0x38	; 56
    34c6:	41 2f       	mov	r20, r17
    34c8:	8b e3       	ldi	r24, 0x3B	; 59
    34ca:	94 e0       	ldi	r25, 0x04	; 4
    34cc:	0e 94 1c 04 	call	0x838	; 0x838 <_ZN7Display9draw_ASCIEhhh>
    34d0:	1a 5f       	subi	r17, 0xFA	; 250
			rtc.Jahr+=Tastatur.ZahlenausTastatur();
			if(rtc.Jahr>=50){
				rtc.Jahr=0;
				pos=7;
				buffersize=sprintf(buffer,"Jahr falsch");
				for(uint8_t i = 0; i<buffersize;i++){
    34d2:	12 34       	cpi	r17, 0x42	; 66
    34d4:	a1 f7       	brne	.-24     	; 0x34be <_Z13uhreinstellenv+0x5d8>
			break;
			case 9:
			rtc.Jahr+=Tastatur.ZahlenausTastatur();
			if(rtc.Jahr>=50){
				rtc.Jahr=0;
				pos=7;
    34d6:	0f 2e       	mov	r0, r31
    34d8:	f7 e0       	ldi	r31, 0x07	; 7
    34da:	9f 2e       	mov	r9, r31
    34dc:	f0 2d       	mov	r31, r0
    34de:	7b c0       	rjmp	.+246    	; 0x35d6 <_Z13uhreinstellenv+0x6f0>
				for(uint8_t i = 0; i<buffersize;i++){
					oled.draw_ASCI(buffer[i],charsize*i,7*8);
				}
			}
			if(rtc.Monat==2){
				if(rtc.Jahr%4==0){
    34e0:	f6 01       	movw	r30, r12
    34e2:	17 89       	ldd	r17, Z+23	; 0x17
    34e4:	13 70       	andi	r17, 0x03	; 3
    34e6:	f9 f4       	brne	.+62     	; 0x3526 <_Z13uhreinstellenv+0x640>
					if (rtc.Tag>=30)
    34e8:	84 89       	ldd	r24, Z+20	; 0x14
    34ea:	8e 31       	cpi	r24, 0x1E	; 30
    34ec:	f0 f1       	brcs	.+124    	; 0x356a <_Z13uhreinstellenv+0x684>
					{
						rtc.Tag=0;
    34ee:	14 8a       	std	Z+20, r1	; 0x14
						rtc.Monat=0;
    34f0:	16 8a       	std	Z+22, r1	; 0x16
						rtc.Jahr=0;
    34f2:	17 8a       	std	Z+23, r1	; 0x17
						pos=3;
						buffersize=sprintf(buffer,"Tag falsch");
    34f4:	8b e0       	ldi	r24, 0x0B	; 11
    34f6:	e2 e0       	ldi	r30, 0x02	; 2
    34f8:	f2 e0       	ldi	r31, 0x02	; 2
    34fa:	d2 01       	movw	r26, r4
    34fc:	01 90       	ld	r0, Z+
    34fe:	0d 92       	st	X+, r0
    3500:	8a 95       	dec	r24
    3502:	e1 f7       	brne	.-8      	; 0x34fc <_Z13uhreinstellenv+0x616>
						for(uint8_t i = 0; i<buffersize;i++){
							oled.draw_ASCI(buffer[i],charsize*i,7*8);
    3504:	f5 01       	movw	r30, r10
    3506:	61 91       	ld	r22, Z+
    3508:	5f 01       	movw	r10, r30
    350a:	28 e3       	ldi	r18, 0x38	; 56
    350c:	41 2f       	mov	r20, r17
    350e:	8b e3       	ldi	r24, 0x3B	; 59
    3510:	94 e0       	ldi	r25, 0x04	; 4
    3512:	0e 94 1c 04 	call	0x838	; 0x838 <_ZN7Display9draw_ASCIEhhh>
    3516:	1a 5f       	subi	r17, 0xFA	; 250
						rtc.Tag=0;
						rtc.Monat=0;
						rtc.Jahr=0;
						pos=3;
						buffersize=sprintf(buffer,"Tag falsch");
						for(uint8_t i = 0; i<buffersize;i++){
    3518:	1c 33       	cpi	r17, 0x3C	; 60
    351a:	a1 f7       	brne	.-24     	; 0x3504 <_Z13uhreinstellenv+0x61e>
					if (rtc.Tag>=30)
					{
						rtc.Tag=0;
						rtc.Monat=0;
						rtc.Jahr=0;
						pos=3;
    351c:	0f 2e       	mov	r0, r31
    351e:	f3 e0       	ldi	r31, 0x03	; 3
    3520:	9f 2e       	mov	r9, r31
    3522:	f0 2d       	mov	r31, r0
    3524:	5f c0       	rjmp	.+190    	; 0x35e4 <_Z13uhreinstellenv+0x6fe>
							oled.draw_ASCI(buffer[i],charsize*i,7*8);
						}
					}
				}
				else{
					if(rtc.Tag>=29){
    3526:	f6 01       	movw	r30, r12
    3528:	84 89       	ldd	r24, Z+20	; 0x14
    352a:	8d 31       	cpi	r24, 0x1D	; 29
    352c:	f0 f0       	brcs	.+60     	; 0x356a <_Z13uhreinstellenv+0x684>
						rtc.Tag=0;
    352e:	14 8a       	std	Z+20, r1	; 0x14
						rtc.Monat=0;
    3530:	16 8a       	std	Z+22, r1	; 0x16
						rtc.Jahr=0;
    3532:	17 8a       	std	Z+23, r1	; 0x17
						pos=3;
						buffersize=sprintf(buffer,"Tag falsch");
    3534:	8b e0       	ldi	r24, 0x0B	; 11
    3536:	e2 e0       	ldi	r30, 0x02	; 2
    3538:	f2 e0       	ldi	r31, 0x02	; 2
    353a:	d2 01       	movw	r26, r4
    353c:	01 90       	ld	r0, Z+
    353e:	0d 92       	st	X+, r0
    3540:	8a 95       	dec	r24
    3542:	e1 f7       	brne	.-8      	; 0x353c <_Z13uhreinstellenv+0x656>
    3544:	1f 2d       	mov	r17, r15
						for(uint8_t i = 0; i<buffersize;i++){
							oled.draw_ASCI(buffer[i],charsize*i,7*8);
    3546:	f5 01       	movw	r30, r10
    3548:	61 91       	ld	r22, Z+
    354a:	5f 01       	movw	r10, r30
    354c:	28 e3       	ldi	r18, 0x38	; 56
    354e:	41 2f       	mov	r20, r17
    3550:	8b e3       	ldi	r24, 0x3B	; 59
    3552:	94 e0       	ldi	r25, 0x04	; 4
    3554:	0e 94 1c 04 	call	0x838	; 0x838 <_ZN7Display9draw_ASCIEhhh>
    3558:	1a 5f       	subi	r17, 0xFA	; 250
						rtc.Tag=0;
						rtc.Monat=0;
						rtc.Jahr=0;
						pos=3;
						buffersize=sprintf(buffer,"Tag falsch");
						for(uint8_t i = 0; i<buffersize;i++){
    355a:	1c 33       	cpi	r17, 0x3C	; 60
    355c:	a1 f7       	brne	.-24     	; 0x3546 <_Z13uhreinstellenv+0x660>
				else{
					if(rtc.Tag>=29){
						rtc.Tag=0;
						rtc.Monat=0;
						rtc.Jahr=0;
						pos=3;
    355e:	0f 2e       	mov	r0, r31
    3560:	f3 e0       	ldi	r31, 0x03	; 3
    3562:	9f 2e       	mov	r9, r31
    3564:	f0 2d       	mov	r31, r0
    3566:	3e c0       	rjmp	.+124    	; 0x35e4 <_Z13uhreinstellenv+0x6fe>
					}
				}
			}
			break;
			default:
			pos++;
    3568:	93 94       	inc	r9
			break;
		}
		pos++;
    356a:	93 94       	inc	r9
	
	oled.clearFrame();
	char buffer[20];
	uint8_t buffersize;
	uint8_t pos=0;
	while(pos<11){
    356c:	fa e0       	ldi	r31, 0x0A	; 10
    356e:	f9 15       	cp	r31, r9
    3570:	08 f0       	brcs	.+2      	; 0x3574 <_Z13uhreinstellenv+0x68e>
    3572:	f6 cc       	rjmp	.-1556   	; 0x2f60 <_Z13uhreinstellenv+0x7a>
			break;
		}
		pos++;
	}
	
	rtc.Sekunden		= 0;
    3574:	0c e3       	ldi	r16, 0x3C	; 60
    3576:	18 e0       	ldi	r17, 0x08	; 8
    3578:	f8 01       	movw	r30, r16
    357a:	12 8a       	std	Z+18, r1	; 0x12
	rtc.HundSekunden	= 0;
    357c:	13 8a       	std	Z+19, r1	; 0x13
	//speichern der neuen Zeit im EEPROM
	EEPROM_Write(EEMINUTEN,rtc.Minuten);
    357e:	61 89       	ldd	r22, Z+17	; 0x11
    3580:	80 e0       	ldi	r24, 0x00	; 0
    3582:	90 e0       	ldi	r25, 0x00	; 0
    3584:	0e 94 dd 0e 	call	0x1dba	; 0x1dba <_Z12EEPROM_Writejh>
	EEPROM_Write(EESTUNDEN,rtc.Stunden);
    3588:	f8 01       	movw	r30, r16
    358a:	60 89       	ldd	r22, Z+16	; 0x10
    358c:	81 e0       	ldi	r24, 0x01	; 1
    358e:	90 e0       	ldi	r25, 0x00	; 0
    3590:	0e 94 dd 0e 	call	0x1dba	; 0x1dba <_Z12EEPROM_Writejh>
	EEPROM_Write(EETAGE,rtc.Tag);
    3594:	f8 01       	movw	r30, r16
    3596:	64 89       	ldd	r22, Z+20	; 0x14
    3598:	82 e0       	ldi	r24, 0x02	; 2
    359a:	90 e0       	ldi	r25, 0x00	; 0
    359c:	0e 94 dd 0e 	call	0x1dba	; 0x1dba <_Z12EEPROM_Writejh>
	EEPROM_Write(EEMONAT,rtc.Monat);
    35a0:	f8 01       	movw	r30, r16
    35a2:	66 89       	ldd	r22, Z+22	; 0x16
    35a4:	83 e0       	ldi	r24, 0x03	; 3
    35a6:	90 e0       	ldi	r25, 0x00	; 0
    35a8:	0e 94 dd 0e 	call	0x1dba	; 0x1dba <_Z12EEPROM_Writejh>
	EEPROM_Write(EEJAHR,rtc.Jahr);
    35ac:	f8 01       	movw	r30, r16
    35ae:	67 89       	ldd	r22, Z+23	; 0x17
    35b0:	84 e0       	ldi	r24, 0x04	; 4
    35b2:	90 e0       	ldi	r25, 0x00	; 0
    35b4:	0e 94 dd 0e 	call	0x1dba	; 0x1dba <_Z12EEPROM_Writejh>
	
	oled.clearFrame();
    35b8:	8b e3       	ldi	r24, 0x3B	; 59
    35ba:	94 e0       	ldi	r25, 0x04	; 4
    35bc:	0e 94 04 03 	call	0x608	; 0x608 <_ZN7Display10clearFrameEv>
	rtc.ausgabedatumneu();
    35c0:	c8 01       	movw	r24, r16
    35c2:	5a d3       	rcall	.+1716   	; 0x3c78 <_ZN3RTC15ausgabedatumneuEv>
	rtc.ausgabezeitneu();
    35c4:	c8 01       	movw	r24, r16
    35c6:	1f d3       	rcall	.+1598   	; 0x3c06 <_ZN3RTC14ausgabezeitneuEv>
	rtc.RTCstart();
    35c8:	c8 01       	movw	r24, r16
    35ca:	37 d4       	rcall	.+2158   	; 0x3e3a <_ZN3RTC8RTCstartEv>
    35cc:	0d c0       	rjmp	.+26     	; 0x35e8 <_Z13uhreinstellenv+0x702>
			break;
			default:
			pos++;
			break;
		}
		pos++;
    35ce:	93 94       	inc	r9
    35d0:	c7 cc       	rjmp	.-1650   	; 0x2f60 <_Z13uhreinstellenv+0x7a>
					oled.draw_ASCI(buffer[i],charsize*i,7*8);
				}
			}
			break;
			case 9:
			rtc.Jahr+=Tastatur.ZahlenausTastatur();
    35d2:	f6 01       	movw	r30, r12
    35d4:	87 8b       	std	Z+23, r24	; 0x17
				buffersize=sprintf(buffer,"Jahr falsch");
				for(uint8_t i = 0; i<buffersize;i++){
					oled.draw_ASCI(buffer[i],charsize*i,7*8);
				}
			}
			if(rtc.Monat==2){
    35d6:	f6 01       	movw	r30, r12
    35d8:	86 89       	ldd	r24, Z+22	; 0x16
    35da:	82 30       	cpi	r24, 0x02	; 2
    35dc:	c1 f7       	brne	.-16     	; 0x35ce <_Z13uhreinstellenv+0x6e8>
    35de:	80 cf       	rjmp	.-256    	; 0x34e0 <_Z13uhreinstellenv+0x5fa>

		oled.sendFrame();
		oled.clearFrame();
		switch (pos) {
			case 0:
			rtc.Stunden=Tastatur.ZahlenausTastatur()*10;
    35e0:	f6 01       	movw	r30, r12
    35e2:	80 8b       	std	Z+16, r24	; 0x10
			break;
			default:
			pos++;
			break;
		}
		pos++;
    35e4:	93 94       	inc	r9
    35e6:	bc cc       	rjmp	.-1672   	; 0x2f60 <_Z13uhreinstellenv+0x7a>
	
	oled.clearFrame();
	rtc.ausgabedatumneu();
	rtc.ausgabezeitneu();
	rtc.RTCstart();
}
    35e8:	66 96       	adiw	r28, 0x16	; 22
    35ea:	0f b6       	in	r0, 0x3f	; 63
    35ec:	f8 94       	cli
    35ee:	de bf       	out	0x3e, r29	; 62
    35f0:	0f be       	out	0x3f, r0	; 63
    35f2:	cd bf       	out	0x3d, r28	; 61
    35f4:	df 91       	pop	r29
    35f6:	cf 91       	pop	r28
    35f8:	1f 91       	pop	r17
    35fa:	0f 91       	pop	r16
    35fc:	ff 90       	pop	r15
    35fe:	ef 90       	pop	r14
    3600:	df 90       	pop	r13
    3602:	cf 90       	pop	r12
    3604:	bf 90       	pop	r11
    3606:	af 90       	pop	r10
    3608:	9f 90       	pop	r9
    360a:	8f 90       	pop	r8
    360c:	7f 90       	pop	r7
    360e:	6f 90       	pop	r6
    3610:	5f 90       	pop	r5
    3612:	4f 90       	pop	r4
    3614:	3f 90       	pop	r3
    3616:	2f 90       	pop	r2
    3618:	08 95       	ret

0000361a <_ZN13einstellungen4drawEv>:
	uint8_t tastendruck(uint8_t *tast){
		return 0;
	}
	
	//anzeige erstellen
	void draw(){
    361a:	cf 92       	push	r12
    361c:	df 92       	push	r13
    361e:	ef 92       	push	r14
    3620:	ff 92       	push	r15
    3622:	0f 93       	push	r16
    3624:	1f 93       	push	r17
    3626:	cf 93       	push	r28
    3628:	df 93       	push	r29
    362a:	ec 01       	movw	r28, r24
		return 0;
	}
	
	//drawfunktion
	virtual void draw(){
		oled->clearFrame();
    362c:	8f 89       	ldd	r24, Y+23	; 0x17
    362e:	98 8d       	ldd	r25, Y+24	; 0x18
    3630:	0e 94 04 03 	call	0x608	; 0x608 <_ZN7Display10clearFrameEv>
    3634:	10 e0       	ldi	r17, 0x00	; 0
    3636:	e1 2c       	mov	r14, r1
    3638:	f1 2c       	mov	r15, r1
	}
	
	//draw header and overload it
	void header(){
		for(uint8_t i=0;i<8;i++){
			oled->draw_ASCI(rtc->msg_uhr[i],i*charsize,0);
    363a:	e9 8d       	ldd	r30, Y+25	; 0x19
    363c:	fa 8d       	ldd	r31, Y+26	; 0x1a
    363e:	ee 0d       	add	r30, r14
    3640:	ff 1d       	adc	r31, r15
    3642:	20 e0       	ldi	r18, 0x00	; 0
    3644:	41 2f       	mov	r20, r17
    3646:	60 81       	ld	r22, Z
    3648:	8f 89       	ldd	r24, Y+23	; 0x17
    364a:	98 8d       	ldd	r25, Y+24	; 0x18
    364c:	0e 94 1c 04 	call	0x838	; 0x838 <_ZN7Display9draw_ASCIEhhh>
    3650:	2f ef       	ldi	r18, 0xFF	; 255
    3652:	e2 1a       	sub	r14, r18
    3654:	f2 0a       	sbc	r15, r18
    3656:	1a 5f       	subi	r17, 0xFA	; 250
		return &name[0];
	}
	
	//draw header and overload it
	void header(){
		for(uint8_t i=0;i<8;i++){
    3658:	10 33       	cpi	r17, 0x30	; 48
    365a:	79 f7       	brne	.-34     	; 0x363a <_ZN13einstellungen4drawEv+0x20>
			oled->draw_ASCI(rtc->msg_uhr[i],i*charsize,0);
		}
		buffersize=sprintf(buffer,"Bat: %i%%",Batteriestatus());
    365c:	0e 94 aa 09 	call	0x1354	; 0x1354 <_Z14Batteriestatusv>
    3660:	7e 01       	movw	r14, r28
    3662:	32 e0       	ldi	r19, 0x02	; 2
    3664:	e3 0e       	add	r14, r19
    3666:	f1 1c       	adc	r15, r1
    3668:	28 2f       	mov	r18, r24
    366a:	08 2e       	mov	r0, r24
    366c:	00 0c       	add	r0, r0
    366e:	33 0b       	sbc	r19, r19
    3670:	3f 93       	push	r19
    3672:	8f 93       	push	r24
    3674:	82 e3       	ldi	r24, 0x32	; 50
    3676:	91 e0       	ldi	r25, 0x01	; 1
    3678:	9f 93       	push	r25
    367a:	8f 93       	push	r24
    367c:	ff 92       	push	r15
    367e:	ef 92       	push	r14
    3680:	0e 94 21 28 	call	0x5042	; 0x5042 <sprintf>
    3684:	8e 8b       	std	Y+22, r24	; 0x16
		for(uint8_t i=((SSD1306_WIDTH/charsize)-buffersize);i<(SSD1306_WIDTH/charsize);i++){
    3686:	15 e1       	ldi	r17, 0x15	; 21
    3688:	18 1b       	sub	r17, r24
    368a:	0f 90       	pop	r0
    368c:	0f 90       	pop	r0
    368e:	0f 90       	pop	r0
    3690:	0f 90       	pop	r0
    3692:	0f 90       	pop	r0
    3694:	0f 90       	pop	r0
    3696:	15 31       	cpi	r17, 0x15	; 21
    3698:	08 f0       	brcs	.+2      	; 0x369c <_ZN13einstellungen4drawEv+0x82>
    369a:	5c c1       	rjmp	.+696    	; 0x3954 <_ZN13einstellungen4drawEv+0x33a>
    369c:	01 2f       	mov	r16, r17
    369e:	00 0f       	add	r16, r16
    36a0:	01 0f       	add	r16, r17
    36a2:	00 0f       	add	r16, r16
			oled->draw_ASCI(buffer[i-((SSD1306_WIDTH/charsize)-buffersize)],i*charsize,0);
    36a4:	8e 89       	ldd	r24, Y+22	; 0x16
    36a6:	fe 01       	movw	r30, r28
    36a8:	e1 0f       	add	r30, r17
    36aa:	f1 1d       	adc	r31, r1
    36ac:	e8 0f       	add	r30, r24
    36ae:	f1 1d       	adc	r31, r1
    36b0:	73 97       	sbiw	r30, 0x13	; 19
    36b2:	20 e0       	ldi	r18, 0x00	; 0
    36b4:	40 2f       	mov	r20, r16
    36b6:	60 81       	ld	r22, Z
    36b8:	8f 89       	ldd	r24, Y+23	; 0x17
    36ba:	98 8d       	ldd	r25, Y+24	; 0x18
    36bc:	0e 94 1c 04 	call	0x838	; 0x838 <_ZN7Display9draw_ASCIEhhh>
	void header(){
		for(uint8_t i=0;i<8;i++){
			oled->draw_ASCI(rtc->msg_uhr[i],i*charsize,0);
		}
		buffersize=sprintf(buffer,"Bat: %i%%",Batteriestatus());
		for(uint8_t i=((SSD1306_WIDTH/charsize)-buffersize);i<(SSD1306_WIDTH/charsize);i++){
    36c0:	1f 5f       	subi	r17, 0xFF	; 255
    36c2:	0a 5f       	subi	r16, 0xFA	; 250
    36c4:	15 31       	cpi	r17, 0x15	; 21
    36c6:	71 f7       	brne	.-36     	; 0x36a4 <_ZN13einstellungen4drawEv+0x8a>
    36c8:	45 c1       	rjmp	.+650    	; 0x3954 <_ZN13einstellungen4drawEv+0x33a>
	}
	
	//draw bottom and overload it
	void bottom(){
		for(uint8_t i=0;i<8;i++){
			oled->draw_ASCI(rtc->msg_dat[i],i*charsize+(SSD1306_WIDTH-bitsderrtc*charsize),7*charhighte);
    36ca:	e9 8d       	ldd	r30, Y+25	; 0x19
    36cc:	fa 8d       	ldd	r31, Y+26	; 0x1a
    36ce:	ec 0d       	add	r30, r12
    36d0:	fd 1d       	adc	r31, r13
    36d2:	28 e3       	ldi	r18, 0x38	; 56
    36d4:	41 2f       	mov	r20, r17
    36d6:	60 85       	ldd	r22, Z+8	; 0x08
    36d8:	8f 89       	ldd	r24, Y+23	; 0x17
    36da:	98 8d       	ldd	r25, Y+24	; 0x18
    36dc:	0e 94 1c 04 	call	0x838	; 0x838 <_ZN7Display9draw_ASCIEhhh>
    36e0:	8f ef       	ldi	r24, 0xFF	; 255
    36e2:	c8 1a       	sub	r12, r24
    36e4:	d8 0a       	sbc	r13, r24
    36e6:	1a 5f       	subi	r17, 0xFA	; 250
		}
	}
	
	//draw bottom and overload it
	void bottom(){
		for(uint8_t i=0;i<8;i++){
    36e8:	10 38       	cpi	r17, 0x80	; 128
    36ea:	79 f7       	brne	.-34     	; 0x36ca <_ZN13einstellungen4drawEv+0xb0>
	//anzeige erstellen
	void draw(){
		monitor::draw();
		header();
		bottom();
		if (posx==0)
    36ec:	8e a1       	ldd	r24, Y+38	; 0x26
    36ee:	81 11       	cpse	r24, r1
    36f0:	78 c0       	rjmp	.+240    	; 0x37e2 <_ZN13einstellungen4drawEv+0x1c8>
		{
			buffersize=sprintf(buffer,"Zeit einstellen");
    36f2:	80 e1       	ldi	r24, 0x10	; 16
    36f4:	e6 e2       	ldi	r30, 0x26	; 38
    36f6:	f2 e0       	ldi	r31, 0x02	; 2
    36f8:	d7 01       	movw	r26, r14
    36fa:	01 90       	ld	r0, Z+
    36fc:	0d 92       	st	X+, r0
    36fe:	8a 95       	dec	r24
    3700:	e1 f7       	brne	.-8      	; 0x36fa <_ZN13einstellungen4drawEv+0xe0>
    3702:	8f e0       	ldi	r24, 0x0F	; 15
    3704:	8e 8b       	std	Y+22, r24	; 0x16
    3706:	0c e0       	ldi	r16, 0x0C	; 12
    3708:	10 e0       	ldi	r17, 0x00	; 0
			for(uint8_t i=0;i<buffersize;i++){oled->draw_ASCI(buffer[i],i*charsize+2*charsize,2*charhighte);}
    370a:	fe 01       	movw	r30, r28
    370c:	e1 0f       	add	r30, r17
    370e:	f1 1d       	adc	r31, r1
    3710:	20 e1       	ldi	r18, 0x10	; 16
    3712:	40 2f       	mov	r20, r16
    3714:	62 81       	ldd	r22, Z+2	; 0x02
    3716:	8f 89       	ldd	r24, Y+23	; 0x17
    3718:	98 8d       	ldd	r25, Y+24	; 0x18
    371a:	0e 94 1c 04 	call	0x838	; 0x838 <_ZN7Display9draw_ASCIEhhh>
    371e:	1f 5f       	subi	r17, 0xFF	; 255
    3720:	0a 5f       	subi	r16, 0xFA	; 250
    3722:	8e 89       	ldd	r24, Y+22	; 0x16
    3724:	18 17       	cp	r17, r24
    3726:	88 f3       	brcs	.-30     	; 0x370a <_ZN13einstellungen4drawEv+0xf0>
			buffersize=sprintf(buffer,"g bestimmen");
    3728:	8c e0       	ldi	r24, 0x0C	; 12
    372a:	e6 e3       	ldi	r30, 0x36	; 54
    372c:	f2 e0       	ldi	r31, 0x02	; 2
    372e:	d7 01       	movw	r26, r14
    3730:	01 90       	ld	r0, Z+
    3732:	0d 92       	st	X+, r0
    3734:	8a 95       	dec	r24
    3736:	e1 f7       	brne	.-8      	; 0x3730 <_ZN13einstellungen4drawEv+0x116>
    3738:	8b e0       	ldi	r24, 0x0B	; 11
    373a:	8e 8b       	std	Y+22, r24	; 0x16
    373c:	0c e0       	ldi	r16, 0x0C	; 12
    373e:	10 e0       	ldi	r17, 0x00	; 0
			for(uint8_t i=0;i<buffersize;i++){oled->draw_ASCI(buffer[i],i*charsize+2*charsize,3*charhighte);}
    3740:	fe 01       	movw	r30, r28
    3742:	e1 0f       	add	r30, r17
    3744:	f1 1d       	adc	r31, r1
    3746:	28 e1       	ldi	r18, 0x18	; 24
    3748:	40 2f       	mov	r20, r16
    374a:	62 81       	ldd	r22, Z+2	; 0x02
    374c:	8f 89       	ldd	r24, Y+23	; 0x17
    374e:	98 8d       	ldd	r25, Y+24	; 0x18
    3750:	0e 94 1c 04 	call	0x838	; 0x838 <_ZN7Display9draw_ASCIEhhh>
    3754:	1f 5f       	subi	r17, 0xFF	; 255
    3756:	0a 5f       	subi	r16, 0xFA	; 250
    3758:	8e 89       	ldd	r24, Y+22	; 0x16
    375a:	18 17       	cp	r17, r24
    375c:	88 f3       	brcs	.-30     	; 0x3740 <_ZN13einstellungen4drawEv+0x126>
			buffersize=sprintf(buffer,"Versionsnummer");
    375e:	8f e0       	ldi	r24, 0x0F	; 15
    3760:	e2 e4       	ldi	r30, 0x42	; 66
    3762:	f2 e0       	ldi	r31, 0x02	; 2
    3764:	d7 01       	movw	r26, r14
    3766:	01 90       	ld	r0, Z+
    3768:	0d 92       	st	X+, r0
    376a:	8a 95       	dec	r24
    376c:	e1 f7       	brne	.-8      	; 0x3766 <_ZN13einstellungen4drawEv+0x14c>
    376e:	8e e0       	ldi	r24, 0x0E	; 14
    3770:	8e 8b       	std	Y+22, r24	; 0x16
    3772:	0c e0       	ldi	r16, 0x0C	; 12
    3774:	10 e0       	ldi	r17, 0x00	; 0
			for(uint8_t i=0;i<buffersize;i++){oled->draw_ASCI(buffer[i],i*charsize+2*charsize,4*charhighte);}
    3776:	fe 01       	movw	r30, r28
    3778:	e1 0f       	add	r30, r17
    377a:	f1 1d       	adc	r31, r1
    377c:	20 e2       	ldi	r18, 0x20	; 32
    377e:	40 2f       	mov	r20, r16
    3780:	62 81       	ldd	r22, Z+2	; 0x02
    3782:	8f 89       	ldd	r24, Y+23	; 0x17
    3784:	98 8d       	ldd	r25, Y+24	; 0x18
    3786:	0e 94 1c 04 	call	0x838	; 0x838 <_ZN7Display9draw_ASCIEhhh>
    378a:	1f 5f       	subi	r17, 0xFF	; 255
    378c:	0a 5f       	subi	r16, 0xFA	; 250
    378e:	8e 89       	ldd	r24, Y+22	; 0x16
    3790:	18 17       	cp	r17, r24
    3792:	88 f3       	brcs	.-30     	; 0x3776 <_ZN13einstellungen4drawEv+0x15c>
			buffersize=sprintf(buffer,"soft Reset");
    3794:	8b e0       	ldi	r24, 0x0B	; 11
    3796:	e1 e5       	ldi	r30, 0x51	; 81
    3798:	f2 e0       	ldi	r31, 0x02	; 2
    379a:	d7 01       	movw	r26, r14
    379c:	01 90       	ld	r0, Z+
    379e:	0d 92       	st	X+, r0
    37a0:	8a 95       	dec	r24
    37a2:	e1 f7       	brne	.-8      	; 0x379c <_ZN13einstellungen4drawEv+0x182>
    37a4:	8a e0       	ldi	r24, 0x0A	; 10
    37a6:	8e 8b       	std	Y+22, r24	; 0x16
    37a8:	0c e0       	ldi	r16, 0x0C	; 12
    37aa:	10 e0       	ldi	r17, 0x00	; 0
			for(uint8_t i=0;i<buffersize;i++){oled->draw_ASCI(buffer[i],i*charsize+2*charsize,5*charhighte);}
    37ac:	fe 01       	movw	r30, r28
    37ae:	e1 0f       	add	r30, r17
    37b0:	f1 1d       	adc	r31, r1
    37b2:	28 e2       	ldi	r18, 0x28	; 40
    37b4:	40 2f       	mov	r20, r16
    37b6:	62 81       	ldd	r22, Z+2	; 0x02
    37b8:	8f 89       	ldd	r24, Y+23	; 0x17
    37ba:	98 8d       	ldd	r25, Y+24	; 0x18
    37bc:	0e 94 1c 04 	call	0x838	; 0x838 <_ZN7Display9draw_ASCIEhhh>
    37c0:	1f 5f       	subi	r17, 0xFF	; 255
    37c2:	0a 5f       	subi	r16, 0xFA	; 250
    37c4:	8e 89       	ldd	r24, Y+22	; 0x16
    37c6:	18 17       	cp	r17, r24
    37c8:	88 f3       	brcs	.-30     	; 0x37ac <_ZN13einstellungen4drawEv+0x192>
			oled->draw_ASCI('>',0*charsize,(posy+2)*charhighte);
    37ca:	2d a1       	ldd	r18, Y+37	; 0x25
    37cc:	22 0f       	add	r18, r18
    37ce:	22 0f       	add	r18, r18
    37d0:	22 0f       	add	r18, r18
    37d2:	20 5f       	subi	r18, 0xF0	; 240
    37d4:	40 e0       	ldi	r20, 0x00	; 0
    37d6:	6e e3       	ldi	r22, 0x3E	; 62
    37d8:	8f 89       	ldd	r24, Y+23	; 0x17
    37da:	98 8d       	ldd	r25, Y+24	; 0x18
    37dc:	0e 94 1c 04 	call	0x838	; 0x838 <_ZN7Display9draw_ASCIEhhh>
    37e0:	b4 c0       	rjmp	.+360    	; 0x394a <_ZN13einstellungen4drawEv+0x330>
		}
		else if (posy==0 && posx==1)
    37e2:	9d a1       	ldd	r25, Y+37	; 0x25
    37e4:	91 11       	cpse	r25, r1
    37e6:	06 c0       	rjmp	.+12     	; 0x37f4 <_ZN13einstellungen4drawEv+0x1da>
    37e8:	81 30       	cpi	r24, 0x01	; 1
    37ea:	09 f0       	breq	.+2      	; 0x37ee <_ZN13einstellungen4drawEv+0x1d4>
    37ec:	ae c0       	rjmp	.+348    	; 0x394a <_ZN13einstellungen4drawEv+0x330>
		{
			//Uhreinstellung machen
			//noch etwas bloed, aber mit eigener Funktion
			uhreinstellen();
    37ee:	7b db       	rcall	.-2314   	; 0x2ee6 <_Z13uhreinstellenv>
			posx=0;
    37f0:	1e a2       	std	Y+38, r1	; 0x26
    37f2:	ab c0       	rjmp	.+342    	; 0x394a <_ZN13einstellungen4drawEv+0x330>
		}
		else if (posy==1 && posx==1)
    37f4:	91 30       	cpi	r25, 0x01	; 1
    37f6:	09 f0       	breq	.+2      	; 0x37fa <_ZN13einstellungen4drawEv+0x1e0>
    37f8:	60 c0       	rjmp	.+192    	; 0x38ba <_ZN13einstellungen4drawEv+0x2a0>
    37fa:	81 30       	cpi	r24, 0x01	; 1
    37fc:	09 f0       	breq	.+2      	; 0x3800 <_ZN13einstellungen4drawEv+0x1e6>
    37fe:	a5 c0       	rjmp	.+330    	; 0x394a <_ZN13einstellungen4drawEv+0x330>
		{
			//g bestimmen einbauen
			buffersize=sprintf(buffer,"Geraet nicht bewegen");
    3800:	85 e1       	ldi	r24, 0x15	; 21
    3802:	ec e5       	ldi	r30, 0x5C	; 92
    3804:	f2 e0       	ldi	r31, 0x02	; 2
    3806:	d7 01       	movw	r26, r14
    3808:	01 90       	ld	r0, Z+
    380a:	0d 92       	st	X+, r0
    380c:	8a 95       	dec	r24
    380e:	e1 f7       	brne	.-8      	; 0x3808 <_ZN13einstellungen4drawEv+0x1ee>
    3810:	84 e1       	ldi	r24, 0x14	; 20
    3812:	8e 8b       	std	Y+22, r24	; 0x16
    3814:	00 e0       	ldi	r16, 0x00	; 0
    3816:	10 e0       	ldi	r17, 0x00	; 0
			for (uint8_t i=0;i<buffersize;i++){oled->draw_ASCI(buffer[i],i*charsize,2*charhighte);}
    3818:	fe 01       	movw	r30, r28
    381a:	e1 0f       	add	r30, r17
    381c:	f1 1d       	adc	r31, r1
    381e:	20 e1       	ldi	r18, 0x10	; 16
    3820:	40 2f       	mov	r20, r16
    3822:	62 81       	ldd	r22, Z+2	; 0x02
    3824:	8f 89       	ldd	r24, Y+23	; 0x17
    3826:	98 8d       	ldd	r25, Y+24	; 0x18
    3828:	0e 94 1c 04 	call	0x838	; 0x838 <_ZN7Display9draw_ASCIEhhh>
    382c:	1f 5f       	subi	r17, 0xFF	; 255
    382e:	0a 5f       	subi	r16, 0xFA	; 250
    3830:	8e 89       	ldd	r24, Y+22	; 0x16
    3832:	18 17       	cp	r17, r24
    3834:	88 f3       	brcs	.-30     	; 0x3818 <_ZN13einstellungen4drawEv+0x1fe>
			buffersize=sprintf(buffer,"* fuer start");
    3836:	8d e0       	ldi	r24, 0x0D	; 13
    3838:	e1 e7       	ldi	r30, 0x71	; 113
    383a:	f2 e0       	ldi	r31, 0x02	; 2
    383c:	d7 01       	movw	r26, r14
    383e:	01 90       	ld	r0, Z+
    3840:	0d 92       	st	X+, r0
    3842:	8a 95       	dec	r24
    3844:	e1 f7       	brne	.-8      	; 0x383e <_ZN13einstellungen4drawEv+0x224>
    3846:	8c e0       	ldi	r24, 0x0C	; 12
    3848:	8e 8b       	std	Y+22, r24	; 0x16
    384a:	00 e0       	ldi	r16, 0x00	; 0
    384c:	10 e0       	ldi	r17, 0x00	; 0
			for (uint8_t i=0;i<buffersize;i++){oled->draw_ASCI(buffer[i],i*charsize,3*charhighte);}
    384e:	fe 01       	movw	r30, r28
    3850:	e1 0f       	add	r30, r17
    3852:	f1 1d       	adc	r31, r1
    3854:	28 e1       	ldi	r18, 0x18	; 24
    3856:	40 2f       	mov	r20, r16
    3858:	62 81       	ldd	r22, Z+2	; 0x02
    385a:	8f 89       	ldd	r24, Y+23	; 0x17
    385c:	98 8d       	ldd	r25, Y+24	; 0x18
    385e:	0e 94 1c 04 	call	0x838	; 0x838 <_ZN7Display9draw_ASCIEhhh>
    3862:	1f 5f       	subi	r17, 0xFF	; 255
    3864:	0a 5f       	subi	r16, 0xFA	; 250
    3866:	8e 89       	ldd	r24, Y+22	; 0x16
    3868:	18 17       	cp	r17, r24
    386a:	88 f3       	brcs	.-30     	; 0x384e <_ZN13einstellungen4drawEv+0x234>
			if (5<6&&5>0)
			{
				buffersize=sprintf(buffer,"Noch %i Sekunden",5);
    386c:	1f 92       	push	r1
    386e:	85 e0       	ldi	r24, 0x05	; 5
    3870:	8f 93       	push	r24
    3872:	8e e7       	ldi	r24, 0x7E	; 126
    3874:	92 e0       	ldi	r25, 0x02	; 2
    3876:	9f 93       	push	r25
    3878:	8f 93       	push	r24
    387a:	ff 92       	push	r15
    387c:	ef 92       	push	r14
    387e:	0e 94 21 28 	call	0x5042	; 0x5042 <sprintf>
    3882:	8e 8b       	std	Y+22, r24	; 0x16
				for (uint8_t i=0;i<buffersize;i++){oled->draw_ASCI(buffer[i],i*charsize,5*charhighte);}
    3884:	0f 90       	pop	r0
    3886:	0f 90       	pop	r0
    3888:	0f 90       	pop	r0
    388a:	0f 90       	pop	r0
    388c:	0f 90       	pop	r0
    388e:	0f 90       	pop	r0
    3890:	88 23       	and	r24, r24
    3892:	09 f4       	brne	.+2      	; 0x3896 <_ZN13einstellungen4drawEv+0x27c>
    3894:	5a c0       	rjmp	.+180    	; 0x394a <_ZN13einstellungen4drawEv+0x330>
    3896:	00 e0       	ldi	r16, 0x00	; 0
    3898:	10 e0       	ldi	r17, 0x00	; 0
    389a:	fe 01       	movw	r30, r28
    389c:	e1 0f       	add	r30, r17
    389e:	f1 1d       	adc	r31, r1
    38a0:	28 e2       	ldi	r18, 0x28	; 40
    38a2:	40 2f       	mov	r20, r16
    38a4:	62 81       	ldd	r22, Z+2	; 0x02
    38a6:	8f 89       	ldd	r24, Y+23	; 0x17
    38a8:	98 8d       	ldd	r25, Y+24	; 0x18
    38aa:	0e 94 1c 04 	call	0x838	; 0x838 <_ZN7Display9draw_ASCIEhhh>
    38ae:	1f 5f       	subi	r17, 0xFF	; 255
    38b0:	0a 5f       	subi	r16, 0xFA	; 250
    38b2:	8e 89       	ldd	r24, Y+22	; 0x16
    38b4:	18 17       	cp	r17, r24
    38b6:	88 f3       	brcs	.-30     	; 0x389a <_ZN13einstellungen4drawEv+0x280>
    38b8:	48 c0       	rjmp	.+144    	; 0x394a <_ZN13einstellungen4drawEv+0x330>
			else if (5==0)
			{
				posx--;
			}
		}
		else if (posy==2 && posx==1)
    38ba:	92 30       	cpi	r25, 0x02	; 2
    38bc:	b9 f5       	brne	.+110    	; 0x392c <_ZN13einstellungen4drawEv+0x312>
    38be:	81 30       	cpi	r24, 0x01	; 1
    38c0:	09 f0       	breq	.+2      	; 0x38c4 <_ZN13einstellungen4drawEv+0x2aa>
    38c2:	43 c0       	rjmp	.+134    	; 0x394a <_ZN13einstellungen4drawEv+0x330>
		{
			buffersize=sprintf(buffer,"Version: %.2f",(double)VERSIONSNUMMER);
    38c4:	80 e4       	ldi	r24, 0x40	; 64
    38c6:	8f 93       	push	r24
    38c8:	81 e4       	ldi	r24, 0x41	; 65
    38ca:	8f 93       	push	r24
    38cc:	87 e4       	ldi	r24, 0x47	; 71
    38ce:	8f 93       	push	r24
    38d0:	8e ea       	ldi	r24, 0xAE	; 174
    38d2:	8f 93       	push	r24
    38d4:	84 e2       	ldi	r24, 0x24	; 36
    38d6:	91 e0       	ldi	r25, 0x01	; 1
    38d8:	9f 93       	push	r25
    38da:	8f 93       	push	r24
    38dc:	ff 92       	push	r15
    38de:	ef 92       	push	r14
    38e0:	0e 94 21 28 	call	0x5042	; 0x5042 <sprintf>
    38e4:	8e 8b       	std	Y+22, r24	; 0x16
			for(uint8_t i=0; i < buffersize;i++){
    38e6:	2d b7       	in	r18, 0x3d	; 61
    38e8:	3e b7       	in	r19, 0x3e	; 62
    38ea:	28 5f       	subi	r18, 0xF8	; 248
    38ec:	3f 4f       	sbci	r19, 0xFF	; 255
    38ee:	0f b6       	in	r0, 0x3f	; 63
    38f0:	f8 94       	cli
    38f2:	3e bf       	out	0x3e, r19	; 62
    38f4:	0f be       	out	0x3f, r0	; 63
    38f6:	2d bf       	out	0x3d, r18	; 61
    38f8:	88 23       	and	r24, r24
    38fa:	39 f1       	breq	.+78     	; 0x394a <_ZN13einstellungen4drawEv+0x330>
    38fc:	10 e0       	ldi	r17, 0x00	; 0
				oled->draw_ASCI(buffer[i],(i+2)*charsize,3.5*charhighte);
    38fe:	21 2f       	mov	r18, r17
    3900:	30 e0       	ldi	r19, 0x00	; 0
    3902:	c9 01       	movw	r24, r18
    3904:	02 96       	adiw	r24, 0x02	; 2
    3906:	48 2f       	mov	r20, r24
    3908:	44 0f       	add	r20, r20
    390a:	84 0f       	add	r24, r20
    390c:	48 2f       	mov	r20, r24
    390e:	44 0f       	add	r20, r20
    3910:	fe 01       	movw	r30, r28
    3912:	e2 0f       	add	r30, r18
    3914:	f3 1f       	adc	r31, r19
    3916:	2c e1       	ldi	r18, 0x1C	; 28
    3918:	62 81       	ldd	r22, Z+2	; 0x02
    391a:	8f 89       	ldd	r24, Y+23	; 0x17
    391c:	98 8d       	ldd	r25, Y+24	; 0x18
    391e:	0e 94 1c 04 	call	0x838	; 0x838 <_ZN7Display9draw_ASCIEhhh>
			}
		}
		else if (posy==2 && posx==1)
		{
			buffersize=sprintf(buffer,"Version: %.2f",(double)VERSIONSNUMMER);
			for(uint8_t i=0; i < buffersize;i++){
    3922:	1f 5f       	subi	r17, 0xFF	; 255
    3924:	8e 89       	ldd	r24, Y+22	; 0x16
    3926:	18 17       	cp	r17, r24
    3928:	50 f3       	brcs	.-44     	; 0x38fe <_ZN13einstellungen4drawEv+0x2e4>
    392a:	0f c0       	rjmp	.+30     	; 0x394a <_ZN13einstellungen4drawEv+0x330>
				oled->draw_ASCI(buffer[i],(i+2)*charsize,3.5*charhighte);

			}
		}
		else if (posy==3 && posx==1)
    392c:	93 30       	cpi	r25, 0x03	; 3
    392e:	69 f4       	brne	.+26     	; 0x394a <_ZN13einstellungen4drawEv+0x330>
    3930:	81 30       	cpi	r24, 0x01	; 1
    3932:	59 f4       	brne	.+22     	; 0x394a <_ZN13einstellungen4drawEv+0x330>
				: "n" (_SFR_MEM_ADDR(_WD_CONTROL_REG)),
				"r" ((uint8_t)(_BV(_WD_CHANGE_BIT) | _BV(WDE))),
				"r" ((uint8_t) ((value & 0x08 ? _WD_PS3_MASK : 0x00) |
						_BV(WDE) | (value & 0x07)) )
				: "r0"
		);
    3934:	98 e0       	ldi	r25, 0x08	; 8
    3936:	88 e1       	ldi	r24, 0x18	; 24
    3938:	0f b6       	in	r0, 0x3f	; 63
    393a:	f8 94       	cli
    393c:	a8 95       	wdr
    393e:	80 93 60 00 	sts	0x0060, r24
    3942:	0f be       	out	0x3f, r0	; 63
    3944:	90 93 60 00 	sts	0x0060, r25
    3948:	ff cf       	rjmp	.-2      	; 0x3948 <_ZN13einstellungen4drawEv+0x32e>
		oled->clearFrame();
	}

	//send the frame to the display
	void send(){
		oled->sendFrame();	
    394a:	8f 89       	ldd	r24, Y+23	; 0x17
    394c:	98 8d       	ldd	r25, Y+24	; 0x18
    394e:	0e 94 7e 03 	call	0x6fc	; 0x6fc <_ZN7Display9sendFrameEv>
    3952:	04 c0       	rjmp	.+8      	; 0x395c <_ZN13einstellungen4drawEv+0x342>
		return 0;
	}
	
	//drawfunktion
	virtual void draw(){
		oled->clearFrame();
    3954:	10 e5       	ldi	r17, 0x50	; 80
    3956:	c1 2c       	mov	r12, r1
    3958:	d1 2c       	mov	r13, r1
    395a:	b7 ce       	rjmp	.-658    	; 0x36ca <_ZN13einstellungen4drawEv+0xb0>
		else if (posy==3 && posx==1)
		{
			soft_reset();
		}
		send();	
	}
    395c:	df 91       	pop	r29
    395e:	cf 91       	pop	r28
    3960:	1f 91       	pop	r17
    3962:	0f 91       	pop	r16
    3964:	ff 90       	pop	r15
    3966:	ef 90       	pop	r14
    3968:	df 90       	pop	r13
    396a:	cf 90       	pop	r12
    396c:	08 95       	ret

0000396e <_GLOBAL__sub_I__Z8wdt_initv>:
{
	free(ptr);
}

#include "RTC.h"
RTC rtc;
    396e:	8c e3       	ldi	r24, 0x3C	; 60
    3970:	98 e0       	ldi	r25, 0x08	; 8
    3972:	bb d1       	rcall	.+886    	; 0x3cea <_ZN3RTCC1Ev>

#include "Display.h"
Display oled;
    3974:	8b e3       	ldi	r24, 0x3B	; 59
    3976:	94 e0       	ldi	r25, 0x04	; 4
    3978:	0e 94 72 03 	call	0x6e4	; 0x6e4 <_ZN7DisplayC1Ev>

#include "Interface.h"
Interface Tastatur;
    397c:	8f e2       	ldi	r24, 0x2F	; 47
    397e:	94 e0       	ldi	r25, 0x04	; 4
    3980:	0e 94 76 07 	call	0xeec	; 0xeec <_ZN9InterfaceC1Ev>

#include "SOUND.h"
SOUND Lautsprecher;
    3984:	8d e2       	ldi	r24, 0x2D	; 45
    3986:	94 e0       	ldi	r25, 0x04	; 4
    3988:	a2 d2       	rcall	.+1348   	; 0x3ece <_ZN5SOUNDC1Ev>

#include "LSM303D.h"
LSM303D Accelerometer;
    398a:	84 e4       	ldi	r24, 0x44	; 68
    398c:	93 e0       	ldi	r25, 0x03	; 3
    398e:	0e 94 c0 08 	call	0x1180	; 0x1180 <_ZN7LSM303DC1Ev>
//Kompass kompass;

#include "ADC.h"

#include "Output.h"
Output LED('B',PORTB1);
    3992:	41 e0       	ldi	r20, 0x01	; 1
    3994:	62 e4       	ldi	r22, 0x42	; 66
    3996:	8e e3       	ldi	r24, 0x3E	; 62
    3998:	93 e0       	ldi	r25, 0x03	; 3
    399a:	2f d0       	rcall	.+94     	; 0x39fa <_ZN6OutputC1Ehh>
Output Vibrationsmotor('B',PORTB2);
    399c:	42 e0       	ldi	r20, 0x02	; 2
    399e:	62 e4       	ldi	r22, 0x42	; 66
    39a0:	8c e3       	ldi	r24, 0x3C	; 60
    39a2:	93 e0       	ldi	r25, 0x03	; 3
    39a4:	2a d0       	rcall	.+84     	; 0x39fa <_ZN6OutputC1Ehh>
Output IRLED('D',PORTD7);
    39a6:	47 e0       	ldi	r20, 0x07	; 7
    39a8:	64 e4       	ldi	r22, 0x44	; 68
    39aa:	8a e3       	ldi	r24, 0x3A	; 58
    39ac:	93 e0       	ldi	r25, 0x03	; 3
    39ae:	25 d0       	rcall	.+74     	; 0x39fa <_ZN6OutputC1Ehh>
Output Sound('B',PORTB3);
    39b0:	43 e0       	ldi	r20, 0x03	; 3
    39b2:	62 e4       	ldi	r22, 0x42	; 66
    39b4:	88 e3       	ldi	r24, 0x38	; 56
    39b6:	93 e0       	ldi	r25, 0x03	; 3
    39b8:	20 c0       	rjmp	.+64     	; 0x39fa <_ZN6OutputC1Ehh>
    39ba:	08 95       	ret

000039bc <_GLOBAL__sub_D__Z8wdt_initv>:
    39bc:	88 e3       	ldi	r24, 0x38	; 56
    39be:	93 e0       	ldi	r25, 0x03	; 3
    39c0:	56 d0       	rcall	.+172    	; 0x3a6e <_ZN6OutputD1Ev>
#include "ADC.h"

#include "Output.h"
Output LED('B',PORTB1);
Output Vibrationsmotor('B',PORTB2);
Output IRLED('D',PORTD7);
    39c2:	8a e3       	ldi	r24, 0x3A	; 58
    39c4:	93 e0       	ldi	r25, 0x03	; 3
    39c6:	53 d0       	rcall	.+166    	; 0x3a6e <_ZN6OutputD1Ev>

#include "ADC.h"

#include "Output.h"
Output LED('B',PORTB1);
Output Vibrationsmotor('B',PORTB2);
    39c8:	8c e3       	ldi	r24, 0x3C	; 60
    39ca:	93 e0       	ldi	r25, 0x03	; 3
    39cc:	50 d0       	rcall	.+160    	; 0x3a6e <_ZN6OutputD1Ev>
//Kompass kompass;

#include "ADC.h"

#include "Output.h"
Output LED('B',PORTB1);
    39ce:	8e e3       	ldi	r24, 0x3E	; 62
    39d0:	93 e0       	ldi	r25, 0x03	; 3
    39d2:	4d d0       	rcall	.+154    	; 0x3a6e <_ZN6OutputD1Ev>

#include "SOUND.h"
SOUND Lautsprecher;

#include "LSM303D.h"
LSM303D Accelerometer;
    39d4:	84 e4       	ldi	r24, 0x44	; 68
    39d6:	93 e0       	ldi	r25, 0x03	; 3
    39d8:	0e 94 8c 08 	call	0x1118	; 0x1118 <_ZN7LSM303DD1Ev>

#include "Interface.h"
Interface Tastatur;

#include "SOUND.h"
SOUND Lautsprecher;
    39dc:	8d e2       	ldi	r24, 0x2D	; 45
    39de:	94 e0       	ldi	r25, 0x04	; 4
    39e0:	4c d2       	rcall	.+1176   	; 0x3e7a <_ZN5SOUNDD1Ev>

#include "Display.h"
Display oled;

#include "Interface.h"
Interface Tastatur;
    39e2:	8f e2       	ldi	r24, 0x2F	; 47
    39e4:	94 e0       	ldi	r25, 0x04	; 4
    39e6:	0e 94 89 07 	call	0xf12	; 0xf12 <_ZN9InterfaceD1Ev>

#include "RTC.h"
RTC rtc;

#include "Display.h"
Display oled;
    39ea:	8b e3       	ldi	r24, 0x3B	; 59
    39ec:	94 e0       	ldi	r25, 0x04	; 4
    39ee:	0e 94 01 03 	call	0x602	; 0x602 <_ZN7DisplayD1Ev>
{
	free(ptr);
}

#include "RTC.h"
RTC rtc;
    39f2:	8c e3       	ldi	r24, 0x3C	; 60
    39f4:	98 e0       	ldi	r25, 0x08	; 8
    39f6:	f5 c0       	rjmp	.+490    	; 0x3be2 <_ZN3RTCD1Ev>
    39f8:	08 95       	ret

000039fa <_ZN6OutputC1Ehh>:
#include "Output.h"

// default constructor
Output::Output(uint8_t Portpraefix, uint8_t Pinnumber)
{
	Pin=Pinnumber;
    39fa:	fc 01       	movw	r30, r24
    39fc:	41 83       	std	Z+1, r20	; 0x01
	Port=Portpraefix;
    39fe:	60 83       	st	Z, r22
	switch (Portpraefix)
    3a00:	62 34       	cpi	r22, 0x42	; 66
    3a02:	a1 f0       	breq	.+40     	; 0x3a2c <_ZN6OutputC1Ehh+0x32>
    3a04:	18 f4       	brcc	.+6      	; 0x3a0c <_ZN6OutputC1Ehh+0x12>
    3a06:	61 34       	cpi	r22, 0x41	; 65
    3a08:	31 f0       	breq	.+12     	; 0x3a16 <_ZN6OutputC1Ehh+0x1c>
    3a0a:	08 95       	ret
    3a0c:	63 34       	cpi	r22, 0x43	; 67
    3a0e:	c9 f0       	breq	.+50     	; 0x3a42 <_ZN6OutputC1Ehh+0x48>
    3a10:	64 34       	cpi	r22, 0x44	; 68
    3a12:	11 f1       	breq	.+68     	; 0x3a58 <_ZN6OutputC1Ehh+0x5e>
    3a14:	08 95       	ret
	{
		case 'A':
			DDRA |= (1<<Pin);
    3a16:	21 b1       	in	r18, 0x01	; 1
    3a18:	81 e0       	ldi	r24, 0x01	; 1
    3a1a:	90 e0       	ldi	r25, 0x00	; 0
    3a1c:	02 c0       	rjmp	.+4      	; 0x3a22 <_ZN6OutputC1Ehh+0x28>
    3a1e:	88 0f       	add	r24, r24
    3a20:	99 1f       	adc	r25, r25
    3a22:	4a 95       	dec	r20
    3a24:	e2 f7       	brpl	.-8      	; 0x3a1e <_ZN6OutputC1Ehh+0x24>
    3a26:	82 2b       	or	r24, r18
    3a28:	81 b9       	out	0x01, r24	; 1
			break;
    3a2a:	08 95       	ret
		case 'B':
			DDRB |= (1<<Pin);
    3a2c:	24 b1       	in	r18, 0x04	; 4
    3a2e:	81 e0       	ldi	r24, 0x01	; 1
    3a30:	90 e0       	ldi	r25, 0x00	; 0
    3a32:	02 c0       	rjmp	.+4      	; 0x3a38 <_ZN6OutputC1Ehh+0x3e>
    3a34:	88 0f       	add	r24, r24
    3a36:	99 1f       	adc	r25, r25
    3a38:	4a 95       	dec	r20
    3a3a:	e2 f7       	brpl	.-8      	; 0x3a34 <_ZN6OutputC1Ehh+0x3a>
    3a3c:	82 2b       	or	r24, r18
    3a3e:	84 b9       	out	0x04, r24	; 4
			break;
    3a40:	08 95       	ret
		case 'C':
			DDRC |= (1<<Pin);
    3a42:	27 b1       	in	r18, 0x07	; 7
    3a44:	81 e0       	ldi	r24, 0x01	; 1
    3a46:	90 e0       	ldi	r25, 0x00	; 0
    3a48:	02 c0       	rjmp	.+4      	; 0x3a4e <_ZN6OutputC1Ehh+0x54>
    3a4a:	88 0f       	add	r24, r24
    3a4c:	99 1f       	adc	r25, r25
    3a4e:	4a 95       	dec	r20
    3a50:	e2 f7       	brpl	.-8      	; 0x3a4a <_ZN6OutputC1Ehh+0x50>
    3a52:	82 2b       	or	r24, r18
    3a54:	87 b9       	out	0x07, r24	; 7
			break;
    3a56:	08 95       	ret
		case 'D':
			DDRD |= (1<<Pin);
    3a58:	2a b1       	in	r18, 0x0a	; 10
    3a5a:	81 e0       	ldi	r24, 0x01	; 1
    3a5c:	90 e0       	ldi	r25, 0x00	; 0
    3a5e:	02 c0       	rjmp	.+4      	; 0x3a64 <_ZN6OutputC1Ehh+0x6a>
    3a60:	88 0f       	add	r24, r24
    3a62:	99 1f       	adc	r25, r25
    3a64:	4a 95       	dec	r20
    3a66:	e2 f7       	brpl	.-8      	; 0x3a60 <_ZN6OutputC1Ehh+0x66>
    3a68:	82 2b       	or	r24, r18
    3a6a:	8a b9       	out	0x0a, r24	; 10
    3a6c:	08 95       	ret

00003a6e <_ZN6OutputD1Ev>:
			break;
	}
} //Output

// default destructor
Output::~Output()
    3a6e:	08 95       	ret

00003a70 <_ZN6Output2onEv>:
{
} //~Output

void Output::on(){
    3a70:	fc 01       	movw	r30, r24
	switch (Port)
    3a72:	90 81       	ld	r25, Z
    3a74:	92 34       	cpi	r25, 0x42	; 66
    3a76:	a9 f0       	breq	.+42     	; 0x3aa2 <_ZN6Output2onEv+0x32>
    3a78:	18 f4       	brcc	.+6      	; 0x3a80 <_ZN6Output2onEv+0x10>
    3a7a:	91 34       	cpi	r25, 0x41	; 65
    3a7c:	31 f0       	breq	.+12     	; 0x3a8a <_ZN6Output2onEv+0x1a>
    3a7e:	08 95       	ret
    3a80:	93 34       	cpi	r25, 0x43	; 67
    3a82:	d9 f0       	breq	.+54     	; 0x3aba <_ZN6Output2onEv+0x4a>
    3a84:	94 34       	cpi	r25, 0x44	; 68
    3a86:	29 f1       	breq	.+74     	; 0x3ad2 <_ZN6Output2onEv+0x62>
    3a88:	08 95       	ret
	{
		case 'A':
			PORTA |= (1<<Pin);
    3a8a:	22 b1       	in	r18, 0x02	; 2
    3a8c:	81 e0       	ldi	r24, 0x01	; 1
    3a8e:	90 e0       	ldi	r25, 0x00	; 0
    3a90:	01 80       	ldd	r0, Z+1	; 0x01
    3a92:	02 c0       	rjmp	.+4      	; 0x3a98 <_ZN6Output2onEv+0x28>
    3a94:	88 0f       	add	r24, r24
    3a96:	99 1f       	adc	r25, r25
    3a98:	0a 94       	dec	r0
    3a9a:	e2 f7       	brpl	.-8      	; 0x3a94 <_ZN6Output2onEv+0x24>
    3a9c:	82 2b       	or	r24, r18
    3a9e:	82 b9       	out	0x02, r24	; 2
			break;
    3aa0:	08 95       	ret
		case 'B':
			PORTB |= (1<<Pin);
    3aa2:	25 b1       	in	r18, 0x05	; 5
    3aa4:	81 e0       	ldi	r24, 0x01	; 1
    3aa6:	90 e0       	ldi	r25, 0x00	; 0
    3aa8:	01 80       	ldd	r0, Z+1	; 0x01
    3aaa:	02 c0       	rjmp	.+4      	; 0x3ab0 <_ZN6Output2onEv+0x40>
    3aac:	88 0f       	add	r24, r24
    3aae:	99 1f       	adc	r25, r25
    3ab0:	0a 94       	dec	r0
    3ab2:	e2 f7       	brpl	.-8      	; 0x3aac <_ZN6Output2onEv+0x3c>
    3ab4:	82 2b       	or	r24, r18
    3ab6:	85 b9       	out	0x05, r24	; 5
			break;
    3ab8:	08 95       	ret
		case 'C':
			PORTC |= (1<<Pin);
    3aba:	28 b1       	in	r18, 0x08	; 8
    3abc:	81 e0       	ldi	r24, 0x01	; 1
    3abe:	90 e0       	ldi	r25, 0x00	; 0
    3ac0:	01 80       	ldd	r0, Z+1	; 0x01
    3ac2:	02 c0       	rjmp	.+4      	; 0x3ac8 <_ZN6Output2onEv+0x58>
    3ac4:	88 0f       	add	r24, r24
    3ac6:	99 1f       	adc	r25, r25
    3ac8:	0a 94       	dec	r0
    3aca:	e2 f7       	brpl	.-8      	; 0x3ac4 <_ZN6Output2onEv+0x54>
    3acc:	82 2b       	or	r24, r18
    3ace:	88 b9       	out	0x08, r24	; 8
			break;
    3ad0:	08 95       	ret
		case 'D':
			PORTD |= (1<<Pin);
    3ad2:	2b b1       	in	r18, 0x0b	; 11
    3ad4:	81 e0       	ldi	r24, 0x01	; 1
    3ad6:	90 e0       	ldi	r25, 0x00	; 0
    3ad8:	01 80       	ldd	r0, Z+1	; 0x01
    3ada:	02 c0       	rjmp	.+4      	; 0x3ae0 <_ZN6Output2onEv+0x70>
    3adc:	88 0f       	add	r24, r24
    3ade:	99 1f       	adc	r25, r25
    3ae0:	0a 94       	dec	r0
    3ae2:	e2 f7       	brpl	.-8      	; 0x3adc <_ZN6Output2onEv+0x6c>
    3ae4:	82 2b       	or	r24, r18
    3ae6:	8b b9       	out	0x0b, r24	; 11
    3ae8:	08 95       	ret

00003aea <_ZN6Output4isonEv>:
		default:
			break;
	}
}

uint8_t Output::ison(){
    3aea:	fc 01       	movw	r30, r24
	uint8_t returnparam=0;
	switch (Port)
    3aec:	90 81       	ld	r25, Z
    3aee:	92 34       	cpi	r25, 0x42	; 66
    3af0:	a1 f0       	breq	.+40     	; 0x3b1a <_ZN6Output4isonEv+0x30>
    3af2:	18 f4       	brcc	.+6      	; 0x3afa <_ZN6Output4isonEv+0x10>
    3af4:	91 34       	cpi	r25, 0x41	; 65
    3af6:	31 f0       	breq	.+12     	; 0x3b04 <_ZN6Output4isonEv+0x1a>
    3af8:	31 c0       	rjmp	.+98     	; 0x3b5c <_ZN6Output4isonEv+0x72>
    3afa:	93 34       	cpi	r25, 0x43	; 67
    3afc:	c9 f0       	breq	.+50     	; 0x3b30 <_ZN6Output4isonEv+0x46>
    3afe:	94 34       	cpi	r25, 0x44	; 68
    3b00:	11 f1       	breq	.+68     	; 0x3b46 <_ZN6Output4isonEv+0x5c>
    3b02:	2c c0       	rjmp	.+88     	; 0x3b5c <_ZN6Output4isonEv+0x72>
	{
		case 'A':
			if ((PORTA&(1<<Pin)))
    3b04:	22 b1       	in	r18, 0x02	; 2
    3b06:	30 e0       	ldi	r19, 0x00	; 0
    3b08:	c9 01       	movw	r24, r18
    3b0a:	01 80       	ldd	r0, Z+1	; 0x01
    3b0c:	02 c0       	rjmp	.+4      	; 0x3b12 <_ZN6Output4isonEv+0x28>
    3b0e:	95 95       	asr	r25
    3b10:	87 95       	ror	r24
    3b12:	0a 94       	dec	r0
    3b14:	e2 f7       	brpl	.-8      	; 0x3b0e <_ZN6Output4isonEv+0x24>
    3b16:	81 70       	andi	r24, 0x01	; 1
    3b18:	08 95       	ret
			{
				returnparam = 1;
			}
			break;
		case 'B':
			if ((PORTB&(1<<Pin)))
    3b1a:	25 b1       	in	r18, 0x05	; 5
    3b1c:	30 e0       	ldi	r19, 0x00	; 0
    3b1e:	c9 01       	movw	r24, r18
    3b20:	01 80       	ldd	r0, Z+1	; 0x01
    3b22:	02 c0       	rjmp	.+4      	; 0x3b28 <_ZN6Output4isonEv+0x3e>
    3b24:	95 95       	asr	r25
    3b26:	87 95       	ror	r24
    3b28:	0a 94       	dec	r0
    3b2a:	e2 f7       	brpl	.-8      	; 0x3b24 <_ZN6Output4isonEv+0x3a>
    3b2c:	81 70       	andi	r24, 0x01	; 1
    3b2e:	08 95       	ret
			{
				returnparam = 1;
			}
			break;
		case 'C':
			if ((PORTC&(1<<Pin)))
    3b30:	28 b1       	in	r18, 0x08	; 8
    3b32:	30 e0       	ldi	r19, 0x00	; 0
    3b34:	c9 01       	movw	r24, r18
    3b36:	01 80       	ldd	r0, Z+1	; 0x01
    3b38:	02 c0       	rjmp	.+4      	; 0x3b3e <_ZN6Output4isonEv+0x54>
    3b3a:	95 95       	asr	r25
    3b3c:	87 95       	ror	r24
    3b3e:	0a 94       	dec	r0
    3b40:	e2 f7       	brpl	.-8      	; 0x3b3a <_ZN6Output4isonEv+0x50>
    3b42:	81 70       	andi	r24, 0x01	; 1
    3b44:	08 95       	ret
			{
				returnparam = 1;
			}
			break;
		case 'D':
			if ((PORTD&(1<<Pin)))
    3b46:	2b b1       	in	r18, 0x0b	; 11
    3b48:	30 e0       	ldi	r19, 0x00	; 0
    3b4a:	c9 01       	movw	r24, r18
    3b4c:	01 80       	ldd	r0, Z+1	; 0x01
    3b4e:	02 c0       	rjmp	.+4      	; 0x3b54 <_ZN6Output4isonEv+0x6a>
    3b50:	95 95       	asr	r25
    3b52:	87 95       	ror	r24
    3b54:	0a 94       	dec	r0
    3b56:	e2 f7       	brpl	.-8      	; 0x3b50 <_ZN6Output4isonEv+0x66>
    3b58:	81 70       	andi	r24, 0x01	; 1
    3b5a:	08 95       	ret
			{
				returnparam = 1;
			}
			break;
		default:
		returnparam = 2;
    3b5c:	82 e0       	ldi	r24, 0x02	; 2
			break;
	}
	return returnparam;
}
    3b5e:	08 95       	ret

00003b60 <_ZN6Output3offEv>:

void Output::off(){
    3b60:	fc 01       	movw	r30, r24
	switch (Port)
    3b62:	90 81       	ld	r25, Z
    3b64:	92 34       	cpi	r25, 0x42	; 66
    3b66:	b1 f0       	breq	.+44     	; 0x3b94 <_ZN6Output3offEv+0x34>
    3b68:	18 f4       	brcc	.+6      	; 0x3b70 <_ZN6Output3offEv+0x10>
    3b6a:	91 34       	cpi	r25, 0x41	; 65
    3b6c:	31 f0       	breq	.+12     	; 0x3b7a <_ZN6Output3offEv+0x1a>
    3b6e:	08 95       	ret
    3b70:	93 34       	cpi	r25, 0x43	; 67
    3b72:	e9 f0       	breq	.+58     	; 0x3bae <_ZN6Output3offEv+0x4e>
    3b74:	94 34       	cpi	r25, 0x44	; 68
    3b76:	41 f1       	breq	.+80     	; 0x3bc8 <_ZN6Output3offEv+0x68>
    3b78:	08 95       	ret
	{
		case 'A':
			PORTA &= ~(1<<Pin);
    3b7a:	22 b1       	in	r18, 0x02	; 2
    3b7c:	81 e0       	ldi	r24, 0x01	; 1
    3b7e:	90 e0       	ldi	r25, 0x00	; 0
    3b80:	01 80       	ldd	r0, Z+1	; 0x01
    3b82:	02 c0       	rjmp	.+4      	; 0x3b88 <_ZN6Output3offEv+0x28>
    3b84:	88 0f       	add	r24, r24
    3b86:	99 1f       	adc	r25, r25
    3b88:	0a 94       	dec	r0
    3b8a:	e2 f7       	brpl	.-8      	; 0x3b84 <_ZN6Output3offEv+0x24>
    3b8c:	80 95       	com	r24
    3b8e:	82 23       	and	r24, r18
    3b90:	82 b9       	out	0x02, r24	; 2
			break;
    3b92:	08 95       	ret
		case 'B':
			PORTB &= ~(1<<Pin);
    3b94:	25 b1       	in	r18, 0x05	; 5
    3b96:	81 e0       	ldi	r24, 0x01	; 1
    3b98:	90 e0       	ldi	r25, 0x00	; 0
    3b9a:	01 80       	ldd	r0, Z+1	; 0x01
    3b9c:	02 c0       	rjmp	.+4      	; 0x3ba2 <_ZN6Output3offEv+0x42>
    3b9e:	88 0f       	add	r24, r24
    3ba0:	99 1f       	adc	r25, r25
    3ba2:	0a 94       	dec	r0
    3ba4:	e2 f7       	brpl	.-8      	; 0x3b9e <_ZN6Output3offEv+0x3e>
    3ba6:	80 95       	com	r24
    3ba8:	82 23       	and	r24, r18
    3baa:	85 b9       	out	0x05, r24	; 5
			break;
    3bac:	08 95       	ret
		case 'C':
			PORTC &= ~(1<<Pin);
    3bae:	28 b1       	in	r18, 0x08	; 8
    3bb0:	81 e0       	ldi	r24, 0x01	; 1
    3bb2:	90 e0       	ldi	r25, 0x00	; 0
    3bb4:	01 80       	ldd	r0, Z+1	; 0x01
    3bb6:	02 c0       	rjmp	.+4      	; 0x3bbc <_ZN6Output3offEv+0x5c>
    3bb8:	88 0f       	add	r24, r24
    3bba:	99 1f       	adc	r25, r25
    3bbc:	0a 94       	dec	r0
    3bbe:	e2 f7       	brpl	.-8      	; 0x3bb8 <_ZN6Output3offEv+0x58>
    3bc0:	80 95       	com	r24
    3bc2:	82 23       	and	r24, r18
    3bc4:	88 b9       	out	0x08, r24	; 8
			break;
    3bc6:	08 95       	ret
		case 'D':
			PORTD &= ~(1<<Pin);
    3bc8:	2b b1       	in	r18, 0x0b	; 11
    3bca:	81 e0       	ldi	r24, 0x01	; 1
    3bcc:	90 e0       	ldi	r25, 0x00	; 0
    3bce:	01 80       	ldd	r0, Z+1	; 0x01
    3bd0:	02 c0       	rjmp	.+4      	; 0x3bd6 <_ZN6Output3offEv+0x76>
    3bd2:	88 0f       	add	r24, r24
    3bd4:	99 1f       	adc	r25, r25
    3bd6:	0a 94       	dec	r0
    3bd8:	e2 f7       	brpl	.-8      	; 0x3bd2 <_ZN6Output3offEv+0x72>
    3bda:	80 95       	com	r24
    3bdc:	82 23       	and	r24, r18
    3bde:	8b b9       	out	0x0b, r24	; 11
    3be0:	08 95       	ret

00003be2 <_ZN3RTCD1Ev>:
	Tag=7;
	Monat=9;
	Jahr=15;
	ausgabedatumneu();
	ausgabezeitneu();
}
    3be2:	08 95       	ret

00003be4 <_ZN3RTC6WeckerEv>:
    3be4:	fc 01       	movw	r30, r24
    3be6:	80 8d       	ldd	r24, Z+24	; 0x18
    3be8:	83 ff       	sbrs	r24, 3
    3bea:	0c c0       	rjmp	.+24     	; 0x3c04 <_ZN3RTC6WeckerEv+0x20>
    3bec:	84 fd       	sbrc	r24, 4
    3bee:	0a c0       	rjmp	.+20     	; 0x3c04 <_ZN3RTC6WeckerEv+0x20>
    3bf0:	22 8d       	ldd	r18, Z+26	; 0x1a
    3bf2:	90 89       	ldd	r25, Z+16	; 0x10
    3bf4:	29 13       	cpse	r18, r25
    3bf6:	06 c0       	rjmp	.+12     	; 0x3c04 <_ZN3RTC6WeckerEv+0x20>
    3bf8:	21 8d       	ldd	r18, Z+25	; 0x19
    3bfa:	91 89       	ldd	r25, Z+17	; 0x11
    3bfc:	29 13       	cpse	r18, r25
    3bfe:	02 c0       	rjmp	.+4      	; 0x3c04 <_ZN3RTC6WeckerEv+0x20>
    3c00:	80 61       	ori	r24, 0x10	; 16
    3c02:	80 8f       	std	Z+24, r24	; 0x18
    3c04:	08 95       	ret

00003c06 <_ZN3RTC14ausgabezeitneuEv>:
    3c06:	fc 01       	movw	r30, r24
    3c08:	20 89       	ldd	r18, Z+16	; 0x10
    3c0a:	9d ec       	ldi	r25, 0xCD	; 205
    3c0c:	29 9f       	mul	r18, r25
    3c0e:	81 2d       	mov	r24, r1
    3c10:	11 24       	eor	r1, r1
    3c12:	86 95       	lsr	r24
    3c14:	86 95       	lsr	r24
    3c16:	86 95       	lsr	r24
    3c18:	30 e3       	ldi	r19, 0x30	; 48
    3c1a:	38 0f       	add	r19, r24
    3c1c:	30 83       	st	Z, r19
    3c1e:	88 0f       	add	r24, r24
    3c20:	38 2f       	mov	r19, r24
    3c22:	33 0f       	add	r19, r19
    3c24:	33 0f       	add	r19, r19
    3c26:	83 0f       	add	r24, r19
    3c28:	28 1b       	sub	r18, r24
    3c2a:	20 5d       	subi	r18, 0xD0	; 208
    3c2c:	21 83       	std	Z+1, r18	; 0x01
    3c2e:	21 89       	ldd	r18, Z+17	; 0x11
    3c30:	29 9f       	mul	r18, r25
    3c32:	81 2d       	mov	r24, r1
    3c34:	11 24       	eor	r1, r1
    3c36:	86 95       	lsr	r24
    3c38:	86 95       	lsr	r24
    3c3a:	86 95       	lsr	r24
    3c3c:	30 e3       	ldi	r19, 0x30	; 48
    3c3e:	38 0f       	add	r19, r24
    3c40:	33 83       	std	Z+3, r19	; 0x03
    3c42:	88 0f       	add	r24, r24
    3c44:	38 2f       	mov	r19, r24
    3c46:	33 0f       	add	r19, r19
    3c48:	33 0f       	add	r19, r19
    3c4a:	83 0f       	add	r24, r19
    3c4c:	28 1b       	sub	r18, r24
    3c4e:	20 5d       	subi	r18, 0xD0	; 208
    3c50:	24 83       	std	Z+4, r18	; 0x04
    3c52:	82 89       	ldd	r24, Z+18	; 0x12
    3c54:	89 9f       	mul	r24, r25
    3c56:	91 2d       	mov	r25, r1
    3c58:	11 24       	eor	r1, r1
    3c5a:	96 95       	lsr	r25
    3c5c:	96 95       	lsr	r25
    3c5e:	96 95       	lsr	r25
    3c60:	20 e3       	ldi	r18, 0x30	; 48
    3c62:	29 0f       	add	r18, r25
    3c64:	26 83       	std	Z+6, r18	; 0x06
    3c66:	99 0f       	add	r25, r25
    3c68:	29 2f       	mov	r18, r25
    3c6a:	22 0f       	add	r18, r18
    3c6c:	22 0f       	add	r18, r18
    3c6e:	92 0f       	add	r25, r18
    3c70:	89 1b       	sub	r24, r25
    3c72:	80 5d       	subi	r24, 0xD0	; 208
    3c74:	87 83       	std	Z+7, r24	; 0x07
    3c76:	08 95       	ret

00003c78 <_ZN3RTC15ausgabedatumneuEv>:
    3c78:	fc 01       	movw	r30, r24
    3c7a:	24 89       	ldd	r18, Z+20	; 0x14
    3c7c:	9d ec       	ldi	r25, 0xCD	; 205
    3c7e:	29 9f       	mul	r18, r25
    3c80:	81 2d       	mov	r24, r1
    3c82:	11 24       	eor	r1, r1
    3c84:	86 95       	lsr	r24
    3c86:	86 95       	lsr	r24
    3c88:	86 95       	lsr	r24
    3c8a:	30 e3       	ldi	r19, 0x30	; 48
    3c8c:	38 0f       	add	r19, r24
    3c8e:	30 87       	std	Z+8, r19	; 0x08
    3c90:	88 0f       	add	r24, r24
    3c92:	38 2f       	mov	r19, r24
    3c94:	33 0f       	add	r19, r19
    3c96:	33 0f       	add	r19, r19
    3c98:	83 0f       	add	r24, r19
    3c9a:	28 1b       	sub	r18, r24
    3c9c:	20 5d       	subi	r18, 0xD0	; 208
    3c9e:	21 87       	std	Z+9, r18	; 0x09
    3ca0:	26 89       	ldd	r18, Z+22	; 0x16
    3ca2:	29 9f       	mul	r18, r25
    3ca4:	81 2d       	mov	r24, r1
    3ca6:	11 24       	eor	r1, r1
    3ca8:	86 95       	lsr	r24
    3caa:	86 95       	lsr	r24
    3cac:	86 95       	lsr	r24
    3cae:	30 e3       	ldi	r19, 0x30	; 48
    3cb0:	38 0f       	add	r19, r24
    3cb2:	33 87       	std	Z+11, r19	; 0x0b
    3cb4:	88 0f       	add	r24, r24
    3cb6:	38 2f       	mov	r19, r24
    3cb8:	33 0f       	add	r19, r19
    3cba:	33 0f       	add	r19, r19
    3cbc:	83 0f       	add	r24, r19
    3cbe:	28 1b       	sub	r18, r24
    3cc0:	20 5d       	subi	r18, 0xD0	; 208
    3cc2:	24 87       	std	Z+12, r18	; 0x0c
    3cc4:	87 89       	ldd	r24, Z+23	; 0x17
    3cc6:	89 9f       	mul	r24, r25
    3cc8:	91 2d       	mov	r25, r1
    3cca:	11 24       	eor	r1, r1
    3ccc:	96 95       	lsr	r25
    3cce:	96 95       	lsr	r25
    3cd0:	96 95       	lsr	r25
    3cd2:	20 e3       	ldi	r18, 0x30	; 48
    3cd4:	29 0f       	add	r18, r25
    3cd6:	26 87       	std	Z+14, r18	; 0x0e
    3cd8:	99 0f       	add	r25, r25
    3cda:	29 2f       	mov	r18, r25
    3cdc:	22 0f       	add	r18, r18
    3cde:	22 0f       	add	r18, r18
    3ce0:	92 0f       	add	r25, r18
    3ce2:	89 1b       	sub	r24, r25
    3ce4:	80 5d       	subi	r24, 0xD0	; 208
    3ce6:	87 87       	std	Z+15, r24	; 0x0f
    3ce8:	08 95       	ret

00003cea <_ZN3RTCC1Ev>:
    3cea:	cf 93       	push	r28
    3cec:	df 93       	push	r29
    3cee:	ec 01       	movw	r28, r24
    3cf0:	1a 8a       	std	Y+18, r1	; 0x12
    3cf2:	1b 8a       	std	Y+19, r1	; 0x13
    3cf4:	19 8a       	std	Y+17, r1	; 0x11
    3cf6:	18 8a       	std	Y+16, r1	; 0x10
    3cf8:	1c 8a       	std	Y+20, r1	; 0x14
    3cfa:	1e 8a       	std	Y+22, r1	; 0x16
    3cfc:	1f 8a       	std	Y+23, r1	; 0x17
    3cfe:	1d 8a       	std	Y+21, r1	; 0x15
    3d00:	88 e2       	ldi	r24, 0x28	; 40
    3d02:	89 8f       	std	Y+25, r24	; 0x19
    3d04:	8a e0       	ldi	r24, 0x0A	; 10
    3d06:	8a 8f       	std	Y+26, r24	; 0x1a
    3d08:	1c 8e       	std	Y+28, r1	; 0x1c
    3d0a:	1b 8e       	std	Y+27, r1	; 0x1b
    3d0c:	1e 8e       	std	Y+30, r1	; 0x1e
    3d0e:	1d 8e       	std	Y+29, r1	; 0x1d
    3d10:	fe 01       	movw	r30, r28
    3d12:	ce 01       	movw	r24, r28
    3d14:	08 96       	adiw	r24, 0x08	; 8
    3d16:	dc 01       	movw	r26, r24
    3d18:	11 92       	st	Z+, r1
    3d1a:	1d 92       	st	X+, r1
    3d1c:	e8 17       	cp	r30, r24
    3d1e:	f9 07       	cpc	r31, r25
    3d20:	d9 f7       	brne	.-10     	; 0x3d18 <_ZN3RTCC1Ev+0x2e>
    3d22:	8a e3       	ldi	r24, 0x3A	; 58
    3d24:	8a 83       	std	Y+2, r24	; 0x02
    3d26:	8d 83       	std	Y+5, r24	; 0x05
    3d28:	8e e2       	ldi	r24, 0x2E	; 46
    3d2a:	8a 87       	std	Y+10, r24	; 0x0a
    3d2c:	8d 87       	std	Y+13, r24	; 0x0d
    3d2e:	ce 01       	movw	r24, r28
    3d30:	6a df       	rcall	.-300    	; 0x3c06 <_ZN3RTC14ausgabezeitneuEv>
    3d32:	ce 01       	movw	r24, r28
    3d34:	a1 df       	rcall	.-190    	; 0x3c78 <_ZN3RTC15ausgabedatumneuEv>
    3d36:	df 91       	pop	r29
    3d38:	cf 91       	pop	r28
    3d3a:	08 95       	ret

00003d3c <_ZN3RTC8kalenderEv>:
    3d3c:	fc 01       	movw	r30, r24
    3d3e:	26 89       	ldd	r18, Z+22	; 0x16
    3d40:	32 2f       	mov	r19, r18
    3d42:	3d 7f       	andi	r19, 0xFD	; 253
    3d44:	34 30       	cpi	r19, 0x04	; 4
    3d46:	11 f0       	breq	.+4      	; 0x3d4c <_ZN3RTC8kalenderEv+0x10>
    3d48:	39 30       	cpi	r19, 0x09	; 9
    3d4a:	91 f4       	brne	.+36     	; 0x3d70 <_ZN3RTC8kalenderEv+0x34>
    3d4c:	fc 01       	movw	r30, r24
    3d4e:	34 89       	ldd	r19, Z+20	; 0x14
    3d50:	3f 31       	cpi	r19, 0x1F	; 31
    3d52:	b0 f1       	brcs	.+108    	; 0x3dc0 <_ZN3RTC8kalenderEv+0x84>
    3d54:	31 e0       	ldi	r19, 0x01	; 1
    3d56:	34 8b       	std	Z+20, r19	; 0x14
    3d58:	2f 5f       	subi	r18, 0xFF	; 255
    3d5a:	2d 30       	cpi	r18, 0x0D	; 13
    3d5c:	10 f4       	brcc	.+4      	; 0x3d62 <_ZN3RTC8kalenderEv+0x26>
    3d5e:	26 8b       	std	Z+22, r18	; 0x16
    3d60:	2f c0       	rjmp	.+94     	; 0x3dc0 <_ZN3RTC8kalenderEv+0x84>
    3d62:	21 e0       	ldi	r18, 0x01	; 1
    3d64:	fc 01       	movw	r30, r24
    3d66:	26 8b       	std	Z+22, r18	; 0x16
    3d68:	27 89       	ldd	r18, Z+23	; 0x17
    3d6a:	2f 5f       	subi	r18, 0xFF	; 255
    3d6c:	27 8b       	std	Z+23, r18	; 0x17
    3d6e:	28 c0       	rjmp	.+80     	; 0x3dc0 <_ZN3RTC8kalenderEv+0x84>
    3d70:	22 30       	cpi	r18, 0x02	; 2
    3d72:	a9 f4       	brne	.+42     	; 0x3d9e <_ZN3RTC8kalenderEv+0x62>
    3d74:	fc 01       	movw	r30, r24
    3d76:	27 89       	ldd	r18, Z+23	; 0x17
    3d78:	23 70       	andi	r18, 0x03	; 3
    3d7a:	41 f4       	brne	.+16     	; 0x3d8c <_ZN3RTC8kalenderEv+0x50>
    3d7c:	24 89       	ldd	r18, Z+20	; 0x14
    3d7e:	2e 31       	cpi	r18, 0x1E	; 30
    3d80:	f8 f0       	brcs	.+62     	; 0x3dc0 <_ZN3RTC8kalenderEv+0x84>
    3d82:	21 e0       	ldi	r18, 0x01	; 1
    3d84:	24 8b       	std	Z+20, r18	; 0x14
    3d86:	23 e0       	ldi	r18, 0x03	; 3
    3d88:	26 8b       	std	Z+22, r18	; 0x16
    3d8a:	1a c0       	rjmp	.+52     	; 0x3dc0 <_ZN3RTC8kalenderEv+0x84>
    3d8c:	fc 01       	movw	r30, r24
    3d8e:	24 89       	ldd	r18, Z+20	; 0x14
    3d90:	2d 31       	cpi	r18, 0x1D	; 29
    3d92:	b0 f0       	brcs	.+44     	; 0x3dc0 <_ZN3RTC8kalenderEv+0x84>
    3d94:	21 e0       	ldi	r18, 0x01	; 1
    3d96:	24 8b       	std	Z+20, r18	; 0x14
    3d98:	23 e0       	ldi	r18, 0x03	; 3
    3d9a:	26 8b       	std	Z+22, r18	; 0x16
    3d9c:	11 c0       	rjmp	.+34     	; 0x3dc0 <_ZN3RTC8kalenderEv+0x84>
    3d9e:	fc 01       	movw	r30, r24
    3da0:	34 89       	ldd	r19, Z+20	; 0x14
    3da2:	30 32       	cpi	r19, 0x20	; 32
    3da4:	68 f0       	brcs	.+26     	; 0x3dc0 <_ZN3RTC8kalenderEv+0x84>
    3da6:	31 e0       	ldi	r19, 0x01	; 1
    3da8:	34 8b       	std	Z+20, r19	; 0x14
    3daa:	2f 5f       	subi	r18, 0xFF	; 255
    3dac:	2d 30       	cpi	r18, 0x0D	; 13
    3dae:	10 f4       	brcc	.+4      	; 0x3db4 <_ZN3RTC8kalenderEv+0x78>
    3db0:	26 8b       	std	Z+22, r18	; 0x16
    3db2:	06 c0       	rjmp	.+12     	; 0x3dc0 <_ZN3RTC8kalenderEv+0x84>
    3db4:	21 e0       	ldi	r18, 0x01	; 1
    3db6:	fc 01       	movw	r30, r24
    3db8:	26 8b       	std	Z+22, r18	; 0x16
    3dba:	27 89       	ldd	r18, Z+23	; 0x17
    3dbc:	2f 5f       	subi	r18, 0xFF	; 255
    3dbe:	27 8b       	std	Z+23, r18	; 0x17
    3dc0:	5b cf       	rjmp	.-330    	; 0x3c78 <_ZN3RTC15ausgabedatumneuEv>
    3dc2:	08 95       	ret

00003dc4 <_ZN3RTC4zeitEv>:
    3dc4:	cf 93       	push	r28
    3dc6:	df 93       	push	r29
    3dc8:	ec 01       	movw	r28, r24
    3dca:	8a 89       	ldd	r24, Y+18	; 0x12
    3dcc:	8c 53       	subi	r24, 0x3C	; 60
    3dce:	8d 38       	cpi	r24, 0x8D	; 141
    3dd0:	c0 f4       	brcc	.+48     	; 0x3e02 <_ZN3RTC4zeitEv+0x3e>
    3dd2:	1a 8a       	std	Y+18, r1	; 0x12
    3dd4:	89 89       	ldd	r24, Y+17	; 0x11
    3dd6:	8f 5f       	subi	r24, 0xFF	; 255
    3dd8:	89 8b       	std	Y+17, r24	; 0x11
    3dda:	98 8d       	ldd	r25, Y+24	; 0x18
    3ddc:	94 60       	ori	r25, 0x04	; 4
    3dde:	98 8f       	std	Y+24, r25	; 0x18
    3de0:	8c 33       	cpi	r24, 0x3C	; 60
    3de2:	68 f0       	brcs	.+26     	; 0x3dfe <_ZN3RTC4zeitEv+0x3a>
    3de4:	19 8a       	std	Y+17, r1	; 0x11
    3de6:	88 89       	ldd	r24, Y+16	; 0x10
    3de8:	8f 5f       	subi	r24, 0xFF	; 255
    3dea:	88 31       	cpi	r24, 0x18	; 24
    3dec:	10 f4       	brcc	.+4      	; 0x3df2 <_ZN3RTC4zeitEv+0x2e>
    3dee:	88 8b       	std	Y+16, r24	; 0x10
    3df0:	06 c0       	rjmp	.+12     	; 0x3dfe <_ZN3RTC4zeitEv+0x3a>
    3df2:	18 8a       	std	Y+16, r1	; 0x10
    3df4:	8c 89       	ldd	r24, Y+20	; 0x14
    3df6:	8f 5f       	subi	r24, 0xFF	; 255
    3df8:	8c 8b       	std	Y+20, r24	; 0x14
    3dfa:	ce 01       	movw	r24, r28
    3dfc:	9f df       	rcall	.-194    	; 0x3d3c <_ZN3RTC8kalenderEv>
    3dfe:	ce 01       	movw	r24, r28
    3e00:	f1 de       	rcall	.-542    	; 0x3be4 <_ZN3RTC6WeckerEv>
    3e02:	ce 01       	movw	r24, r28
    3e04:	00 df       	rcall	.-512    	; 0x3c06 <_ZN3RTC14ausgabezeitneuEv>
    3e06:	88 8d       	ldd	r24, Y+24	; 0x18
    3e08:	85 ff       	sbrs	r24, 5
    3e0a:	0b c0       	rjmp	.+22     	; 0x3e22 <_ZN3RTC4zeitEv+0x5e>
    3e0c:	2b 8d       	ldd	r18, Y+27	; 0x1b
    3e0e:	3c 8d       	ldd	r19, Y+28	; 0x1c
    3e10:	21 50       	subi	r18, 0x01	; 1
    3e12:	31 09       	sbc	r19, r1
    3e14:	3c 8f       	std	Y+28, r19	; 0x1c
    3e16:	2b 8f       	std	Y+27, r18	; 0x1b
    3e18:	23 2b       	or	r18, r19
    3e1a:	19 f4       	brne	.+6      	; 0x3e22 <_ZN3RTC4zeitEv+0x5e>
    3e1c:	8f 7d       	andi	r24, 0xDF	; 223
    3e1e:	81 60       	ori	r24, 0x01	; 1
    3e20:	88 8f       	std	Y+24, r24	; 0x18
    3e22:	88 8d       	ldd	r24, Y+24	; 0x18
    3e24:	86 ff       	sbrs	r24, 6
    3e26:	05 c0       	rjmp	.+10     	; 0x3e32 <_ZN3RTC4zeitEv+0x6e>
    3e28:	8d 8d       	ldd	r24, Y+29	; 0x1d
    3e2a:	9e 8d       	ldd	r25, Y+30	; 0x1e
    3e2c:	01 96       	adiw	r24, 0x01	; 1
    3e2e:	9e 8f       	std	Y+30, r25	; 0x1e
    3e30:	8d 8f       	std	Y+29, r24	; 0x1d
    3e32:	80 e0       	ldi	r24, 0x00	; 0
    3e34:	df 91       	pop	r29
    3e36:	cf 91       	pop	r28
    3e38:	08 95       	ret

00003e3a <_ZN3RTC8RTCstartEv>:

void RTC::RTCstart(){
    3e3a:	fc 01       	movw	r30, r24
	//Einstellungen des Ausgabebuffers
	msg_uhr[0]='0';
    3e3c:	80 e3       	ldi	r24, 0x30	; 48
    3e3e:	80 83       	st	Z, r24
	msg_uhr[1]='0';
    3e40:	81 83       	std	Z+1, r24	; 0x01
	msg_uhr[2]=':';
    3e42:	9a e3       	ldi	r25, 0x3A	; 58
    3e44:	92 83       	std	Z+2, r25	; 0x02
	msg_uhr[3]='0';
    3e46:	83 83       	std	Z+3, r24	; 0x03
	msg_uhr[4]='0';
    3e48:	84 83       	std	Z+4, r24	; 0x04
	msg_uhr[5]=':';
    3e4a:	95 83       	std	Z+5, r25	; 0x05
	msg_uhr[6]='0';
    3e4c:	86 83       	std	Z+6, r24	; 0x06
	msg_uhr[7]='0';
    3e4e:	87 83       	std	Z+7, r24	; 0x07
	interupts = 0;
    3e50:	10 8e       	std	Z+24, r1	; 0x18
	//Timer2 als 1ms Timer fuer die RTC
	//asynchron mit 32.768 kHz 
	TCNT2 = TIMER2RTCTIME;
    3e52:	10 92 b2 00 	sts	0x00B2, r1
	ASSR |= (1<<AS2);
    3e56:	e6 eb       	ldi	r30, 0xB6	; 182
    3e58:	f0 e0       	ldi	r31, 0x00	; 0
    3e5a:	80 81       	ld	r24, Z
    3e5c:	80 62       	ori	r24, 0x20	; 32
    3e5e:	80 83       	st	Z, r24
	TIMSK2 = (1<<TOIE2);
    3e60:	81 e0       	ldi	r24, 0x01	; 1
    3e62:	80 93 70 00 	sts	0x0070, r24
	TCCR2B = (1<<CS22) | (1<<CS20);		//Vorteiler 256
    3e66:	85 e0       	ldi	r24, 0x05	; 5
    3e68:	80 93 b1 00 	sts	0x00B1, r24
    3e6c:	08 95       	ret

00003e6e <_ZN3RTC7RTCstopEv>:
}

void RTC::RTCstop(){
	TCCR2B &= ~((1<<CS22) | (1<<CS21));
    3e6e:	e1 eb       	ldi	r30, 0xB1	; 177
    3e70:	f0 e0       	ldi	r31, 0x00	; 0
    3e72:	80 81       	ld	r24, Z
    3e74:	89 7f       	andi	r24, 0xF9	; 249
    3e76:	80 83       	st	Z, r24
    3e78:	08 95       	ret

00003e7a <_ZN5SOUNDD1Ev>:
	setfrequenci(1000);//1KHz
	off();
} //SOUND

// default destructor
SOUND::~SOUND()
    3e7a:	08 95       	ret

00003e7c <_ZN5SOUND2onEv>:
	TCNT0 = 0;
	on();
}

void SOUND::on(){
	if ((interupts&(1<<Soundactiv)))
    3e7c:	fc 01       	movw	r30, r24
    3e7e:	20 81       	ld	r18, Z
    3e80:	20 ff       	sbrs	r18, 0
    3e82:	04 c0       	rjmp	.+8      	; 0x3e8c <_ZN5SOUND2onEv+0x10>
	{
		TCCR0B |= prescaler;
    3e84:	25 b5       	in	r18, 0x25	; 37
    3e86:	81 81       	ldd	r24, Z+1	; 0x01
    3e88:	82 2b       	or	r24, r18
    3e8a:	85 bd       	out	0x25, r24	; 37
    3e8c:	08 95       	ret

00003e8e <_ZN5SOUND3offEv>:
	}
}

void SOUND::off(){
	TCCR0B &= ~((1<<CS00)|(1<<CS01)|(1<<CS02));
    3e8e:	85 b5       	in	r24, 0x25	; 37
    3e90:	88 7f       	andi	r24, 0xF8	; 248
    3e92:	85 bd       	out	0x25, r24	; 37
    3e94:	08 95       	ret

00003e96 <_ZN5SOUND12setfrequenciEj>:
{
} //~SOUND


//WERT = f_CPU/(f*1024)
void SOUND::setfrequenci(uint16_t frequenz){
    3e96:	0f 93       	push	r16
    3e98:	1f 93       	push	r17
    3e9a:	cf 93       	push	r28
    3e9c:	df 93       	push	r29
    3e9e:	8c 01       	movw	r16, r24
    3ea0:	eb 01       	movw	r28, r22
	off();
    3ea2:	f5 df       	rcall	.-22     	; 0x3e8e <_ZN5SOUND3offEv>
	float WERT = F_CPU/256.0;
	WERT /= (frequenz);
    3ea4:	be 01       	movw	r22, r28
    3ea6:	80 e0       	ldi	r24, 0x00	; 0
    3ea8:	90 e0       	ldi	r25, 0x00	; 0
    3eaa:	29 d1       	rcall	.+594    	; 0x40fe <__floatunsisf>
    3eac:	9b 01       	movw	r18, r22
    3eae:	ac 01       	movw	r20, r24
    3eb0:	60 e0       	ldi	r22, 0x00	; 0
    3eb2:	74 e2       	ldi	r23, 0x24	; 36
    3eb4:	84 ef       	ldi	r24, 0xF4	; 244
    3eb6:	96 e4       	ldi	r25, 0x46	; 70
    3eb8:	89 d0       	rcall	.+274    	; 0x3fcc <__divsf3>
	OCR0A = (uint8_t)WERT;
    3eba:	f5 d0       	rcall	.+490    	; 0x40a6 <__fixunssfsi>
    3ebc:	67 bd       	out	0x27, r22	; 39
	TCNT0 = 0;
    3ebe:	16 bc       	out	0x26, r1	; 38
	on();
    3ec0:	c8 01       	movw	r24, r16
    3ec2:	dc df       	rcall	.-72     	; 0x3e7c <_ZN5SOUND2onEv>
}
    3ec4:	df 91       	pop	r29
    3ec6:	cf 91       	pop	r28
    3ec8:	1f 91       	pop	r17
    3eca:	0f 91       	pop	r16
    3ecc:	08 95       	ret

00003ece <_ZN5SOUNDC1Ev>:


#include "SOUND.h"

// default constructor
SOUND::SOUND()
    3ece:	cf 93       	push	r28
    3ed0:	df 93       	push	r29
    3ed2:	ec 01       	movw	r28, r24
{
	//interuptregister initialisieren
	interupts = 0;
    3ed4:	18 82       	st	Y, r1
	PORTB &= ~(1<<PORTB3); //Pullups ausschalten
    3ed6:	2b 98       	cbi	0x05, 3	; 5
	DDRB |= (1<<PORTB3); //Ausgang schalten
    3ed8:	23 9a       	sbi	0x04, 3	; 4
	//Not inverting PWM, Phase correct
	TCCR0A |= (1<<COM0A0) | (1<<WGM00);
    3eda:	84 b5       	in	r24, 0x24	; 36
    3edc:	81 64       	ori	r24, 0x41	; 65
    3ede:	84 bd       	out	0x24, r24	; 36
	TCCR0B |= (1<<WGM02);
    3ee0:	85 b5       	in	r24, 0x25	; 37
    3ee2:	88 60       	ori	r24, 0x08	; 8
    3ee4:	85 bd       	out	0x25, r24	; 37
	fuer	8		1MHz		3.90625KHz
			64		125KHz		488.28Hz
			256		31.25KHz	122.07Hz
			1024	7.8125KHz	30.52Hz
*/
	prescaler = (1<<CS02); //256
    3ee6:	84 e0       	ldi	r24, 0x04	; 4
    3ee8:	89 83       	std	Y+1, r24	; 0x01
	setfrequenci(1000);//1KHz
    3eea:	68 ee       	ldi	r22, 0xE8	; 232
    3eec:	73 e0       	ldi	r23, 0x03	; 3
    3eee:	ce 01       	movw	r24, r28
    3ef0:	d2 df       	rcall	.-92     	; 0x3e96 <_ZN5SOUND12setfrequenciEj>
	off();
    3ef2:	ce 01       	movw	r24, r28
    3ef4:	cc df       	rcall	.-104    	; 0x3e8e <_ZN5SOUND3offEv>
} //SOUND
    3ef6:	df 91       	pop	r29
    3ef8:	cf 91       	pop	r28
    3efa:	08 95       	ret

00003efc <__subsf3>:
    3efc:	50 58       	subi	r21, 0x80	; 128

00003efe <__addsf3>:
    3efe:	bb 27       	eor	r27, r27
    3f00:	aa 27       	eor	r26, r26
    3f02:	0e d0       	rcall	.+28     	; 0x3f20 <__addsf3x>
    3f04:	c1 c1       	rjmp	.+898    	; 0x4288 <__fp_round>
    3f06:	8a d1       	rcall	.+788    	; 0x421c <__fp_pscA>
    3f08:	30 f0       	brcs	.+12     	; 0x3f16 <__addsf3+0x18>
    3f0a:	8f d1       	rcall	.+798    	; 0x422a <__fp_pscB>
    3f0c:	20 f0       	brcs	.+8      	; 0x3f16 <__addsf3+0x18>
    3f0e:	31 f4       	brne	.+12     	; 0x3f1c <__addsf3+0x1e>
    3f10:	9f 3f       	cpi	r25, 0xFF	; 255
    3f12:	11 f4       	brne	.+4      	; 0x3f18 <__addsf3+0x1a>
    3f14:	1e f4       	brtc	.+6      	; 0x3f1c <__addsf3+0x1e>
    3f16:	5a c1       	rjmp	.+692    	; 0x41cc <__fp_nan>
    3f18:	0e f4       	brtc	.+2      	; 0x3f1c <__addsf3+0x1e>
    3f1a:	e0 95       	com	r30
    3f1c:	e7 fb       	bst	r30, 7
    3f1e:	50 c1       	rjmp	.+672    	; 0x41c0 <__fp_inf>

00003f20 <__addsf3x>:
    3f20:	e9 2f       	mov	r30, r25
    3f22:	d4 d1       	rcall	.+936    	; 0x42cc <__fp_split3>
    3f24:	80 f3       	brcs	.-32     	; 0x3f06 <__addsf3+0x8>
    3f26:	ba 17       	cp	r27, r26
    3f28:	62 07       	cpc	r22, r18
    3f2a:	73 07       	cpc	r23, r19
    3f2c:	84 07       	cpc	r24, r20
    3f2e:	95 07       	cpc	r25, r21
    3f30:	18 f0       	brcs	.+6      	; 0x3f38 <__addsf3x+0x18>
    3f32:	71 f4       	brne	.+28     	; 0x3f50 <__addsf3x+0x30>
    3f34:	9e f5       	brtc	.+102    	; 0x3f9c <__addsf3x+0x7c>
    3f36:	ec c1       	rjmp	.+984    	; 0x4310 <__fp_zero>
    3f38:	0e f4       	brtc	.+2      	; 0x3f3c <__addsf3x+0x1c>
    3f3a:	e0 95       	com	r30
    3f3c:	0b 2e       	mov	r0, r27
    3f3e:	ba 2f       	mov	r27, r26
    3f40:	a0 2d       	mov	r26, r0
    3f42:	0b 01       	movw	r0, r22
    3f44:	b9 01       	movw	r22, r18
    3f46:	90 01       	movw	r18, r0
    3f48:	0c 01       	movw	r0, r24
    3f4a:	ca 01       	movw	r24, r20
    3f4c:	a0 01       	movw	r20, r0
    3f4e:	11 24       	eor	r1, r1
    3f50:	ff 27       	eor	r31, r31
    3f52:	59 1b       	sub	r21, r25
    3f54:	99 f0       	breq	.+38     	; 0x3f7c <__addsf3x+0x5c>
    3f56:	59 3f       	cpi	r21, 0xF9	; 249
    3f58:	50 f4       	brcc	.+20     	; 0x3f6e <__addsf3x+0x4e>
    3f5a:	50 3e       	cpi	r21, 0xE0	; 224
    3f5c:	68 f1       	brcs	.+90     	; 0x3fb8 <__addsf3x+0x98>
    3f5e:	1a 16       	cp	r1, r26
    3f60:	f0 40       	sbci	r31, 0x00	; 0
    3f62:	a2 2f       	mov	r26, r18
    3f64:	23 2f       	mov	r18, r19
    3f66:	34 2f       	mov	r19, r20
    3f68:	44 27       	eor	r20, r20
    3f6a:	58 5f       	subi	r21, 0xF8	; 248
    3f6c:	f3 cf       	rjmp	.-26     	; 0x3f54 <__addsf3x+0x34>
    3f6e:	46 95       	lsr	r20
    3f70:	37 95       	ror	r19
    3f72:	27 95       	ror	r18
    3f74:	a7 95       	ror	r26
    3f76:	f0 40       	sbci	r31, 0x00	; 0
    3f78:	53 95       	inc	r21
    3f7a:	c9 f7       	brne	.-14     	; 0x3f6e <__addsf3x+0x4e>
    3f7c:	7e f4       	brtc	.+30     	; 0x3f9c <__addsf3x+0x7c>
    3f7e:	1f 16       	cp	r1, r31
    3f80:	ba 0b       	sbc	r27, r26
    3f82:	62 0b       	sbc	r22, r18
    3f84:	73 0b       	sbc	r23, r19
    3f86:	84 0b       	sbc	r24, r20
    3f88:	ba f0       	brmi	.+46     	; 0x3fb8 <__addsf3x+0x98>
    3f8a:	91 50       	subi	r25, 0x01	; 1
    3f8c:	a1 f0       	breq	.+40     	; 0x3fb6 <__addsf3x+0x96>
    3f8e:	ff 0f       	add	r31, r31
    3f90:	bb 1f       	adc	r27, r27
    3f92:	66 1f       	adc	r22, r22
    3f94:	77 1f       	adc	r23, r23
    3f96:	88 1f       	adc	r24, r24
    3f98:	c2 f7       	brpl	.-16     	; 0x3f8a <__addsf3x+0x6a>
    3f9a:	0e c0       	rjmp	.+28     	; 0x3fb8 <__addsf3x+0x98>
    3f9c:	ba 0f       	add	r27, r26
    3f9e:	62 1f       	adc	r22, r18
    3fa0:	73 1f       	adc	r23, r19
    3fa2:	84 1f       	adc	r24, r20
    3fa4:	48 f4       	brcc	.+18     	; 0x3fb8 <__addsf3x+0x98>
    3fa6:	87 95       	ror	r24
    3fa8:	77 95       	ror	r23
    3faa:	67 95       	ror	r22
    3fac:	b7 95       	ror	r27
    3fae:	f7 95       	ror	r31
    3fb0:	9e 3f       	cpi	r25, 0xFE	; 254
    3fb2:	08 f0       	brcs	.+2      	; 0x3fb6 <__addsf3x+0x96>
    3fb4:	b3 cf       	rjmp	.-154    	; 0x3f1c <__addsf3+0x1e>
    3fb6:	93 95       	inc	r25
    3fb8:	88 0f       	add	r24, r24
    3fba:	08 f0       	brcs	.+2      	; 0x3fbe <__addsf3x+0x9e>
    3fbc:	99 27       	eor	r25, r25
    3fbe:	ee 0f       	add	r30, r30
    3fc0:	97 95       	ror	r25
    3fc2:	87 95       	ror	r24
    3fc4:	08 95       	ret

00003fc6 <cos>:
    3fc6:	39 d1       	rcall	.+626    	; 0x423a <__fp_rempio2>
    3fc8:	e3 95       	inc	r30
    3fca:	6f c1       	rjmp	.+734    	; 0x42aa <__fp_sinus>

00003fcc <__divsf3>:
    3fcc:	0c d0       	rcall	.+24     	; 0x3fe6 <__divsf3x>
    3fce:	5c c1       	rjmp	.+696    	; 0x4288 <__fp_round>
    3fd0:	2c d1       	rcall	.+600    	; 0x422a <__fp_pscB>
    3fd2:	40 f0       	brcs	.+16     	; 0x3fe4 <__divsf3+0x18>
    3fd4:	23 d1       	rcall	.+582    	; 0x421c <__fp_pscA>
    3fd6:	30 f0       	brcs	.+12     	; 0x3fe4 <__divsf3+0x18>
    3fd8:	21 f4       	brne	.+8      	; 0x3fe2 <__divsf3+0x16>
    3fda:	5f 3f       	cpi	r21, 0xFF	; 255
    3fdc:	19 f0       	breq	.+6      	; 0x3fe4 <__divsf3+0x18>
    3fde:	f0 c0       	rjmp	.+480    	; 0x41c0 <__fp_inf>
    3fe0:	51 11       	cpse	r21, r1
    3fe2:	97 c1       	rjmp	.+814    	; 0x4312 <__fp_szero>
    3fe4:	f3 c0       	rjmp	.+486    	; 0x41cc <__fp_nan>

00003fe6 <__divsf3x>:
    3fe6:	72 d1       	rcall	.+740    	; 0x42cc <__fp_split3>
    3fe8:	98 f3       	brcs	.-26     	; 0x3fd0 <__divsf3+0x4>

00003fea <__divsf3_pse>:
    3fea:	99 23       	and	r25, r25
    3fec:	c9 f3       	breq	.-14     	; 0x3fe0 <__divsf3+0x14>
    3fee:	55 23       	and	r21, r21
    3ff0:	b1 f3       	breq	.-20     	; 0x3fde <__divsf3+0x12>
    3ff2:	95 1b       	sub	r25, r21
    3ff4:	55 0b       	sbc	r21, r21
    3ff6:	bb 27       	eor	r27, r27
    3ff8:	aa 27       	eor	r26, r26
    3ffa:	62 17       	cp	r22, r18
    3ffc:	73 07       	cpc	r23, r19
    3ffe:	84 07       	cpc	r24, r20
    4000:	38 f0       	brcs	.+14     	; 0x4010 <__divsf3_pse+0x26>
    4002:	9f 5f       	subi	r25, 0xFF	; 255
    4004:	5f 4f       	sbci	r21, 0xFF	; 255
    4006:	22 0f       	add	r18, r18
    4008:	33 1f       	adc	r19, r19
    400a:	44 1f       	adc	r20, r20
    400c:	aa 1f       	adc	r26, r26
    400e:	a9 f3       	breq	.-22     	; 0x3ffa <__divsf3_pse+0x10>
    4010:	33 d0       	rcall	.+102    	; 0x4078 <__divsf3_pse+0x8e>
    4012:	0e 2e       	mov	r0, r30
    4014:	3a f0       	brmi	.+14     	; 0x4024 <__divsf3_pse+0x3a>
    4016:	e0 e8       	ldi	r30, 0x80	; 128
    4018:	30 d0       	rcall	.+96     	; 0x407a <__divsf3_pse+0x90>
    401a:	91 50       	subi	r25, 0x01	; 1
    401c:	50 40       	sbci	r21, 0x00	; 0
    401e:	e6 95       	lsr	r30
    4020:	00 1c       	adc	r0, r0
    4022:	ca f7       	brpl	.-14     	; 0x4016 <__divsf3_pse+0x2c>
    4024:	29 d0       	rcall	.+82     	; 0x4078 <__divsf3_pse+0x8e>
    4026:	fe 2f       	mov	r31, r30
    4028:	27 d0       	rcall	.+78     	; 0x4078 <__divsf3_pse+0x8e>
    402a:	66 0f       	add	r22, r22
    402c:	77 1f       	adc	r23, r23
    402e:	88 1f       	adc	r24, r24
    4030:	bb 1f       	adc	r27, r27
    4032:	26 17       	cp	r18, r22
    4034:	37 07       	cpc	r19, r23
    4036:	48 07       	cpc	r20, r24
    4038:	ab 07       	cpc	r26, r27
    403a:	b0 e8       	ldi	r27, 0x80	; 128
    403c:	09 f0       	breq	.+2      	; 0x4040 <__divsf3_pse+0x56>
    403e:	bb 0b       	sbc	r27, r27
    4040:	80 2d       	mov	r24, r0
    4042:	bf 01       	movw	r22, r30
    4044:	ff 27       	eor	r31, r31
    4046:	93 58       	subi	r25, 0x83	; 131
    4048:	5f 4f       	sbci	r21, 0xFF	; 255
    404a:	2a f0       	brmi	.+10     	; 0x4056 <__divsf3_pse+0x6c>
    404c:	9e 3f       	cpi	r25, 0xFE	; 254
    404e:	51 05       	cpc	r21, r1
    4050:	68 f0       	brcs	.+26     	; 0x406c <__divsf3_pse+0x82>
    4052:	b6 c0       	rjmp	.+364    	; 0x41c0 <__fp_inf>
    4054:	5e c1       	rjmp	.+700    	; 0x4312 <__fp_szero>
    4056:	5f 3f       	cpi	r21, 0xFF	; 255
    4058:	ec f3       	brlt	.-6      	; 0x4054 <__divsf3_pse+0x6a>
    405a:	98 3e       	cpi	r25, 0xE8	; 232
    405c:	dc f3       	brlt	.-10     	; 0x4054 <__divsf3_pse+0x6a>
    405e:	86 95       	lsr	r24
    4060:	77 95       	ror	r23
    4062:	67 95       	ror	r22
    4064:	b7 95       	ror	r27
    4066:	f7 95       	ror	r31
    4068:	9f 5f       	subi	r25, 0xFF	; 255
    406a:	c9 f7       	brne	.-14     	; 0x405e <__divsf3_pse+0x74>
    406c:	88 0f       	add	r24, r24
    406e:	91 1d       	adc	r25, r1
    4070:	96 95       	lsr	r25
    4072:	87 95       	ror	r24
    4074:	97 f9       	bld	r25, 7
    4076:	08 95       	ret
    4078:	e1 e0       	ldi	r30, 0x01	; 1
    407a:	66 0f       	add	r22, r22
    407c:	77 1f       	adc	r23, r23
    407e:	88 1f       	adc	r24, r24
    4080:	bb 1f       	adc	r27, r27
    4082:	62 17       	cp	r22, r18
    4084:	73 07       	cpc	r23, r19
    4086:	84 07       	cpc	r24, r20
    4088:	ba 07       	cpc	r27, r26
    408a:	20 f0       	brcs	.+8      	; 0x4094 <__divsf3_pse+0xaa>
    408c:	62 1b       	sub	r22, r18
    408e:	73 0b       	sbc	r23, r19
    4090:	84 0b       	sbc	r24, r20
    4092:	ba 0b       	sbc	r27, r26
    4094:	ee 1f       	adc	r30, r30
    4096:	88 f7       	brcc	.-30     	; 0x407a <__divsf3_pse+0x90>
    4098:	e0 95       	com	r30
    409a:	08 95       	ret

0000409c <__fixsfsi>:
    409c:	04 d0       	rcall	.+8      	; 0x40a6 <__fixunssfsi>
    409e:	68 94       	set
    40a0:	b1 11       	cpse	r27, r1
    40a2:	37 c1       	rjmp	.+622    	; 0x4312 <__fp_szero>
    40a4:	08 95       	ret

000040a6 <__fixunssfsi>:
    40a6:	1a d1       	rcall	.+564    	; 0x42dc <__fp_splitA>
    40a8:	88 f0       	brcs	.+34     	; 0x40cc <__fixunssfsi+0x26>
    40aa:	9f 57       	subi	r25, 0x7F	; 127
    40ac:	90 f0       	brcs	.+36     	; 0x40d2 <__fixunssfsi+0x2c>
    40ae:	b9 2f       	mov	r27, r25
    40b0:	99 27       	eor	r25, r25
    40b2:	b7 51       	subi	r27, 0x17	; 23
    40b4:	a0 f0       	brcs	.+40     	; 0x40de <__fixunssfsi+0x38>
    40b6:	d1 f0       	breq	.+52     	; 0x40ec <__fixunssfsi+0x46>
    40b8:	66 0f       	add	r22, r22
    40ba:	77 1f       	adc	r23, r23
    40bc:	88 1f       	adc	r24, r24
    40be:	99 1f       	adc	r25, r25
    40c0:	1a f0       	brmi	.+6      	; 0x40c8 <__fixunssfsi+0x22>
    40c2:	ba 95       	dec	r27
    40c4:	c9 f7       	brne	.-14     	; 0x40b8 <__fixunssfsi+0x12>
    40c6:	12 c0       	rjmp	.+36     	; 0x40ec <__fixunssfsi+0x46>
    40c8:	b1 30       	cpi	r27, 0x01	; 1
    40ca:	81 f0       	breq	.+32     	; 0x40ec <__fixunssfsi+0x46>
    40cc:	21 d1       	rcall	.+578    	; 0x4310 <__fp_zero>
    40ce:	b1 e0       	ldi	r27, 0x01	; 1
    40d0:	08 95       	ret
    40d2:	1e c1       	rjmp	.+572    	; 0x4310 <__fp_zero>
    40d4:	67 2f       	mov	r22, r23
    40d6:	78 2f       	mov	r23, r24
    40d8:	88 27       	eor	r24, r24
    40da:	b8 5f       	subi	r27, 0xF8	; 248
    40dc:	39 f0       	breq	.+14     	; 0x40ec <__fixunssfsi+0x46>
    40de:	b9 3f       	cpi	r27, 0xF9	; 249
    40e0:	cc f3       	brlt	.-14     	; 0x40d4 <__fixunssfsi+0x2e>
    40e2:	86 95       	lsr	r24
    40e4:	77 95       	ror	r23
    40e6:	67 95       	ror	r22
    40e8:	b3 95       	inc	r27
    40ea:	d9 f7       	brne	.-10     	; 0x40e2 <__fixunssfsi+0x3c>
    40ec:	3e f4       	brtc	.+14     	; 0x40fc <__fixunssfsi+0x56>
    40ee:	90 95       	com	r25
    40f0:	80 95       	com	r24
    40f2:	70 95       	com	r23
    40f4:	61 95       	neg	r22
    40f6:	7f 4f       	sbci	r23, 0xFF	; 255
    40f8:	8f 4f       	sbci	r24, 0xFF	; 255
    40fa:	9f 4f       	sbci	r25, 0xFF	; 255
    40fc:	08 95       	ret

000040fe <__floatunsisf>:
    40fe:	e8 94       	clt
    4100:	09 c0       	rjmp	.+18     	; 0x4114 <__floatsisf+0x12>

00004102 <__floatsisf>:
    4102:	97 fb       	bst	r25, 7
    4104:	3e f4       	brtc	.+14     	; 0x4114 <__floatsisf+0x12>
    4106:	90 95       	com	r25
    4108:	80 95       	com	r24
    410a:	70 95       	com	r23
    410c:	61 95       	neg	r22
    410e:	7f 4f       	sbci	r23, 0xFF	; 255
    4110:	8f 4f       	sbci	r24, 0xFF	; 255
    4112:	9f 4f       	sbci	r25, 0xFF	; 255
    4114:	99 23       	and	r25, r25
    4116:	a9 f0       	breq	.+42     	; 0x4142 <__floatsisf+0x40>
    4118:	f9 2f       	mov	r31, r25
    411a:	96 e9       	ldi	r25, 0x96	; 150
    411c:	bb 27       	eor	r27, r27
    411e:	93 95       	inc	r25
    4120:	f6 95       	lsr	r31
    4122:	87 95       	ror	r24
    4124:	77 95       	ror	r23
    4126:	67 95       	ror	r22
    4128:	b7 95       	ror	r27
    412a:	f1 11       	cpse	r31, r1
    412c:	f8 cf       	rjmp	.-16     	; 0x411e <__floatsisf+0x1c>
    412e:	fa f4       	brpl	.+62     	; 0x416e <__floatsisf+0x6c>
    4130:	bb 0f       	add	r27, r27
    4132:	11 f4       	brne	.+4      	; 0x4138 <__floatsisf+0x36>
    4134:	60 ff       	sbrs	r22, 0
    4136:	1b c0       	rjmp	.+54     	; 0x416e <__floatsisf+0x6c>
    4138:	6f 5f       	subi	r22, 0xFF	; 255
    413a:	7f 4f       	sbci	r23, 0xFF	; 255
    413c:	8f 4f       	sbci	r24, 0xFF	; 255
    413e:	9f 4f       	sbci	r25, 0xFF	; 255
    4140:	16 c0       	rjmp	.+44     	; 0x416e <__floatsisf+0x6c>
    4142:	88 23       	and	r24, r24
    4144:	11 f0       	breq	.+4      	; 0x414a <__floatsisf+0x48>
    4146:	96 e9       	ldi	r25, 0x96	; 150
    4148:	11 c0       	rjmp	.+34     	; 0x416c <__floatsisf+0x6a>
    414a:	77 23       	and	r23, r23
    414c:	21 f0       	breq	.+8      	; 0x4156 <__floatsisf+0x54>
    414e:	9e e8       	ldi	r25, 0x8E	; 142
    4150:	87 2f       	mov	r24, r23
    4152:	76 2f       	mov	r23, r22
    4154:	05 c0       	rjmp	.+10     	; 0x4160 <__floatsisf+0x5e>
    4156:	66 23       	and	r22, r22
    4158:	71 f0       	breq	.+28     	; 0x4176 <__floatsisf+0x74>
    415a:	96 e8       	ldi	r25, 0x86	; 134
    415c:	86 2f       	mov	r24, r22
    415e:	70 e0       	ldi	r23, 0x00	; 0
    4160:	60 e0       	ldi	r22, 0x00	; 0
    4162:	2a f0       	brmi	.+10     	; 0x416e <__floatsisf+0x6c>
    4164:	9a 95       	dec	r25
    4166:	66 0f       	add	r22, r22
    4168:	77 1f       	adc	r23, r23
    416a:	88 1f       	adc	r24, r24
    416c:	da f7       	brpl	.-10     	; 0x4164 <__floatsisf+0x62>
    416e:	88 0f       	add	r24, r24
    4170:	96 95       	lsr	r25
    4172:	87 95       	ror	r24
    4174:	97 f9       	bld	r25, 7
    4176:	08 95       	ret

00004178 <__fp_cmp>:
    4178:	99 0f       	add	r25, r25
    417a:	00 08       	sbc	r0, r0
    417c:	55 0f       	add	r21, r21
    417e:	aa 0b       	sbc	r26, r26
    4180:	e0 e8       	ldi	r30, 0x80	; 128
    4182:	fe ef       	ldi	r31, 0xFE	; 254
    4184:	16 16       	cp	r1, r22
    4186:	17 06       	cpc	r1, r23
    4188:	e8 07       	cpc	r30, r24
    418a:	f9 07       	cpc	r31, r25
    418c:	c0 f0       	brcs	.+48     	; 0x41be <__fp_cmp+0x46>
    418e:	12 16       	cp	r1, r18
    4190:	13 06       	cpc	r1, r19
    4192:	e4 07       	cpc	r30, r20
    4194:	f5 07       	cpc	r31, r21
    4196:	98 f0       	brcs	.+38     	; 0x41be <__fp_cmp+0x46>
    4198:	62 1b       	sub	r22, r18
    419a:	73 0b       	sbc	r23, r19
    419c:	84 0b       	sbc	r24, r20
    419e:	95 0b       	sbc	r25, r21
    41a0:	39 f4       	brne	.+14     	; 0x41b0 <__fp_cmp+0x38>
    41a2:	0a 26       	eor	r0, r26
    41a4:	61 f0       	breq	.+24     	; 0x41be <__fp_cmp+0x46>
    41a6:	23 2b       	or	r18, r19
    41a8:	24 2b       	or	r18, r20
    41aa:	25 2b       	or	r18, r21
    41ac:	21 f4       	brne	.+8      	; 0x41b6 <__fp_cmp+0x3e>
    41ae:	08 95       	ret
    41b0:	0a 26       	eor	r0, r26
    41b2:	09 f4       	brne	.+2      	; 0x41b6 <__fp_cmp+0x3e>
    41b4:	a1 40       	sbci	r26, 0x01	; 1
    41b6:	a6 95       	lsr	r26
    41b8:	8f ef       	ldi	r24, 0xFF	; 255
    41ba:	81 1d       	adc	r24, r1
    41bc:	81 1d       	adc	r24, r1
    41be:	08 95       	ret

000041c0 <__fp_inf>:
    41c0:	97 f9       	bld	r25, 7
    41c2:	9f 67       	ori	r25, 0x7F	; 127
    41c4:	80 e8       	ldi	r24, 0x80	; 128
    41c6:	70 e0       	ldi	r23, 0x00	; 0
    41c8:	60 e0       	ldi	r22, 0x00	; 0
    41ca:	08 95       	ret

000041cc <__fp_nan>:
    41cc:	9f ef       	ldi	r25, 0xFF	; 255
    41ce:	80 ec       	ldi	r24, 0xC0	; 192
    41d0:	08 95       	ret

000041d2 <__fp_powser>:
    41d2:	df 93       	push	r29
    41d4:	cf 93       	push	r28
    41d6:	1f 93       	push	r17
    41d8:	0f 93       	push	r16
    41da:	ff 92       	push	r15
    41dc:	ef 92       	push	r14
    41de:	df 92       	push	r13
    41e0:	7b 01       	movw	r14, r22
    41e2:	8c 01       	movw	r16, r24
    41e4:	68 94       	set
    41e6:	05 c0       	rjmp	.+10     	; 0x41f2 <__fp_powser+0x20>
    41e8:	da 2e       	mov	r13, r26
    41ea:	ef 01       	movw	r28, r30
    41ec:	a8 d0       	rcall	.+336    	; 0x433e <__mulsf3x>
    41ee:	fe 01       	movw	r30, r28
    41f0:	e8 94       	clt
    41f2:	a5 91       	lpm	r26, Z+
    41f4:	25 91       	lpm	r18, Z+
    41f6:	35 91       	lpm	r19, Z+
    41f8:	45 91       	lpm	r20, Z+
    41fa:	55 91       	lpm	r21, Z+
    41fc:	ae f3       	brts	.-22     	; 0x41e8 <__fp_powser+0x16>
    41fe:	ef 01       	movw	r28, r30
    4200:	8f de       	rcall	.-738    	; 0x3f20 <__addsf3x>
    4202:	fe 01       	movw	r30, r28
    4204:	97 01       	movw	r18, r14
    4206:	a8 01       	movw	r20, r16
    4208:	da 94       	dec	r13
    420a:	79 f7       	brne	.-34     	; 0x41ea <__fp_powser+0x18>
    420c:	df 90       	pop	r13
    420e:	ef 90       	pop	r14
    4210:	ff 90       	pop	r15
    4212:	0f 91       	pop	r16
    4214:	1f 91       	pop	r17
    4216:	cf 91       	pop	r28
    4218:	df 91       	pop	r29
    421a:	08 95       	ret

0000421c <__fp_pscA>:
    421c:	00 24       	eor	r0, r0
    421e:	0a 94       	dec	r0
    4220:	16 16       	cp	r1, r22
    4222:	17 06       	cpc	r1, r23
    4224:	18 06       	cpc	r1, r24
    4226:	09 06       	cpc	r0, r25
    4228:	08 95       	ret

0000422a <__fp_pscB>:
    422a:	00 24       	eor	r0, r0
    422c:	0a 94       	dec	r0
    422e:	12 16       	cp	r1, r18
    4230:	13 06       	cpc	r1, r19
    4232:	14 06       	cpc	r1, r20
    4234:	05 06       	cpc	r0, r21
    4236:	08 95       	ret
    4238:	c9 cf       	rjmp	.-110    	; 0x41cc <__fp_nan>

0000423a <__fp_rempio2>:
    423a:	50 d0       	rcall	.+160    	; 0x42dc <__fp_splitA>
    423c:	e8 f3       	brcs	.-6      	; 0x4238 <__fp_pscB+0xe>
    423e:	e8 94       	clt
    4240:	e0 e0       	ldi	r30, 0x00	; 0
    4242:	bb 27       	eor	r27, r27
    4244:	9f 57       	subi	r25, 0x7F	; 127
    4246:	f0 f0       	brcs	.+60     	; 0x4284 <__fp_rempio2+0x4a>
    4248:	2a ed       	ldi	r18, 0xDA	; 218
    424a:	3f e0       	ldi	r19, 0x0F	; 15
    424c:	49 ec       	ldi	r20, 0xC9	; 201
    424e:	06 c0       	rjmp	.+12     	; 0x425c <__fp_rempio2+0x22>
    4250:	ee 0f       	add	r30, r30
    4252:	bb 0f       	add	r27, r27
    4254:	66 1f       	adc	r22, r22
    4256:	77 1f       	adc	r23, r23
    4258:	88 1f       	adc	r24, r24
    425a:	28 f0       	brcs	.+10     	; 0x4266 <__fp_rempio2+0x2c>
    425c:	b2 3a       	cpi	r27, 0xA2	; 162
    425e:	62 07       	cpc	r22, r18
    4260:	73 07       	cpc	r23, r19
    4262:	84 07       	cpc	r24, r20
    4264:	28 f0       	brcs	.+10     	; 0x4270 <__fp_rempio2+0x36>
    4266:	b2 5a       	subi	r27, 0xA2	; 162
    4268:	62 0b       	sbc	r22, r18
    426a:	73 0b       	sbc	r23, r19
    426c:	84 0b       	sbc	r24, r20
    426e:	e3 95       	inc	r30
    4270:	9a 95       	dec	r25
    4272:	72 f7       	brpl	.-36     	; 0x4250 <__fp_rempio2+0x16>
    4274:	80 38       	cpi	r24, 0x80	; 128
    4276:	30 f4       	brcc	.+12     	; 0x4284 <__fp_rempio2+0x4a>
    4278:	9a 95       	dec	r25
    427a:	bb 0f       	add	r27, r27
    427c:	66 1f       	adc	r22, r22
    427e:	77 1f       	adc	r23, r23
    4280:	88 1f       	adc	r24, r24
    4282:	d2 f7       	brpl	.-12     	; 0x4278 <__fp_rempio2+0x3e>
    4284:	90 48       	sbci	r25, 0x80	; 128
    4286:	ba c0       	rjmp	.+372    	; 0x43fc <__fp_mpack_finite>

00004288 <__fp_round>:
    4288:	09 2e       	mov	r0, r25
    428a:	03 94       	inc	r0
    428c:	00 0c       	add	r0, r0
    428e:	11 f4       	brne	.+4      	; 0x4294 <__fp_round+0xc>
    4290:	88 23       	and	r24, r24
    4292:	52 f0       	brmi	.+20     	; 0x42a8 <__fp_round+0x20>
    4294:	bb 0f       	add	r27, r27
    4296:	40 f4       	brcc	.+16     	; 0x42a8 <__fp_round+0x20>
    4298:	bf 2b       	or	r27, r31
    429a:	11 f4       	brne	.+4      	; 0x42a0 <__fp_round+0x18>
    429c:	60 ff       	sbrs	r22, 0
    429e:	04 c0       	rjmp	.+8      	; 0x42a8 <__fp_round+0x20>
    42a0:	6f 5f       	subi	r22, 0xFF	; 255
    42a2:	7f 4f       	sbci	r23, 0xFF	; 255
    42a4:	8f 4f       	sbci	r24, 0xFF	; 255
    42a6:	9f 4f       	sbci	r25, 0xFF	; 255
    42a8:	08 95       	ret

000042aa <__fp_sinus>:
    42aa:	ef 93       	push	r30
    42ac:	e0 ff       	sbrs	r30, 0
    42ae:	06 c0       	rjmp	.+12     	; 0x42bc <__fp_sinus+0x12>
    42b0:	a2 ea       	ldi	r26, 0xA2	; 162
    42b2:	2a ed       	ldi	r18, 0xDA	; 218
    42b4:	3f e0       	ldi	r19, 0x0F	; 15
    42b6:	49 ec       	ldi	r20, 0xC9	; 201
    42b8:	5f eb       	ldi	r21, 0xBF	; 191
    42ba:	32 de       	rcall	.-924    	; 0x3f20 <__addsf3x>
    42bc:	e5 df       	rcall	.-54     	; 0x4288 <__fp_round>
    42be:	0f 90       	pop	r0
    42c0:	03 94       	inc	r0
    42c2:	01 fc       	sbrc	r0, 1
    42c4:	90 58       	subi	r25, 0x80	; 128
    42c6:	ea e5       	ldi	r30, 0x5A	; 90
    42c8:	f1 e0       	ldi	r31, 0x01	; 1
    42ca:	a4 c0       	rjmp	.+328    	; 0x4414 <__fp_powsodd>

000042cc <__fp_split3>:
    42cc:	57 fd       	sbrc	r21, 7
    42ce:	90 58       	subi	r25, 0x80	; 128
    42d0:	44 0f       	add	r20, r20
    42d2:	55 1f       	adc	r21, r21
    42d4:	59 f0       	breq	.+22     	; 0x42ec <__fp_splitA+0x10>
    42d6:	5f 3f       	cpi	r21, 0xFF	; 255
    42d8:	71 f0       	breq	.+28     	; 0x42f6 <__fp_splitA+0x1a>
    42da:	47 95       	ror	r20

000042dc <__fp_splitA>:
    42dc:	88 0f       	add	r24, r24
    42de:	97 fb       	bst	r25, 7
    42e0:	99 1f       	adc	r25, r25
    42e2:	61 f0       	breq	.+24     	; 0x42fc <__fp_splitA+0x20>
    42e4:	9f 3f       	cpi	r25, 0xFF	; 255
    42e6:	79 f0       	breq	.+30     	; 0x4306 <__fp_splitA+0x2a>
    42e8:	87 95       	ror	r24
    42ea:	08 95       	ret
    42ec:	12 16       	cp	r1, r18
    42ee:	13 06       	cpc	r1, r19
    42f0:	14 06       	cpc	r1, r20
    42f2:	55 1f       	adc	r21, r21
    42f4:	f2 cf       	rjmp	.-28     	; 0x42da <__fp_split3+0xe>
    42f6:	46 95       	lsr	r20
    42f8:	f1 df       	rcall	.-30     	; 0x42dc <__fp_splitA>
    42fa:	08 c0       	rjmp	.+16     	; 0x430c <__fp_splitA+0x30>
    42fc:	16 16       	cp	r1, r22
    42fe:	17 06       	cpc	r1, r23
    4300:	18 06       	cpc	r1, r24
    4302:	99 1f       	adc	r25, r25
    4304:	f1 cf       	rjmp	.-30     	; 0x42e8 <__fp_splitA+0xc>
    4306:	86 95       	lsr	r24
    4308:	71 05       	cpc	r23, r1
    430a:	61 05       	cpc	r22, r1
    430c:	08 94       	sec
    430e:	08 95       	ret

00004310 <__fp_zero>:
    4310:	e8 94       	clt

00004312 <__fp_szero>:
    4312:	bb 27       	eor	r27, r27
    4314:	66 27       	eor	r22, r22
    4316:	77 27       	eor	r23, r23
    4318:	cb 01       	movw	r24, r22
    431a:	97 f9       	bld	r25, 7
    431c:	08 95       	ret

0000431e <__gesf2>:
    431e:	2c df       	rcall	.-424    	; 0x4178 <__fp_cmp>
    4320:	08 f4       	brcc	.+2      	; 0x4324 <__gesf2+0x6>
    4322:	8f ef       	ldi	r24, 0xFF	; 255
    4324:	08 95       	ret

00004326 <__mulsf3>:
    4326:	0b d0       	rcall	.+22     	; 0x433e <__mulsf3x>
    4328:	af cf       	rjmp	.-162    	; 0x4288 <__fp_round>
    432a:	78 df       	rcall	.-272    	; 0x421c <__fp_pscA>
    432c:	28 f0       	brcs	.+10     	; 0x4338 <__mulsf3+0x12>
    432e:	7d df       	rcall	.-262    	; 0x422a <__fp_pscB>
    4330:	18 f0       	brcs	.+6      	; 0x4338 <__mulsf3+0x12>
    4332:	95 23       	and	r25, r21
    4334:	09 f0       	breq	.+2      	; 0x4338 <__mulsf3+0x12>
    4336:	44 cf       	rjmp	.-376    	; 0x41c0 <__fp_inf>
    4338:	49 cf       	rjmp	.-366    	; 0x41cc <__fp_nan>
    433a:	11 24       	eor	r1, r1
    433c:	ea cf       	rjmp	.-44     	; 0x4312 <__fp_szero>

0000433e <__mulsf3x>:
    433e:	c6 df       	rcall	.-116    	; 0x42cc <__fp_split3>
    4340:	a0 f3       	brcs	.-24     	; 0x432a <__mulsf3+0x4>

00004342 <__mulsf3_pse>:
    4342:	95 9f       	mul	r25, r21
    4344:	d1 f3       	breq	.-12     	; 0x433a <__mulsf3+0x14>
    4346:	95 0f       	add	r25, r21
    4348:	50 e0       	ldi	r21, 0x00	; 0
    434a:	55 1f       	adc	r21, r21
    434c:	62 9f       	mul	r22, r18
    434e:	f0 01       	movw	r30, r0
    4350:	72 9f       	mul	r23, r18
    4352:	bb 27       	eor	r27, r27
    4354:	f0 0d       	add	r31, r0
    4356:	b1 1d       	adc	r27, r1
    4358:	63 9f       	mul	r22, r19
    435a:	aa 27       	eor	r26, r26
    435c:	f0 0d       	add	r31, r0
    435e:	b1 1d       	adc	r27, r1
    4360:	aa 1f       	adc	r26, r26
    4362:	64 9f       	mul	r22, r20
    4364:	66 27       	eor	r22, r22
    4366:	b0 0d       	add	r27, r0
    4368:	a1 1d       	adc	r26, r1
    436a:	66 1f       	adc	r22, r22
    436c:	82 9f       	mul	r24, r18
    436e:	22 27       	eor	r18, r18
    4370:	b0 0d       	add	r27, r0
    4372:	a1 1d       	adc	r26, r1
    4374:	62 1f       	adc	r22, r18
    4376:	73 9f       	mul	r23, r19
    4378:	b0 0d       	add	r27, r0
    437a:	a1 1d       	adc	r26, r1
    437c:	62 1f       	adc	r22, r18
    437e:	83 9f       	mul	r24, r19
    4380:	a0 0d       	add	r26, r0
    4382:	61 1d       	adc	r22, r1
    4384:	22 1f       	adc	r18, r18
    4386:	74 9f       	mul	r23, r20
    4388:	33 27       	eor	r19, r19
    438a:	a0 0d       	add	r26, r0
    438c:	61 1d       	adc	r22, r1
    438e:	23 1f       	adc	r18, r19
    4390:	84 9f       	mul	r24, r20
    4392:	60 0d       	add	r22, r0
    4394:	21 1d       	adc	r18, r1
    4396:	82 2f       	mov	r24, r18
    4398:	76 2f       	mov	r23, r22
    439a:	6a 2f       	mov	r22, r26
    439c:	11 24       	eor	r1, r1
    439e:	9f 57       	subi	r25, 0x7F	; 127
    43a0:	50 40       	sbci	r21, 0x00	; 0
    43a2:	8a f0       	brmi	.+34     	; 0x43c6 <__mulsf3_pse+0x84>
    43a4:	e1 f0       	breq	.+56     	; 0x43de <__mulsf3_pse+0x9c>
    43a6:	88 23       	and	r24, r24
    43a8:	4a f0       	brmi	.+18     	; 0x43bc <__mulsf3_pse+0x7a>
    43aa:	ee 0f       	add	r30, r30
    43ac:	ff 1f       	adc	r31, r31
    43ae:	bb 1f       	adc	r27, r27
    43b0:	66 1f       	adc	r22, r22
    43b2:	77 1f       	adc	r23, r23
    43b4:	88 1f       	adc	r24, r24
    43b6:	91 50       	subi	r25, 0x01	; 1
    43b8:	50 40       	sbci	r21, 0x00	; 0
    43ba:	a9 f7       	brne	.-22     	; 0x43a6 <__mulsf3_pse+0x64>
    43bc:	9e 3f       	cpi	r25, 0xFE	; 254
    43be:	51 05       	cpc	r21, r1
    43c0:	70 f0       	brcs	.+28     	; 0x43de <__mulsf3_pse+0x9c>
    43c2:	fe ce       	rjmp	.-516    	; 0x41c0 <__fp_inf>
    43c4:	a6 cf       	rjmp	.-180    	; 0x4312 <__fp_szero>
    43c6:	5f 3f       	cpi	r21, 0xFF	; 255
    43c8:	ec f3       	brlt	.-6      	; 0x43c4 <__mulsf3_pse+0x82>
    43ca:	98 3e       	cpi	r25, 0xE8	; 232
    43cc:	dc f3       	brlt	.-10     	; 0x43c4 <__mulsf3_pse+0x82>
    43ce:	86 95       	lsr	r24
    43d0:	77 95       	ror	r23
    43d2:	67 95       	ror	r22
    43d4:	b7 95       	ror	r27
    43d6:	f7 95       	ror	r31
    43d8:	e7 95       	ror	r30
    43da:	9f 5f       	subi	r25, 0xFF	; 255
    43dc:	c1 f7       	brne	.-16     	; 0x43ce <__mulsf3_pse+0x8c>
    43de:	fe 2b       	or	r31, r30
    43e0:	88 0f       	add	r24, r24
    43e2:	91 1d       	adc	r25, r1
    43e4:	96 95       	lsr	r25
    43e6:	87 95       	ror	r24
    43e8:	97 f9       	bld	r25, 7
    43ea:	08 95       	ret

000043ec <sin>:
    43ec:	9f 93       	push	r25
    43ee:	25 df       	rcall	.-438    	; 0x423a <__fp_rempio2>
    43f0:	0f 90       	pop	r0
    43f2:	07 fc       	sbrc	r0, 7
    43f4:	ee 5f       	subi	r30, 0xFE	; 254
    43f6:	59 cf       	rjmp	.-334    	; 0x42aa <__fp_sinus>

000043f8 <__fp_mpack>:
    43f8:	9f 3f       	cpi	r25, 0xFF	; 255
    43fa:	31 f0       	breq	.+12     	; 0x4408 <__fp_mpack_finite+0xc>

000043fc <__fp_mpack_finite>:
    43fc:	91 50       	subi	r25, 0x01	; 1
    43fe:	20 f4       	brcc	.+8      	; 0x4408 <__fp_mpack_finite+0xc>
    4400:	87 95       	ror	r24
    4402:	77 95       	ror	r23
    4404:	67 95       	ror	r22
    4406:	b7 95       	ror	r27
    4408:	88 0f       	add	r24, r24
    440a:	91 1d       	adc	r25, r1
    440c:	96 95       	lsr	r25
    440e:	87 95       	ror	r24
    4410:	97 f9       	bld	r25, 7
    4412:	08 95       	ret

00004414 <__fp_powsodd>:
    4414:	9f 93       	push	r25
    4416:	8f 93       	push	r24
    4418:	7f 93       	push	r23
    441a:	6f 93       	push	r22
    441c:	ff 93       	push	r31
    441e:	ef 93       	push	r30
    4420:	9b 01       	movw	r18, r22
    4422:	ac 01       	movw	r20, r24
    4424:	80 df       	rcall	.-256    	; 0x4326 <__mulsf3>
    4426:	ef 91       	pop	r30
    4428:	ff 91       	pop	r31
    442a:	d3 de       	rcall	.-602    	; 0x41d2 <__fp_powser>
    442c:	2f 91       	pop	r18
    442e:	3f 91       	pop	r19
    4430:	4f 91       	pop	r20
    4432:	5f 91       	pop	r21
    4434:	78 cf       	rjmp	.-272    	; 0x4326 <__mulsf3>

00004436 <vfprintf>:
    4436:	2f 92       	push	r2
    4438:	3f 92       	push	r3
    443a:	4f 92       	push	r4
    443c:	5f 92       	push	r5
    443e:	6f 92       	push	r6
    4440:	7f 92       	push	r7
    4442:	8f 92       	push	r8
    4444:	9f 92       	push	r9
    4446:	af 92       	push	r10
    4448:	bf 92       	push	r11
    444a:	cf 92       	push	r12
    444c:	df 92       	push	r13
    444e:	ef 92       	push	r14
    4450:	ff 92       	push	r15
    4452:	0f 93       	push	r16
    4454:	1f 93       	push	r17
    4456:	cf 93       	push	r28
    4458:	df 93       	push	r29
    445a:	cd b7       	in	r28, 0x3d	; 61
    445c:	de b7       	in	r29, 0x3e	; 62
    445e:	63 97       	sbiw	r28, 0x13	; 19
    4460:	0f b6       	in	r0, 0x3f	; 63
    4462:	f8 94       	cli
    4464:	de bf       	out	0x3e, r29	; 62
    4466:	0f be       	out	0x3f, r0	; 63
    4468:	cd bf       	out	0x3d, r28	; 61
    446a:	6c 01       	movw	r12, r24
    446c:	4b 01       	movw	r8, r22
    446e:	2a 01       	movw	r4, r20
    4470:	fc 01       	movw	r30, r24
    4472:	17 82       	std	Z+7, r1	; 0x07
    4474:	16 82       	std	Z+6, r1	; 0x06
    4476:	83 81       	ldd	r24, Z+3	; 0x03
    4478:	81 ff       	sbrs	r24, 1
    447a:	29 c3       	rjmp	.+1618   	; 0x4ace <vfprintf+0x698>
    447c:	ae 01       	movw	r20, r28
    447e:	4f 5f       	subi	r20, 0xFF	; 255
    4480:	5f 4f       	sbci	r21, 0xFF	; 255
    4482:	3a 01       	movw	r6, r20
    4484:	f6 01       	movw	r30, r12
    4486:	93 81       	ldd	r25, Z+3	; 0x03
    4488:	f4 01       	movw	r30, r8
    448a:	93 fd       	sbrc	r25, 3
    448c:	85 91       	lpm	r24, Z+
    448e:	93 ff       	sbrs	r25, 3
    4490:	81 91       	ld	r24, Z+
    4492:	4f 01       	movw	r8, r30
    4494:	88 23       	and	r24, r24
    4496:	09 f4       	brne	.+2      	; 0x449a <vfprintf+0x64>
    4498:	16 c3       	rjmp	.+1580   	; 0x4ac6 <vfprintf+0x690>
    449a:	85 32       	cpi	r24, 0x25	; 37
    449c:	39 f4       	brne	.+14     	; 0x44ac <vfprintf+0x76>
    449e:	93 fd       	sbrc	r25, 3
    44a0:	85 91       	lpm	r24, Z+
    44a2:	93 ff       	sbrs	r25, 3
    44a4:	81 91       	ld	r24, Z+
    44a6:	4f 01       	movw	r8, r30
    44a8:	85 32       	cpi	r24, 0x25	; 37
    44aa:	31 f4       	brne	.+12     	; 0x44b8 <vfprintf+0x82>
    44ac:	b6 01       	movw	r22, r12
    44ae:	90 e0       	ldi	r25, 0x00	; 0
    44b0:	90 d5       	rcall	.+2848   	; 0x4fd2 <fputc>
    44b2:	52 01       	movw	r10, r4
    44b4:	25 01       	movw	r4, r10
    44b6:	e6 cf       	rjmp	.-52     	; 0x4484 <vfprintf+0x4e>
    44b8:	10 e0       	ldi	r17, 0x00	; 0
    44ba:	f1 2c       	mov	r15, r1
    44bc:	20 e0       	ldi	r18, 0x00	; 0
    44be:	20 32       	cpi	r18, 0x20	; 32
    44c0:	a0 f4       	brcc	.+40     	; 0x44ea <vfprintf+0xb4>
    44c2:	8b 32       	cpi	r24, 0x2B	; 43
    44c4:	69 f0       	breq	.+26     	; 0x44e0 <vfprintf+0xaa>
    44c6:	30 f4       	brcc	.+12     	; 0x44d4 <vfprintf+0x9e>
    44c8:	80 32       	cpi	r24, 0x20	; 32
    44ca:	59 f0       	breq	.+22     	; 0x44e2 <vfprintf+0xac>
    44cc:	83 32       	cpi	r24, 0x23	; 35
    44ce:	69 f4       	brne	.+26     	; 0x44ea <vfprintf+0xb4>
    44d0:	20 61       	ori	r18, 0x10	; 16
    44d2:	2c c0       	rjmp	.+88     	; 0x452c <vfprintf+0xf6>
    44d4:	8d 32       	cpi	r24, 0x2D	; 45
    44d6:	39 f0       	breq	.+14     	; 0x44e6 <vfprintf+0xb0>
    44d8:	80 33       	cpi	r24, 0x30	; 48
    44da:	39 f4       	brne	.+14     	; 0x44ea <vfprintf+0xb4>
    44dc:	21 60       	ori	r18, 0x01	; 1
    44de:	26 c0       	rjmp	.+76     	; 0x452c <vfprintf+0xf6>
    44e0:	22 60       	ori	r18, 0x02	; 2
    44e2:	24 60       	ori	r18, 0x04	; 4
    44e4:	23 c0       	rjmp	.+70     	; 0x452c <vfprintf+0xf6>
    44e6:	28 60       	ori	r18, 0x08	; 8
    44e8:	21 c0       	rjmp	.+66     	; 0x452c <vfprintf+0xf6>
    44ea:	27 fd       	sbrc	r18, 7
    44ec:	27 c0       	rjmp	.+78     	; 0x453c <vfprintf+0x106>
    44ee:	30 ed       	ldi	r19, 0xD0	; 208
    44f0:	38 0f       	add	r19, r24
    44f2:	3a 30       	cpi	r19, 0x0A	; 10
    44f4:	78 f4       	brcc	.+30     	; 0x4514 <vfprintf+0xde>
    44f6:	26 ff       	sbrs	r18, 6
    44f8:	06 c0       	rjmp	.+12     	; 0x4506 <vfprintf+0xd0>
    44fa:	fa e0       	ldi	r31, 0x0A	; 10
    44fc:	1f 9f       	mul	r17, r31
    44fe:	30 0d       	add	r19, r0
    4500:	11 24       	eor	r1, r1
    4502:	13 2f       	mov	r17, r19
    4504:	13 c0       	rjmp	.+38     	; 0x452c <vfprintf+0xf6>
    4506:	4a e0       	ldi	r20, 0x0A	; 10
    4508:	f4 9e       	mul	r15, r20
    450a:	30 0d       	add	r19, r0
    450c:	11 24       	eor	r1, r1
    450e:	f3 2e       	mov	r15, r19
    4510:	20 62       	ori	r18, 0x20	; 32
    4512:	0c c0       	rjmp	.+24     	; 0x452c <vfprintf+0xf6>
    4514:	8e 32       	cpi	r24, 0x2E	; 46
    4516:	21 f4       	brne	.+8      	; 0x4520 <vfprintf+0xea>
    4518:	26 fd       	sbrc	r18, 6
    451a:	d5 c2       	rjmp	.+1450   	; 0x4ac6 <vfprintf+0x690>
    451c:	20 64       	ori	r18, 0x40	; 64
    451e:	06 c0       	rjmp	.+12     	; 0x452c <vfprintf+0xf6>
    4520:	8c 36       	cpi	r24, 0x6C	; 108
    4522:	11 f4       	brne	.+4      	; 0x4528 <vfprintf+0xf2>
    4524:	20 68       	ori	r18, 0x80	; 128
    4526:	02 c0       	rjmp	.+4      	; 0x452c <vfprintf+0xf6>
    4528:	88 36       	cpi	r24, 0x68	; 104
    452a:	41 f4       	brne	.+16     	; 0x453c <vfprintf+0x106>
    452c:	f4 01       	movw	r30, r8
    452e:	93 fd       	sbrc	r25, 3
    4530:	85 91       	lpm	r24, Z+
    4532:	93 ff       	sbrs	r25, 3
    4534:	81 91       	ld	r24, Z+
    4536:	4f 01       	movw	r8, r30
    4538:	81 11       	cpse	r24, r1
    453a:	c1 cf       	rjmp	.-126    	; 0x44be <vfprintf+0x88>
    453c:	9b eb       	ldi	r25, 0xBB	; 187
    453e:	98 0f       	add	r25, r24
    4540:	93 30       	cpi	r25, 0x03	; 3
    4542:	18 f4       	brcc	.+6      	; 0x454a <vfprintf+0x114>
    4544:	20 61       	ori	r18, 0x10	; 16
    4546:	80 5e       	subi	r24, 0xE0	; 224
    4548:	06 c0       	rjmp	.+12     	; 0x4556 <vfprintf+0x120>
    454a:	9b e9       	ldi	r25, 0x9B	; 155
    454c:	98 0f       	add	r25, r24
    454e:	93 30       	cpi	r25, 0x03	; 3
    4550:	08 f0       	brcs	.+2      	; 0x4554 <vfprintf+0x11e>
    4552:	64 c1       	rjmp	.+712    	; 0x481c <vfprintf+0x3e6>
    4554:	2f 7e       	andi	r18, 0xEF	; 239
    4556:	26 ff       	sbrs	r18, 6
    4558:	16 e0       	ldi	r17, 0x06	; 6
    455a:	2f 73       	andi	r18, 0x3F	; 63
    455c:	32 2e       	mov	r3, r18
    455e:	85 36       	cpi	r24, 0x65	; 101
    4560:	19 f4       	brne	.+6      	; 0x4568 <vfprintf+0x132>
    4562:	20 64       	ori	r18, 0x40	; 64
    4564:	32 2e       	mov	r3, r18
    4566:	08 c0       	rjmp	.+16     	; 0x4578 <vfprintf+0x142>
    4568:	86 36       	cpi	r24, 0x66	; 102
    456a:	21 f4       	brne	.+8      	; 0x4574 <vfprintf+0x13e>
    456c:	f2 2f       	mov	r31, r18
    456e:	f0 68       	ori	r31, 0x80	; 128
    4570:	3f 2e       	mov	r3, r31
    4572:	02 c0       	rjmp	.+4      	; 0x4578 <vfprintf+0x142>
    4574:	11 11       	cpse	r17, r1
    4576:	11 50       	subi	r17, 0x01	; 1
    4578:	37 fe       	sbrs	r3, 7
    457a:	07 c0       	rjmp	.+14     	; 0x458a <vfprintf+0x154>
    457c:	1c 33       	cpi	r17, 0x3C	; 60
    457e:	50 f4       	brcc	.+20     	; 0x4594 <vfprintf+0x15e>
    4580:	ee 24       	eor	r14, r14
    4582:	e3 94       	inc	r14
    4584:	e1 0e       	add	r14, r17
    4586:	27 e0       	ldi	r18, 0x07	; 7
    4588:	0b c0       	rjmp	.+22     	; 0x45a0 <vfprintf+0x16a>
    458a:	18 30       	cpi	r17, 0x08	; 8
    458c:	38 f0       	brcs	.+14     	; 0x459c <vfprintf+0x166>
    458e:	27 e0       	ldi	r18, 0x07	; 7
    4590:	17 e0       	ldi	r17, 0x07	; 7
    4592:	05 c0       	rjmp	.+10     	; 0x459e <vfprintf+0x168>
    4594:	27 e0       	ldi	r18, 0x07	; 7
    4596:	4c e3       	ldi	r20, 0x3C	; 60
    4598:	e4 2e       	mov	r14, r20
    459a:	02 c0       	rjmp	.+4      	; 0x45a0 <vfprintf+0x16a>
    459c:	21 2f       	mov	r18, r17
    459e:	e1 2c       	mov	r14, r1
    45a0:	52 01       	movw	r10, r4
    45a2:	44 e0       	ldi	r20, 0x04	; 4
    45a4:	a4 0e       	add	r10, r20
    45a6:	b1 1c       	adc	r11, r1
    45a8:	f2 01       	movw	r30, r4
    45aa:	60 81       	ld	r22, Z
    45ac:	71 81       	ldd	r23, Z+1	; 0x01
    45ae:	82 81       	ldd	r24, Z+2	; 0x02
    45b0:	93 81       	ldd	r25, Z+3	; 0x03
    45b2:	0e 2d       	mov	r16, r14
    45b4:	a3 01       	movw	r20, r6
    45b6:	1f d4       	rcall	.+2110   	; 0x4df6 <__ftoa_engine>
    45b8:	2c 01       	movw	r4, r24
    45ba:	09 81       	ldd	r16, Y+1	; 0x01
    45bc:	00 ff       	sbrs	r16, 0
    45be:	02 c0       	rjmp	.+4      	; 0x45c4 <vfprintf+0x18e>
    45c0:	03 ff       	sbrs	r16, 3
    45c2:	07 c0       	rjmp	.+14     	; 0x45d2 <vfprintf+0x19c>
    45c4:	31 fc       	sbrc	r3, 1
    45c6:	08 c0       	rjmp	.+16     	; 0x45d8 <vfprintf+0x1a2>
    45c8:	32 fe       	sbrs	r3, 2
    45ca:	09 c0       	rjmp	.+18     	; 0x45de <vfprintf+0x1a8>
    45cc:	30 e2       	ldi	r19, 0x20	; 32
    45ce:	23 2e       	mov	r2, r19
    45d0:	07 c0       	rjmp	.+14     	; 0x45e0 <vfprintf+0x1aa>
    45d2:	2d e2       	ldi	r18, 0x2D	; 45
    45d4:	22 2e       	mov	r2, r18
    45d6:	04 c0       	rjmp	.+8      	; 0x45e0 <vfprintf+0x1aa>
    45d8:	9b e2       	ldi	r25, 0x2B	; 43
    45da:	29 2e       	mov	r2, r25
    45dc:	01 c0       	rjmp	.+2      	; 0x45e0 <vfprintf+0x1aa>
    45de:	21 2c       	mov	r2, r1
    45e0:	80 2f       	mov	r24, r16
    45e2:	8c 70       	andi	r24, 0x0C	; 12
    45e4:	19 f0       	breq	.+6      	; 0x45ec <vfprintf+0x1b6>
    45e6:	21 10       	cpse	r2, r1
    45e8:	51 c2       	rjmp	.+1186   	; 0x4a8c <vfprintf+0x656>
    45ea:	8d c2       	rjmp	.+1306   	; 0x4b06 <vfprintf+0x6d0>
    45ec:	37 fe       	sbrs	r3, 7
    45ee:	0f c0       	rjmp	.+30     	; 0x460e <vfprintf+0x1d8>
    45f0:	e4 0c       	add	r14, r4
    45f2:	04 ff       	sbrs	r16, 4
    45f4:	04 c0       	rjmp	.+8      	; 0x45fe <vfprintf+0x1c8>
    45f6:	8a 81       	ldd	r24, Y+2	; 0x02
    45f8:	81 33       	cpi	r24, 0x31	; 49
    45fa:	09 f4       	brne	.+2      	; 0x45fe <vfprintf+0x1c8>
    45fc:	ea 94       	dec	r14
    45fe:	1e 14       	cp	r1, r14
    4600:	74 f5       	brge	.+92     	; 0x465e <vfprintf+0x228>
    4602:	f8 e0       	ldi	r31, 0x08	; 8
    4604:	fe 15       	cp	r31, r14
    4606:	78 f5       	brcc	.+94     	; 0x4666 <vfprintf+0x230>
    4608:	88 e0       	ldi	r24, 0x08	; 8
    460a:	e8 2e       	mov	r14, r24
    460c:	2c c0       	rjmp	.+88     	; 0x4666 <vfprintf+0x230>
    460e:	36 fc       	sbrc	r3, 6
    4610:	2a c0       	rjmp	.+84     	; 0x4666 <vfprintf+0x230>
    4612:	81 2f       	mov	r24, r17
    4614:	90 e0       	ldi	r25, 0x00	; 0
    4616:	84 15       	cp	r24, r4
    4618:	95 05       	cpc	r25, r5
    461a:	9c f0       	brlt	.+38     	; 0x4642 <vfprintf+0x20c>
    461c:	2c ef       	ldi	r18, 0xFC	; 252
    461e:	42 16       	cp	r4, r18
    4620:	2f ef       	ldi	r18, 0xFF	; 255
    4622:	52 06       	cpc	r5, r18
    4624:	74 f0       	brlt	.+28     	; 0x4642 <vfprintf+0x20c>
    4626:	43 2d       	mov	r20, r3
    4628:	40 68       	ori	r20, 0x80	; 128
    462a:	34 2e       	mov	r3, r20
    462c:	0a c0       	rjmp	.+20     	; 0x4642 <vfprintf+0x20c>
    462e:	e2 e0       	ldi	r30, 0x02	; 2
    4630:	f0 e0       	ldi	r31, 0x00	; 0
    4632:	ec 0f       	add	r30, r28
    4634:	fd 1f       	adc	r31, r29
    4636:	e1 0f       	add	r30, r17
    4638:	f1 1d       	adc	r31, r1
    463a:	80 81       	ld	r24, Z
    463c:	80 33       	cpi	r24, 0x30	; 48
    463e:	19 f4       	brne	.+6      	; 0x4646 <vfprintf+0x210>
    4640:	11 50       	subi	r17, 0x01	; 1
    4642:	11 11       	cpse	r17, r1
    4644:	f4 cf       	rjmp	.-24     	; 0x462e <vfprintf+0x1f8>
    4646:	37 fe       	sbrs	r3, 7
    4648:	0e c0       	rjmp	.+28     	; 0x4666 <vfprintf+0x230>
    464a:	ee 24       	eor	r14, r14
    464c:	e3 94       	inc	r14
    464e:	e1 0e       	add	r14, r17
    4650:	81 2f       	mov	r24, r17
    4652:	90 e0       	ldi	r25, 0x00	; 0
    4654:	48 16       	cp	r4, r24
    4656:	59 06       	cpc	r5, r25
    4658:	2c f4       	brge	.+10     	; 0x4664 <vfprintf+0x22e>
    465a:	14 19       	sub	r17, r4
    465c:	04 c0       	rjmp	.+8      	; 0x4666 <vfprintf+0x230>
    465e:	ee 24       	eor	r14, r14
    4660:	e3 94       	inc	r14
    4662:	01 c0       	rjmp	.+2      	; 0x4666 <vfprintf+0x230>
    4664:	10 e0       	ldi	r17, 0x00	; 0
    4666:	37 fe       	sbrs	r3, 7
    4668:	06 c0       	rjmp	.+12     	; 0x4676 <vfprintf+0x240>
    466a:	14 14       	cp	r1, r4
    466c:	15 04       	cpc	r1, r5
    466e:	34 f4       	brge	.+12     	; 0x467c <vfprintf+0x246>
    4670:	c2 01       	movw	r24, r4
    4672:	01 96       	adiw	r24, 0x01	; 1
    4674:	05 c0       	rjmp	.+10     	; 0x4680 <vfprintf+0x24a>
    4676:	85 e0       	ldi	r24, 0x05	; 5
    4678:	90 e0       	ldi	r25, 0x00	; 0
    467a:	02 c0       	rjmp	.+4      	; 0x4680 <vfprintf+0x24a>
    467c:	81 e0       	ldi	r24, 0x01	; 1
    467e:	90 e0       	ldi	r25, 0x00	; 0
    4680:	21 10       	cpse	r2, r1
    4682:	01 96       	adiw	r24, 0x01	; 1
    4684:	11 23       	and	r17, r17
    4686:	31 f0       	breq	.+12     	; 0x4694 <vfprintf+0x25e>
    4688:	21 2f       	mov	r18, r17
    468a:	30 e0       	ldi	r19, 0x00	; 0
    468c:	2f 5f       	subi	r18, 0xFF	; 255
    468e:	3f 4f       	sbci	r19, 0xFF	; 255
    4690:	82 0f       	add	r24, r18
    4692:	93 1f       	adc	r25, r19
    4694:	2f 2d       	mov	r18, r15
    4696:	30 e0       	ldi	r19, 0x00	; 0
    4698:	82 17       	cp	r24, r18
    469a:	93 07       	cpc	r25, r19
    469c:	14 f4       	brge	.+4      	; 0x46a2 <vfprintf+0x26c>
    469e:	f8 1a       	sub	r15, r24
    46a0:	01 c0       	rjmp	.+2      	; 0x46a4 <vfprintf+0x26e>
    46a2:	f1 2c       	mov	r15, r1
    46a4:	83 2d       	mov	r24, r3
    46a6:	89 70       	andi	r24, 0x09	; 9
    46a8:	41 f4       	brne	.+16     	; 0x46ba <vfprintf+0x284>
    46aa:	ff 20       	and	r15, r15
    46ac:	31 f0       	breq	.+12     	; 0x46ba <vfprintf+0x284>
    46ae:	b6 01       	movw	r22, r12
    46b0:	80 e2       	ldi	r24, 0x20	; 32
    46b2:	90 e0       	ldi	r25, 0x00	; 0
    46b4:	8e d4       	rcall	.+2332   	; 0x4fd2 <fputc>
    46b6:	fa 94       	dec	r15
    46b8:	f8 cf       	rjmp	.-16     	; 0x46aa <vfprintf+0x274>
    46ba:	22 20       	and	r2, r2
    46bc:	21 f0       	breq	.+8      	; 0x46c6 <vfprintf+0x290>
    46be:	b6 01       	movw	r22, r12
    46c0:	82 2d       	mov	r24, r2
    46c2:	90 e0       	ldi	r25, 0x00	; 0
    46c4:	86 d4       	rcall	.+2316   	; 0x4fd2 <fputc>
    46c6:	33 fc       	sbrc	r3, 3
    46c8:	08 c0       	rjmp	.+16     	; 0x46da <vfprintf+0x2a4>
    46ca:	ff 20       	and	r15, r15
    46cc:	31 f0       	breq	.+12     	; 0x46da <vfprintf+0x2a4>
    46ce:	b6 01       	movw	r22, r12
    46d0:	80 e3       	ldi	r24, 0x30	; 48
    46d2:	90 e0       	ldi	r25, 0x00	; 0
    46d4:	7e d4       	rcall	.+2300   	; 0x4fd2 <fputc>
    46d6:	fa 94       	dec	r15
    46d8:	f8 cf       	rjmp	.-16     	; 0x46ca <vfprintf+0x294>
    46da:	37 fe       	sbrs	r3, 7
    46dc:	58 c0       	rjmp	.+176    	; 0x478e <vfprintf+0x358>
    46de:	94 2d       	mov	r25, r4
    46e0:	85 2d       	mov	r24, r5
    46e2:	57 fe       	sbrs	r5, 7
    46e4:	02 c0       	rjmp	.+4      	; 0x46ea <vfprintf+0x2b4>
    46e6:	90 e0       	ldi	r25, 0x00	; 0
    46e8:	80 e0       	ldi	r24, 0x00	; 0
    46ea:	29 2e       	mov	r2, r25
    46ec:	38 2e       	mov	r3, r24
    46ee:	20 e0       	ldi	r18, 0x00	; 0
    46f0:	30 e0       	ldi	r19, 0x00	; 0
    46f2:	a2 01       	movw	r20, r4
    46f4:	4e 19       	sub	r20, r14
    46f6:	51 09       	sbc	r21, r1
    46f8:	5d 87       	std	Y+13, r21	; 0x0d
    46fa:	4c 87       	std	Y+12, r20	; 0x0c
    46fc:	a2 01       	movw	r20, r4
    46fe:	42 19       	sub	r20, r2
    4700:	53 09       	sbc	r21, r3
    4702:	5f 87       	std	Y+15, r21	; 0x0f
    4704:	4e 87       	std	Y+14, r20	; 0x0e
    4706:	61 2f       	mov	r22, r17
    4708:	70 e0       	ldi	r23, 0x00	; 0
    470a:	44 27       	eor	r20, r20
    470c:	55 27       	eor	r21, r21
    470e:	46 1b       	sub	r20, r22
    4710:	57 0b       	sbc	r21, r23
    4712:	59 8b       	std	Y+17, r21	; 0x11
    4714:	48 8b       	std	Y+16, r20	; 0x10
    4716:	5f ef       	ldi	r21, 0xFF	; 255
    4718:	25 16       	cp	r2, r21
    471a:	35 06       	cpc	r3, r21
    471c:	41 f4       	brne	.+16     	; 0x472e <vfprintf+0x2f8>
    471e:	b6 01       	movw	r22, r12
    4720:	8e e2       	ldi	r24, 0x2E	; 46
    4722:	90 e0       	ldi	r25, 0x00	; 0
    4724:	2a 8b       	std	Y+18, r18	; 0x12
    4726:	3b 8b       	std	Y+19, r19	; 0x13
    4728:	54 d4       	rcall	.+2216   	; 0x4fd2 <fputc>
    472a:	3b 89       	ldd	r19, Y+19	; 0x13
    472c:	2a 89       	ldd	r18, Y+18	; 0x12
    472e:	42 14       	cp	r4, r2
    4730:	53 04       	cpc	r5, r3
    4732:	6c f0       	brlt	.+26     	; 0x474e <vfprintf+0x318>
    4734:	4c 85       	ldd	r20, Y+12	; 0x0c
    4736:	5d 85       	ldd	r21, Y+13	; 0x0d
    4738:	42 15       	cp	r20, r2
    473a:	53 05       	cpc	r21, r3
    473c:	44 f4       	brge	.+16     	; 0x474e <vfprintf+0x318>
    473e:	ee 85       	ldd	r30, Y+14	; 0x0e
    4740:	ff 85       	ldd	r31, Y+15	; 0x0f
    4742:	e2 0f       	add	r30, r18
    4744:	f3 1f       	adc	r31, r19
    4746:	e6 0d       	add	r30, r6
    4748:	f7 1d       	adc	r31, r7
    474a:	81 81       	ldd	r24, Z+1	; 0x01
    474c:	01 c0       	rjmp	.+2      	; 0x4750 <vfprintf+0x31a>
    474e:	80 e3       	ldi	r24, 0x30	; 48
    4750:	51 e0       	ldi	r21, 0x01	; 1
    4752:	25 1a       	sub	r2, r21
    4754:	31 08       	sbc	r3, r1
    4756:	2f 5f       	subi	r18, 0xFF	; 255
    4758:	3f 4f       	sbci	r19, 0xFF	; 255
    475a:	48 89       	ldd	r20, Y+16	; 0x10
    475c:	59 89       	ldd	r21, Y+17	; 0x11
    475e:	24 16       	cp	r2, r20
    4760:	35 06       	cpc	r3, r21
    4762:	44 f0       	brlt	.+16     	; 0x4774 <vfprintf+0x33e>
    4764:	b6 01       	movw	r22, r12
    4766:	90 e0       	ldi	r25, 0x00	; 0
    4768:	2a 8b       	std	Y+18, r18	; 0x12
    476a:	3b 8b       	std	Y+19, r19	; 0x13
    476c:	32 d4       	rcall	.+2148   	; 0x4fd2 <fputc>
    476e:	2a 89       	ldd	r18, Y+18	; 0x12
    4770:	3b 89       	ldd	r19, Y+19	; 0x13
    4772:	d1 cf       	rjmp	.-94     	; 0x4716 <vfprintf+0x2e0>
    4774:	24 14       	cp	r2, r4
    4776:	35 04       	cpc	r3, r5
    4778:	39 f4       	brne	.+14     	; 0x4788 <vfprintf+0x352>
    477a:	9a 81       	ldd	r25, Y+2	; 0x02
    477c:	96 33       	cpi	r25, 0x36	; 54
    477e:	18 f4       	brcc	.+6      	; 0x4786 <vfprintf+0x350>
    4780:	95 33       	cpi	r25, 0x35	; 53
    4782:	11 f4       	brne	.+4      	; 0x4788 <vfprintf+0x352>
    4784:	04 ff       	sbrs	r16, 4
    4786:	81 e3       	ldi	r24, 0x31	; 49
    4788:	b6 01       	movw	r22, r12
    478a:	90 e0       	ldi	r25, 0x00	; 0
    478c:	45 c0       	rjmp	.+138    	; 0x4818 <vfprintf+0x3e2>
    478e:	8a 81       	ldd	r24, Y+2	; 0x02
    4790:	81 33       	cpi	r24, 0x31	; 49
    4792:	09 f0       	breq	.+2      	; 0x4796 <vfprintf+0x360>
    4794:	0f 7e       	andi	r16, 0xEF	; 239
    4796:	b6 01       	movw	r22, r12
    4798:	90 e0       	ldi	r25, 0x00	; 0
    479a:	1b d4       	rcall	.+2102   	; 0x4fd2 <fputc>
    479c:	11 11       	cpse	r17, r1
    479e:	05 c0       	rjmp	.+10     	; 0x47aa <vfprintf+0x374>
    47a0:	34 fc       	sbrc	r3, 4
    47a2:	16 c0       	rjmp	.+44     	; 0x47d0 <vfprintf+0x39a>
    47a4:	85 e6       	ldi	r24, 0x65	; 101
    47a6:	90 e0       	ldi	r25, 0x00	; 0
    47a8:	15 c0       	rjmp	.+42     	; 0x47d4 <vfprintf+0x39e>
    47aa:	b6 01       	movw	r22, r12
    47ac:	8e e2       	ldi	r24, 0x2E	; 46
    47ae:	90 e0       	ldi	r25, 0x00	; 0
    47b0:	10 d4       	rcall	.+2080   	; 0x4fd2 <fputc>
    47b2:	82 e0       	ldi	r24, 0x02	; 2
    47b4:	ee 24       	eor	r14, r14
    47b6:	e3 94       	inc	r14
    47b8:	e8 0e       	add	r14, r24
    47ba:	f3 01       	movw	r30, r6
    47bc:	e8 0f       	add	r30, r24
    47be:	f1 1d       	adc	r31, r1
    47c0:	80 81       	ld	r24, Z
    47c2:	b6 01       	movw	r22, r12
    47c4:	90 e0       	ldi	r25, 0x00	; 0
    47c6:	05 d4       	rcall	.+2058   	; 0x4fd2 <fputc>
    47c8:	11 50       	subi	r17, 0x01	; 1
    47ca:	8e 2d       	mov	r24, r14
    47cc:	99 f7       	brne	.-26     	; 0x47b4 <vfprintf+0x37e>
    47ce:	e8 cf       	rjmp	.-48     	; 0x47a0 <vfprintf+0x36a>
    47d0:	85 e4       	ldi	r24, 0x45	; 69
    47d2:	90 e0       	ldi	r25, 0x00	; 0
    47d4:	b6 01       	movw	r22, r12
    47d6:	fd d3       	rcall	.+2042   	; 0x4fd2 <fputc>
    47d8:	57 fc       	sbrc	r5, 7
    47da:	05 c0       	rjmp	.+10     	; 0x47e6 <vfprintf+0x3b0>
    47dc:	41 14       	cp	r4, r1
    47de:	51 04       	cpc	r5, r1
    47e0:	39 f4       	brne	.+14     	; 0x47f0 <vfprintf+0x3ba>
    47e2:	04 ff       	sbrs	r16, 4
    47e4:	05 c0       	rjmp	.+10     	; 0x47f0 <vfprintf+0x3ba>
    47e6:	51 94       	neg	r5
    47e8:	41 94       	neg	r4
    47ea:	51 08       	sbc	r5, r1
    47ec:	8d e2       	ldi	r24, 0x2D	; 45
    47ee:	01 c0       	rjmp	.+2      	; 0x47f2 <vfprintf+0x3bc>
    47f0:	8b e2       	ldi	r24, 0x2B	; 43
    47f2:	b6 01       	movw	r22, r12
    47f4:	90 e0       	ldi	r25, 0x00	; 0
    47f6:	ed d3       	rcall	.+2010   	; 0x4fd2 <fputc>
    47f8:	80 e3       	ldi	r24, 0x30	; 48
    47fa:	9a e0       	ldi	r25, 0x0A	; 10
    47fc:	49 16       	cp	r4, r25
    47fe:	51 04       	cpc	r5, r1
    4800:	2c f0       	brlt	.+10     	; 0x480c <vfprintf+0x3d6>
    4802:	8f 5f       	subi	r24, 0xFF	; 255
    4804:	5a e0       	ldi	r21, 0x0A	; 10
    4806:	45 1a       	sub	r4, r21
    4808:	51 08       	sbc	r5, r1
    480a:	f7 cf       	rjmp	.-18     	; 0x47fa <vfprintf+0x3c4>
    480c:	b6 01       	movw	r22, r12
    480e:	90 e0       	ldi	r25, 0x00	; 0
    4810:	e0 d3       	rcall	.+1984   	; 0x4fd2 <fputc>
    4812:	b6 01       	movw	r22, r12
    4814:	c2 01       	movw	r24, r4
    4816:	c0 96       	adiw	r24, 0x30	; 48
    4818:	dc d3       	rcall	.+1976   	; 0x4fd2 <fputc>
    481a:	4c c1       	rjmp	.+664    	; 0x4ab4 <vfprintf+0x67e>
    481c:	83 36       	cpi	r24, 0x63	; 99
    481e:	31 f0       	breq	.+12     	; 0x482c <vfprintf+0x3f6>
    4820:	83 37       	cpi	r24, 0x73	; 115
    4822:	79 f0       	breq	.+30     	; 0x4842 <vfprintf+0x40c>
    4824:	83 35       	cpi	r24, 0x53	; 83
    4826:	09 f0       	breq	.+2      	; 0x482a <vfprintf+0x3f4>
    4828:	54 c0       	rjmp	.+168    	; 0x48d2 <vfprintf+0x49c>
    482a:	20 c0       	rjmp	.+64     	; 0x486c <vfprintf+0x436>
    482c:	52 01       	movw	r10, r4
    482e:	e2 e0       	ldi	r30, 0x02	; 2
    4830:	ae 0e       	add	r10, r30
    4832:	b1 1c       	adc	r11, r1
    4834:	f2 01       	movw	r30, r4
    4836:	80 81       	ld	r24, Z
    4838:	89 83       	std	Y+1, r24	; 0x01
    483a:	01 e0       	ldi	r16, 0x01	; 1
    483c:	10 e0       	ldi	r17, 0x00	; 0
    483e:	23 01       	movw	r4, r6
    4840:	13 c0       	rjmp	.+38     	; 0x4868 <vfprintf+0x432>
    4842:	52 01       	movw	r10, r4
    4844:	f2 e0       	ldi	r31, 0x02	; 2
    4846:	af 0e       	add	r10, r31
    4848:	b1 1c       	adc	r11, r1
    484a:	f2 01       	movw	r30, r4
    484c:	40 80       	ld	r4, Z
    484e:	51 80       	ldd	r5, Z+1	; 0x01
    4850:	26 ff       	sbrs	r18, 6
    4852:	03 c0       	rjmp	.+6      	; 0x485a <vfprintf+0x424>
    4854:	61 2f       	mov	r22, r17
    4856:	70 e0       	ldi	r23, 0x00	; 0
    4858:	02 c0       	rjmp	.+4      	; 0x485e <vfprintf+0x428>
    485a:	6f ef       	ldi	r22, 0xFF	; 255
    485c:	7f ef       	ldi	r23, 0xFF	; 255
    485e:	c2 01       	movw	r24, r4
    4860:	2a 8b       	std	Y+18, r18	; 0x12
    4862:	ac d3       	rcall	.+1880   	; 0x4fbc <strnlen>
    4864:	8c 01       	movw	r16, r24
    4866:	2a 89       	ldd	r18, Y+18	; 0x12
    4868:	2f 77       	andi	r18, 0x7F	; 127
    486a:	14 c0       	rjmp	.+40     	; 0x4894 <vfprintf+0x45e>
    486c:	52 01       	movw	r10, r4
    486e:	f2 e0       	ldi	r31, 0x02	; 2
    4870:	af 0e       	add	r10, r31
    4872:	b1 1c       	adc	r11, r1
    4874:	f2 01       	movw	r30, r4
    4876:	40 80       	ld	r4, Z
    4878:	51 80       	ldd	r5, Z+1	; 0x01
    487a:	26 ff       	sbrs	r18, 6
    487c:	03 c0       	rjmp	.+6      	; 0x4884 <vfprintf+0x44e>
    487e:	61 2f       	mov	r22, r17
    4880:	70 e0       	ldi	r23, 0x00	; 0
    4882:	02 c0       	rjmp	.+4      	; 0x4888 <vfprintf+0x452>
    4884:	6f ef       	ldi	r22, 0xFF	; 255
    4886:	7f ef       	ldi	r23, 0xFF	; 255
    4888:	c2 01       	movw	r24, r4
    488a:	2a 8b       	std	Y+18, r18	; 0x12
    488c:	8c d3       	rcall	.+1816   	; 0x4fa6 <strnlen_P>
    488e:	8c 01       	movw	r16, r24
    4890:	2a 89       	ldd	r18, Y+18	; 0x12
    4892:	20 68       	ori	r18, 0x80	; 128
    4894:	32 2e       	mov	r3, r18
    4896:	23 fd       	sbrc	r18, 3
    4898:	18 c0       	rjmp	.+48     	; 0x48ca <vfprintf+0x494>
    489a:	8f 2d       	mov	r24, r15
    489c:	90 e0       	ldi	r25, 0x00	; 0
    489e:	08 17       	cp	r16, r24
    48a0:	19 07       	cpc	r17, r25
    48a2:	98 f4       	brcc	.+38     	; 0x48ca <vfprintf+0x494>
    48a4:	b6 01       	movw	r22, r12
    48a6:	80 e2       	ldi	r24, 0x20	; 32
    48a8:	90 e0       	ldi	r25, 0x00	; 0
    48aa:	93 d3       	rcall	.+1830   	; 0x4fd2 <fputc>
    48ac:	fa 94       	dec	r15
    48ae:	f5 cf       	rjmp	.-22     	; 0x489a <vfprintf+0x464>
    48b0:	f2 01       	movw	r30, r4
    48b2:	37 fc       	sbrc	r3, 7
    48b4:	85 91       	lpm	r24, Z+
    48b6:	37 fe       	sbrs	r3, 7
    48b8:	81 91       	ld	r24, Z+
    48ba:	2f 01       	movw	r4, r30
    48bc:	b6 01       	movw	r22, r12
    48be:	90 e0       	ldi	r25, 0x00	; 0
    48c0:	88 d3       	rcall	.+1808   	; 0x4fd2 <fputc>
    48c2:	f1 10       	cpse	r15, r1
    48c4:	fa 94       	dec	r15
    48c6:	01 50       	subi	r16, 0x01	; 1
    48c8:	11 09       	sbc	r17, r1
    48ca:	01 15       	cp	r16, r1
    48cc:	11 05       	cpc	r17, r1
    48ce:	81 f7       	brne	.-32     	; 0x48b0 <vfprintf+0x47a>
    48d0:	f1 c0       	rjmp	.+482    	; 0x4ab4 <vfprintf+0x67e>
    48d2:	84 36       	cpi	r24, 0x64	; 100
    48d4:	11 f0       	breq	.+4      	; 0x48da <vfprintf+0x4a4>
    48d6:	89 36       	cpi	r24, 0x69	; 105
    48d8:	51 f5       	brne	.+84     	; 0x492e <vfprintf+0x4f8>
    48da:	52 01       	movw	r10, r4
    48dc:	27 ff       	sbrs	r18, 7
    48de:	09 c0       	rjmp	.+18     	; 0x48f2 <vfprintf+0x4bc>
    48e0:	f4 e0       	ldi	r31, 0x04	; 4
    48e2:	af 0e       	add	r10, r31
    48e4:	b1 1c       	adc	r11, r1
    48e6:	f2 01       	movw	r30, r4
    48e8:	60 81       	ld	r22, Z
    48ea:	71 81       	ldd	r23, Z+1	; 0x01
    48ec:	82 81       	ldd	r24, Z+2	; 0x02
    48ee:	93 81       	ldd	r25, Z+3	; 0x03
    48f0:	0a c0       	rjmp	.+20     	; 0x4906 <vfprintf+0x4d0>
    48f2:	f2 e0       	ldi	r31, 0x02	; 2
    48f4:	af 0e       	add	r10, r31
    48f6:	b1 1c       	adc	r11, r1
    48f8:	f2 01       	movw	r30, r4
    48fa:	60 81       	ld	r22, Z
    48fc:	71 81       	ldd	r23, Z+1	; 0x01
    48fe:	07 2e       	mov	r0, r23
    4900:	00 0c       	add	r0, r0
    4902:	88 0b       	sbc	r24, r24
    4904:	99 0b       	sbc	r25, r25
    4906:	2f 76       	andi	r18, 0x6F	; 111
    4908:	32 2e       	mov	r3, r18
    490a:	97 ff       	sbrs	r25, 7
    490c:	09 c0       	rjmp	.+18     	; 0x4920 <vfprintf+0x4ea>
    490e:	90 95       	com	r25
    4910:	80 95       	com	r24
    4912:	70 95       	com	r23
    4914:	61 95       	neg	r22
    4916:	7f 4f       	sbci	r23, 0xFF	; 255
    4918:	8f 4f       	sbci	r24, 0xFF	; 255
    491a:	9f 4f       	sbci	r25, 0xFF	; 255
    491c:	20 68       	ori	r18, 0x80	; 128
    491e:	32 2e       	mov	r3, r18
    4920:	2a e0       	ldi	r18, 0x0A	; 10
    4922:	30 e0       	ldi	r19, 0x00	; 0
    4924:	a3 01       	movw	r20, r6
    4926:	bc d3       	rcall	.+1912   	; 0x50a0 <__ultoa_invert>
    4928:	e8 2e       	mov	r14, r24
    492a:	e6 18       	sub	r14, r6
    492c:	3e c0       	rjmp	.+124    	; 0x49aa <vfprintf+0x574>
    492e:	02 2f       	mov	r16, r18
    4930:	85 37       	cpi	r24, 0x75	; 117
    4932:	21 f4       	brne	.+8      	; 0x493c <vfprintf+0x506>
    4934:	0f 7e       	andi	r16, 0xEF	; 239
    4936:	2a e0       	ldi	r18, 0x0A	; 10
    4938:	30 e0       	ldi	r19, 0x00	; 0
    493a:	1d c0       	rjmp	.+58     	; 0x4976 <vfprintf+0x540>
    493c:	09 7f       	andi	r16, 0xF9	; 249
    493e:	8f 36       	cpi	r24, 0x6F	; 111
    4940:	91 f0       	breq	.+36     	; 0x4966 <vfprintf+0x530>
    4942:	18 f4       	brcc	.+6      	; 0x494a <vfprintf+0x514>
    4944:	88 35       	cpi	r24, 0x58	; 88
    4946:	59 f0       	breq	.+22     	; 0x495e <vfprintf+0x528>
    4948:	be c0       	rjmp	.+380    	; 0x4ac6 <vfprintf+0x690>
    494a:	80 37       	cpi	r24, 0x70	; 112
    494c:	19 f0       	breq	.+6      	; 0x4954 <vfprintf+0x51e>
    494e:	88 37       	cpi	r24, 0x78	; 120
    4950:	11 f0       	breq	.+4      	; 0x4956 <vfprintf+0x520>
    4952:	b9 c0       	rjmp	.+370    	; 0x4ac6 <vfprintf+0x690>
    4954:	00 61       	ori	r16, 0x10	; 16
    4956:	04 ff       	sbrs	r16, 4
    4958:	09 c0       	rjmp	.+18     	; 0x496c <vfprintf+0x536>
    495a:	04 60       	ori	r16, 0x04	; 4
    495c:	07 c0       	rjmp	.+14     	; 0x496c <vfprintf+0x536>
    495e:	24 ff       	sbrs	r18, 4
    4960:	08 c0       	rjmp	.+16     	; 0x4972 <vfprintf+0x53c>
    4962:	06 60       	ori	r16, 0x06	; 6
    4964:	06 c0       	rjmp	.+12     	; 0x4972 <vfprintf+0x53c>
    4966:	28 e0       	ldi	r18, 0x08	; 8
    4968:	30 e0       	ldi	r19, 0x00	; 0
    496a:	05 c0       	rjmp	.+10     	; 0x4976 <vfprintf+0x540>
    496c:	20 e1       	ldi	r18, 0x10	; 16
    496e:	30 e0       	ldi	r19, 0x00	; 0
    4970:	02 c0       	rjmp	.+4      	; 0x4976 <vfprintf+0x540>
    4972:	20 e1       	ldi	r18, 0x10	; 16
    4974:	32 e0       	ldi	r19, 0x02	; 2
    4976:	52 01       	movw	r10, r4
    4978:	07 ff       	sbrs	r16, 7
    497a:	09 c0       	rjmp	.+18     	; 0x498e <vfprintf+0x558>
    497c:	f4 e0       	ldi	r31, 0x04	; 4
    497e:	af 0e       	add	r10, r31
    4980:	b1 1c       	adc	r11, r1
    4982:	f2 01       	movw	r30, r4
    4984:	60 81       	ld	r22, Z
    4986:	71 81       	ldd	r23, Z+1	; 0x01
    4988:	82 81       	ldd	r24, Z+2	; 0x02
    498a:	93 81       	ldd	r25, Z+3	; 0x03
    498c:	08 c0       	rjmp	.+16     	; 0x499e <vfprintf+0x568>
    498e:	f2 e0       	ldi	r31, 0x02	; 2
    4990:	af 0e       	add	r10, r31
    4992:	b1 1c       	adc	r11, r1
    4994:	f2 01       	movw	r30, r4
    4996:	60 81       	ld	r22, Z
    4998:	71 81       	ldd	r23, Z+1	; 0x01
    499a:	80 e0       	ldi	r24, 0x00	; 0
    499c:	90 e0       	ldi	r25, 0x00	; 0
    499e:	a3 01       	movw	r20, r6
    49a0:	7f d3       	rcall	.+1790   	; 0x50a0 <__ultoa_invert>
    49a2:	e8 2e       	mov	r14, r24
    49a4:	e6 18       	sub	r14, r6
    49a6:	0f 77       	andi	r16, 0x7F	; 127
    49a8:	30 2e       	mov	r3, r16
    49aa:	36 fe       	sbrs	r3, 6
    49ac:	0b c0       	rjmp	.+22     	; 0x49c4 <vfprintf+0x58e>
    49ae:	33 2d       	mov	r19, r3
    49b0:	3e 7f       	andi	r19, 0xFE	; 254
    49b2:	e1 16       	cp	r14, r17
    49b4:	50 f4       	brcc	.+20     	; 0x49ca <vfprintf+0x594>
    49b6:	34 fe       	sbrs	r3, 4
    49b8:	0a c0       	rjmp	.+20     	; 0x49ce <vfprintf+0x598>
    49ba:	32 fc       	sbrc	r3, 2
    49bc:	08 c0       	rjmp	.+16     	; 0x49ce <vfprintf+0x598>
    49be:	33 2d       	mov	r19, r3
    49c0:	3e 7e       	andi	r19, 0xEE	; 238
    49c2:	05 c0       	rjmp	.+10     	; 0x49ce <vfprintf+0x598>
    49c4:	0e 2d       	mov	r16, r14
    49c6:	33 2d       	mov	r19, r3
    49c8:	03 c0       	rjmp	.+6      	; 0x49d0 <vfprintf+0x59a>
    49ca:	0e 2d       	mov	r16, r14
    49cc:	01 c0       	rjmp	.+2      	; 0x49d0 <vfprintf+0x59a>
    49ce:	01 2f       	mov	r16, r17
    49d0:	34 ff       	sbrs	r19, 4
    49d2:	0c c0       	rjmp	.+24     	; 0x49ec <vfprintf+0x5b6>
    49d4:	fe 01       	movw	r30, r28
    49d6:	ee 0d       	add	r30, r14
    49d8:	f1 1d       	adc	r31, r1
    49da:	80 81       	ld	r24, Z
    49dc:	80 33       	cpi	r24, 0x30	; 48
    49de:	11 f4       	brne	.+4      	; 0x49e4 <vfprintf+0x5ae>
    49e0:	39 7e       	andi	r19, 0xE9	; 233
    49e2:	08 c0       	rjmp	.+16     	; 0x49f4 <vfprintf+0x5be>
    49e4:	32 ff       	sbrs	r19, 2
    49e6:	05 c0       	rjmp	.+10     	; 0x49f2 <vfprintf+0x5bc>
    49e8:	0e 5f       	subi	r16, 0xFE	; 254
    49ea:	04 c0       	rjmp	.+8      	; 0x49f4 <vfprintf+0x5be>
    49ec:	83 2f       	mov	r24, r19
    49ee:	86 78       	andi	r24, 0x86	; 134
    49f0:	09 f0       	breq	.+2      	; 0x49f4 <vfprintf+0x5be>
    49f2:	0f 5f       	subi	r16, 0xFF	; 255
    49f4:	33 fd       	sbrc	r19, 3
    49f6:	12 c0       	rjmp	.+36     	; 0x4a1c <vfprintf+0x5e6>
    49f8:	30 ff       	sbrs	r19, 0
    49fa:	06 c0       	rjmp	.+12     	; 0x4a08 <vfprintf+0x5d2>
    49fc:	1e 2d       	mov	r17, r14
    49fe:	0f 15       	cp	r16, r15
    4a00:	18 f4       	brcc	.+6      	; 0x4a08 <vfprintf+0x5d2>
    4a02:	1f 0d       	add	r17, r15
    4a04:	10 1b       	sub	r17, r16
    4a06:	0f 2d       	mov	r16, r15
    4a08:	0f 15       	cp	r16, r15
    4a0a:	60 f4       	brcc	.+24     	; 0x4a24 <vfprintf+0x5ee>
    4a0c:	b6 01       	movw	r22, r12
    4a0e:	80 e2       	ldi	r24, 0x20	; 32
    4a10:	90 e0       	ldi	r25, 0x00	; 0
    4a12:	3b 8b       	std	Y+19, r19	; 0x13
    4a14:	de d2       	rcall	.+1468   	; 0x4fd2 <fputc>
    4a16:	0f 5f       	subi	r16, 0xFF	; 255
    4a18:	3b 89       	ldd	r19, Y+19	; 0x13
    4a1a:	f6 cf       	rjmp	.-20     	; 0x4a08 <vfprintf+0x5d2>
    4a1c:	0f 15       	cp	r16, r15
    4a1e:	10 f4       	brcc	.+4      	; 0x4a24 <vfprintf+0x5ee>
    4a20:	f0 1a       	sub	r15, r16
    4a22:	01 c0       	rjmp	.+2      	; 0x4a26 <vfprintf+0x5f0>
    4a24:	f1 2c       	mov	r15, r1
    4a26:	34 ff       	sbrs	r19, 4
    4a28:	11 c0       	rjmp	.+34     	; 0x4a4c <vfprintf+0x616>
    4a2a:	b6 01       	movw	r22, r12
    4a2c:	80 e3       	ldi	r24, 0x30	; 48
    4a2e:	90 e0       	ldi	r25, 0x00	; 0
    4a30:	3b 8b       	std	Y+19, r19	; 0x13
    4a32:	cf d2       	rcall	.+1438   	; 0x4fd2 <fputc>
    4a34:	3b 89       	ldd	r19, Y+19	; 0x13
    4a36:	32 ff       	sbrs	r19, 2
    4a38:	16 c0       	rjmp	.+44     	; 0x4a66 <vfprintf+0x630>
    4a3a:	31 fd       	sbrc	r19, 1
    4a3c:	03 c0       	rjmp	.+6      	; 0x4a44 <vfprintf+0x60e>
    4a3e:	88 e7       	ldi	r24, 0x78	; 120
    4a40:	90 e0       	ldi	r25, 0x00	; 0
    4a42:	02 c0       	rjmp	.+4      	; 0x4a48 <vfprintf+0x612>
    4a44:	88 e5       	ldi	r24, 0x58	; 88
    4a46:	90 e0       	ldi	r25, 0x00	; 0
    4a48:	b6 01       	movw	r22, r12
    4a4a:	0c c0       	rjmp	.+24     	; 0x4a64 <vfprintf+0x62e>
    4a4c:	83 2f       	mov	r24, r19
    4a4e:	86 78       	andi	r24, 0x86	; 134
    4a50:	51 f0       	breq	.+20     	; 0x4a66 <vfprintf+0x630>
    4a52:	31 ff       	sbrs	r19, 1
    4a54:	02 c0       	rjmp	.+4      	; 0x4a5a <vfprintf+0x624>
    4a56:	8b e2       	ldi	r24, 0x2B	; 43
    4a58:	01 c0       	rjmp	.+2      	; 0x4a5c <vfprintf+0x626>
    4a5a:	80 e2       	ldi	r24, 0x20	; 32
    4a5c:	37 fd       	sbrc	r19, 7
    4a5e:	8d e2       	ldi	r24, 0x2D	; 45
    4a60:	b6 01       	movw	r22, r12
    4a62:	90 e0       	ldi	r25, 0x00	; 0
    4a64:	b6 d2       	rcall	.+1388   	; 0x4fd2 <fputc>
    4a66:	e1 16       	cp	r14, r17
    4a68:	30 f4       	brcc	.+12     	; 0x4a76 <vfprintf+0x640>
    4a6a:	b6 01       	movw	r22, r12
    4a6c:	80 e3       	ldi	r24, 0x30	; 48
    4a6e:	90 e0       	ldi	r25, 0x00	; 0
    4a70:	b0 d2       	rcall	.+1376   	; 0x4fd2 <fputc>
    4a72:	11 50       	subi	r17, 0x01	; 1
    4a74:	f8 cf       	rjmp	.-16     	; 0x4a66 <vfprintf+0x630>
    4a76:	ea 94       	dec	r14
    4a78:	f3 01       	movw	r30, r6
    4a7a:	ee 0d       	add	r30, r14
    4a7c:	f1 1d       	adc	r31, r1
    4a7e:	80 81       	ld	r24, Z
    4a80:	b6 01       	movw	r22, r12
    4a82:	90 e0       	ldi	r25, 0x00	; 0
    4a84:	a6 d2       	rcall	.+1356   	; 0x4fd2 <fputc>
    4a86:	e1 10       	cpse	r14, r1
    4a88:	f6 cf       	rjmp	.-20     	; 0x4a76 <vfprintf+0x640>
    4a8a:	14 c0       	rjmp	.+40     	; 0x4ab4 <vfprintf+0x67e>
    4a8c:	f4 e0       	ldi	r31, 0x04	; 4
    4a8e:	ff 15       	cp	r31, r15
    4a90:	48 f5       	brcc	.+82     	; 0x4ae4 <vfprintf+0x6ae>
    4a92:	84 e0       	ldi	r24, 0x04	; 4
    4a94:	f8 1a       	sub	r15, r24
    4a96:	33 fe       	sbrs	r3, 3
    4a98:	1d c0       	rjmp	.+58     	; 0x4ad4 <vfprintf+0x69e>
    4a9a:	21 10       	cpse	r2, r1
    4a9c:	24 c0       	rjmp	.+72     	; 0x4ae6 <vfprintf+0x6b0>
    4a9e:	03 ff       	sbrs	r16, 3
    4aa0:	27 c0       	rjmp	.+78     	; 0x4af0 <vfprintf+0x6ba>
    4aa2:	0e e8       	ldi	r16, 0x8E	; 142
    4aa4:	14 e0       	ldi	r17, 0x04	; 4
    4aa6:	f3 2d       	mov	r31, r3
    4aa8:	f0 71       	andi	r31, 0x10	; 16
    4aaa:	3f 2e       	mov	r3, r31
    4aac:	f8 01       	movw	r30, r16
    4aae:	84 91       	lpm	r24, Z
    4ab0:	81 11       	cpse	r24, r1
    4ab2:	21 c0       	rjmp	.+66     	; 0x4af6 <vfprintf+0x6c0>
    4ab4:	ff 20       	and	r15, r15
    4ab6:	09 f4       	brne	.+2      	; 0x4aba <vfprintf+0x684>
    4ab8:	fd cc       	rjmp	.-1542   	; 0x44b4 <vfprintf+0x7e>
    4aba:	b6 01       	movw	r22, r12
    4abc:	80 e2       	ldi	r24, 0x20	; 32
    4abe:	90 e0       	ldi	r25, 0x00	; 0
    4ac0:	88 d2       	rcall	.+1296   	; 0x4fd2 <fputc>
    4ac2:	fa 94       	dec	r15
    4ac4:	f7 cf       	rjmp	.-18     	; 0x4ab4 <vfprintf+0x67e>
    4ac6:	f6 01       	movw	r30, r12
    4ac8:	86 81       	ldd	r24, Z+6	; 0x06
    4aca:	97 81       	ldd	r25, Z+7	; 0x07
    4acc:	23 c0       	rjmp	.+70     	; 0x4b14 <vfprintf+0x6de>
    4ace:	8f ef       	ldi	r24, 0xFF	; 255
    4ad0:	9f ef       	ldi	r25, 0xFF	; 255
    4ad2:	20 c0       	rjmp	.+64     	; 0x4b14 <vfprintf+0x6de>
    4ad4:	b6 01       	movw	r22, r12
    4ad6:	80 e2       	ldi	r24, 0x20	; 32
    4ad8:	90 e0       	ldi	r25, 0x00	; 0
    4ada:	7b d2       	rcall	.+1270   	; 0x4fd2 <fputc>
    4adc:	fa 94       	dec	r15
    4ade:	f1 10       	cpse	r15, r1
    4ae0:	f9 cf       	rjmp	.-14     	; 0x4ad4 <vfprintf+0x69e>
    4ae2:	db cf       	rjmp	.-74     	; 0x4a9a <vfprintf+0x664>
    4ae4:	f1 2c       	mov	r15, r1
    4ae6:	b6 01       	movw	r22, r12
    4ae8:	82 2d       	mov	r24, r2
    4aea:	90 e0       	ldi	r25, 0x00	; 0
    4aec:	72 d2       	rcall	.+1252   	; 0x4fd2 <fputc>
    4aee:	d7 cf       	rjmp	.-82     	; 0x4a9e <vfprintf+0x668>
    4af0:	02 e9       	ldi	r16, 0x92	; 146
    4af2:	14 e0       	ldi	r17, 0x04	; 4
    4af4:	d8 cf       	rjmp	.-80     	; 0x4aa6 <vfprintf+0x670>
    4af6:	31 10       	cpse	r3, r1
    4af8:	80 52       	subi	r24, 0x20	; 32
    4afa:	b6 01       	movw	r22, r12
    4afc:	90 e0       	ldi	r25, 0x00	; 0
    4afe:	69 d2       	rcall	.+1234   	; 0x4fd2 <fputc>
    4b00:	0f 5f       	subi	r16, 0xFF	; 255
    4b02:	1f 4f       	sbci	r17, 0xFF	; 255
    4b04:	d3 cf       	rjmp	.-90     	; 0x4aac <vfprintf+0x676>
    4b06:	23 e0       	ldi	r18, 0x03	; 3
    4b08:	2f 15       	cp	r18, r15
    4b0a:	10 f4       	brcc	.+4      	; 0x4b10 <vfprintf+0x6da>
    4b0c:	83 e0       	ldi	r24, 0x03	; 3
    4b0e:	c2 cf       	rjmp	.-124    	; 0x4a94 <vfprintf+0x65e>
    4b10:	f1 2c       	mov	r15, r1
    4b12:	c5 cf       	rjmp	.-118    	; 0x4a9e <vfprintf+0x668>
    4b14:	63 96       	adiw	r28, 0x13	; 19
    4b16:	0f b6       	in	r0, 0x3f	; 63
    4b18:	f8 94       	cli
    4b1a:	de bf       	out	0x3e, r29	; 62
    4b1c:	0f be       	out	0x3f, r0	; 63
    4b1e:	cd bf       	out	0x3d, r28	; 61
    4b20:	df 91       	pop	r29
    4b22:	cf 91       	pop	r28
    4b24:	1f 91       	pop	r17
    4b26:	0f 91       	pop	r16
    4b28:	ff 90       	pop	r15
    4b2a:	ef 90       	pop	r14
    4b2c:	df 90       	pop	r13
    4b2e:	cf 90       	pop	r12
    4b30:	bf 90       	pop	r11
    4b32:	af 90       	pop	r10
    4b34:	9f 90       	pop	r9
    4b36:	8f 90       	pop	r8
    4b38:	7f 90       	pop	r7
    4b3a:	6f 90       	pop	r6
    4b3c:	5f 90       	pop	r5
    4b3e:	4f 90       	pop	r4
    4b40:	3f 90       	pop	r3
    4b42:	2f 90       	pop	r2
    4b44:	08 95       	ret

00004b46 <__udivmodsi4>:
    4b46:	a1 e2       	ldi	r26, 0x21	; 33
    4b48:	1a 2e       	mov	r1, r26
    4b4a:	aa 1b       	sub	r26, r26
    4b4c:	bb 1b       	sub	r27, r27
    4b4e:	fd 01       	movw	r30, r26
    4b50:	0d c0       	rjmp	.+26     	; 0x4b6c <__udivmodsi4_ep>

00004b52 <__udivmodsi4_loop>:
    4b52:	aa 1f       	adc	r26, r26
    4b54:	bb 1f       	adc	r27, r27
    4b56:	ee 1f       	adc	r30, r30
    4b58:	ff 1f       	adc	r31, r31
    4b5a:	a2 17       	cp	r26, r18
    4b5c:	b3 07       	cpc	r27, r19
    4b5e:	e4 07       	cpc	r30, r20
    4b60:	f5 07       	cpc	r31, r21
    4b62:	20 f0       	brcs	.+8      	; 0x4b6c <__udivmodsi4_ep>
    4b64:	a2 1b       	sub	r26, r18
    4b66:	b3 0b       	sbc	r27, r19
    4b68:	e4 0b       	sbc	r30, r20
    4b6a:	f5 0b       	sbc	r31, r21

00004b6c <__udivmodsi4_ep>:
    4b6c:	66 1f       	adc	r22, r22
    4b6e:	77 1f       	adc	r23, r23
    4b70:	88 1f       	adc	r24, r24
    4b72:	99 1f       	adc	r25, r25
    4b74:	1a 94       	dec	r1
    4b76:	69 f7       	brne	.-38     	; 0x4b52 <__udivmodsi4_loop>
    4b78:	60 95       	com	r22
    4b7a:	70 95       	com	r23
    4b7c:	80 95       	com	r24
    4b7e:	90 95       	com	r25
    4b80:	9b 01       	movw	r18, r22
    4b82:	ac 01       	movw	r20, r24
    4b84:	bd 01       	movw	r22, r26
    4b86:	cf 01       	movw	r24, r30
    4b88:	08 95       	ret

00004b8a <__tablejump2__>:
    4b8a:	ee 0f       	add	r30, r30
    4b8c:	ff 1f       	adc	r31, r31
    4b8e:	00 24       	eor	r0, r0
    4b90:	00 1c       	adc	r0, r0
    4b92:	0b be       	out	0x3b, r0	; 59
    4b94:	07 90       	elpm	r0, Z+
    4b96:	f6 91       	elpm	r31, Z
    4b98:	e0 2d       	mov	r30, r0
    4b9a:	09 94       	ijmp

00004b9c <malloc>:
    4b9c:	cf 93       	push	r28
    4b9e:	df 93       	push	r29
    4ba0:	82 30       	cpi	r24, 0x02	; 2
    4ba2:	91 05       	cpc	r25, r1
    4ba4:	10 f4       	brcc	.+4      	; 0x4baa <malloc+0xe>
    4ba6:	82 e0       	ldi	r24, 0x02	; 2
    4ba8:	90 e0       	ldi	r25, 0x00	; 0
    4baa:	e0 91 5d 08 	lds	r30, 0x085D
    4bae:	f0 91 5e 08 	lds	r31, 0x085E
    4bb2:	20 e0       	ldi	r18, 0x00	; 0
    4bb4:	30 e0       	ldi	r19, 0x00	; 0
    4bb6:	c0 e0       	ldi	r28, 0x00	; 0
    4bb8:	d0 e0       	ldi	r29, 0x00	; 0
    4bba:	30 97       	sbiw	r30, 0x00	; 0
    4bbc:	11 f1       	breq	.+68     	; 0x4c02 <malloc+0x66>
    4bbe:	40 81       	ld	r20, Z
    4bc0:	51 81       	ldd	r21, Z+1	; 0x01
    4bc2:	48 17       	cp	r20, r24
    4bc4:	59 07       	cpc	r21, r25
    4bc6:	c0 f0       	brcs	.+48     	; 0x4bf8 <malloc+0x5c>
    4bc8:	48 17       	cp	r20, r24
    4bca:	59 07       	cpc	r21, r25
    4bcc:	61 f4       	brne	.+24     	; 0x4be6 <malloc+0x4a>
    4bce:	82 81       	ldd	r24, Z+2	; 0x02
    4bd0:	93 81       	ldd	r25, Z+3	; 0x03
    4bd2:	20 97       	sbiw	r28, 0x00	; 0
    4bd4:	19 f0       	breq	.+6      	; 0x4bdc <malloc+0x40>
    4bd6:	9b 83       	std	Y+3, r25	; 0x03
    4bd8:	8a 83       	std	Y+2, r24	; 0x02
    4bda:	2b c0       	rjmp	.+86     	; 0x4c32 <malloc+0x96>
    4bdc:	90 93 5e 08 	sts	0x085E, r25
    4be0:	80 93 5d 08 	sts	0x085D, r24
    4be4:	26 c0       	rjmp	.+76     	; 0x4c32 <malloc+0x96>
    4be6:	21 15       	cp	r18, r1
    4be8:	31 05       	cpc	r19, r1
    4bea:	19 f0       	breq	.+6      	; 0x4bf2 <malloc+0x56>
    4bec:	42 17       	cp	r20, r18
    4bee:	53 07       	cpc	r21, r19
    4bf0:	18 f4       	brcc	.+6      	; 0x4bf8 <malloc+0x5c>
    4bf2:	9a 01       	movw	r18, r20
    4bf4:	be 01       	movw	r22, r28
    4bf6:	df 01       	movw	r26, r30
    4bf8:	ef 01       	movw	r28, r30
    4bfa:	02 80       	ldd	r0, Z+2	; 0x02
    4bfc:	f3 81       	ldd	r31, Z+3	; 0x03
    4bfe:	e0 2d       	mov	r30, r0
    4c00:	dc cf       	rjmp	.-72     	; 0x4bba <malloc+0x1e>
    4c02:	21 15       	cp	r18, r1
    4c04:	31 05       	cpc	r19, r1
    4c06:	09 f1       	breq	.+66     	; 0x4c4a <malloc+0xae>
    4c08:	28 1b       	sub	r18, r24
    4c0a:	39 0b       	sbc	r19, r25
    4c0c:	24 30       	cpi	r18, 0x04	; 4
    4c0e:	31 05       	cpc	r19, r1
    4c10:	90 f4       	brcc	.+36     	; 0x4c36 <malloc+0x9a>
    4c12:	12 96       	adiw	r26, 0x02	; 2
    4c14:	8d 91       	ld	r24, X+
    4c16:	9c 91       	ld	r25, X
    4c18:	13 97       	sbiw	r26, 0x03	; 3
    4c1a:	61 15       	cp	r22, r1
    4c1c:	71 05       	cpc	r23, r1
    4c1e:	21 f0       	breq	.+8      	; 0x4c28 <malloc+0x8c>
    4c20:	fb 01       	movw	r30, r22
    4c22:	93 83       	std	Z+3, r25	; 0x03
    4c24:	82 83       	std	Z+2, r24	; 0x02
    4c26:	04 c0       	rjmp	.+8      	; 0x4c30 <malloc+0x94>
    4c28:	90 93 5e 08 	sts	0x085E, r25
    4c2c:	80 93 5d 08 	sts	0x085D, r24
    4c30:	fd 01       	movw	r30, r26
    4c32:	32 96       	adiw	r30, 0x02	; 2
    4c34:	44 c0       	rjmp	.+136    	; 0x4cbe <malloc+0x122>
    4c36:	fd 01       	movw	r30, r26
    4c38:	e2 0f       	add	r30, r18
    4c3a:	f3 1f       	adc	r31, r19
    4c3c:	81 93       	st	Z+, r24
    4c3e:	91 93       	st	Z+, r25
    4c40:	22 50       	subi	r18, 0x02	; 2
    4c42:	31 09       	sbc	r19, r1
    4c44:	2d 93       	st	X+, r18
    4c46:	3c 93       	st	X, r19
    4c48:	3a c0       	rjmp	.+116    	; 0x4cbe <malloc+0x122>
    4c4a:	20 91 5b 08 	lds	r18, 0x085B
    4c4e:	30 91 5c 08 	lds	r19, 0x085C
    4c52:	23 2b       	or	r18, r19
    4c54:	41 f4       	brne	.+16     	; 0x4c66 <malloc+0xca>
    4c56:	20 91 02 01 	lds	r18, 0x0102
    4c5a:	30 91 03 01 	lds	r19, 0x0103
    4c5e:	30 93 5c 08 	sts	0x085C, r19
    4c62:	20 93 5b 08 	sts	0x085B, r18
    4c66:	20 91 00 01 	lds	r18, 0x0100
    4c6a:	30 91 01 01 	lds	r19, 0x0101
    4c6e:	21 15       	cp	r18, r1
    4c70:	31 05       	cpc	r19, r1
    4c72:	41 f4       	brne	.+16     	; 0x4c84 <malloc+0xe8>
    4c74:	2d b7       	in	r18, 0x3d	; 61
    4c76:	3e b7       	in	r19, 0x3e	; 62
    4c78:	40 91 04 01 	lds	r20, 0x0104
    4c7c:	50 91 05 01 	lds	r21, 0x0105
    4c80:	24 1b       	sub	r18, r20
    4c82:	35 0b       	sbc	r19, r21
    4c84:	e0 91 5b 08 	lds	r30, 0x085B
    4c88:	f0 91 5c 08 	lds	r31, 0x085C
    4c8c:	e2 17       	cp	r30, r18
    4c8e:	f3 07       	cpc	r31, r19
    4c90:	a0 f4       	brcc	.+40     	; 0x4cba <malloc+0x11e>
    4c92:	2e 1b       	sub	r18, r30
    4c94:	3f 0b       	sbc	r19, r31
    4c96:	28 17       	cp	r18, r24
    4c98:	39 07       	cpc	r19, r25
    4c9a:	78 f0       	brcs	.+30     	; 0x4cba <malloc+0x11e>
    4c9c:	ac 01       	movw	r20, r24
    4c9e:	4e 5f       	subi	r20, 0xFE	; 254
    4ca0:	5f 4f       	sbci	r21, 0xFF	; 255
    4ca2:	24 17       	cp	r18, r20
    4ca4:	35 07       	cpc	r19, r21
    4ca6:	48 f0       	brcs	.+18     	; 0x4cba <malloc+0x11e>
    4ca8:	4e 0f       	add	r20, r30
    4caa:	5f 1f       	adc	r21, r31
    4cac:	50 93 5c 08 	sts	0x085C, r21
    4cb0:	40 93 5b 08 	sts	0x085B, r20
    4cb4:	81 93       	st	Z+, r24
    4cb6:	91 93       	st	Z+, r25
    4cb8:	02 c0       	rjmp	.+4      	; 0x4cbe <malloc+0x122>
    4cba:	e0 e0       	ldi	r30, 0x00	; 0
    4cbc:	f0 e0       	ldi	r31, 0x00	; 0
    4cbe:	cf 01       	movw	r24, r30
    4cc0:	df 91       	pop	r29
    4cc2:	cf 91       	pop	r28
    4cc4:	08 95       	ret

00004cc6 <free>:
    4cc6:	0f 93       	push	r16
    4cc8:	1f 93       	push	r17
    4cca:	cf 93       	push	r28
    4ccc:	df 93       	push	r29
    4cce:	00 97       	sbiw	r24, 0x00	; 0
    4cd0:	09 f4       	brne	.+2      	; 0x4cd4 <free+0xe>
    4cd2:	8c c0       	rjmp	.+280    	; 0x4dec <free+0x126>
    4cd4:	fc 01       	movw	r30, r24
    4cd6:	32 97       	sbiw	r30, 0x02	; 2
    4cd8:	13 82       	std	Z+3, r1	; 0x03
    4cda:	12 82       	std	Z+2, r1	; 0x02
    4cdc:	00 91 5d 08 	lds	r16, 0x085D
    4ce0:	10 91 5e 08 	lds	r17, 0x085E
    4ce4:	01 15       	cp	r16, r1
    4ce6:	11 05       	cpc	r17, r1
    4ce8:	81 f4       	brne	.+32     	; 0x4d0a <free+0x44>
    4cea:	20 81       	ld	r18, Z
    4cec:	31 81       	ldd	r19, Z+1	; 0x01
    4cee:	82 0f       	add	r24, r18
    4cf0:	93 1f       	adc	r25, r19
    4cf2:	20 91 5b 08 	lds	r18, 0x085B
    4cf6:	30 91 5c 08 	lds	r19, 0x085C
    4cfa:	28 17       	cp	r18, r24
    4cfc:	39 07       	cpc	r19, r25
    4cfe:	79 f5       	brne	.+94     	; 0x4d5e <free+0x98>
    4d00:	f0 93 5c 08 	sts	0x085C, r31
    4d04:	e0 93 5b 08 	sts	0x085B, r30
    4d08:	71 c0       	rjmp	.+226    	; 0x4dec <free+0x126>
    4d0a:	d8 01       	movw	r26, r16
    4d0c:	40 e0       	ldi	r20, 0x00	; 0
    4d0e:	50 e0       	ldi	r21, 0x00	; 0
    4d10:	ae 17       	cp	r26, r30
    4d12:	bf 07       	cpc	r27, r31
    4d14:	50 f4       	brcc	.+20     	; 0x4d2a <free+0x64>
    4d16:	12 96       	adiw	r26, 0x02	; 2
    4d18:	2d 91       	ld	r18, X+
    4d1a:	3c 91       	ld	r19, X
    4d1c:	13 97       	sbiw	r26, 0x03	; 3
    4d1e:	ad 01       	movw	r20, r26
    4d20:	21 15       	cp	r18, r1
    4d22:	31 05       	cpc	r19, r1
    4d24:	09 f1       	breq	.+66     	; 0x4d68 <free+0xa2>
    4d26:	d9 01       	movw	r26, r18
    4d28:	f3 cf       	rjmp	.-26     	; 0x4d10 <free+0x4a>
    4d2a:	9d 01       	movw	r18, r26
    4d2c:	da 01       	movw	r26, r20
    4d2e:	33 83       	std	Z+3, r19	; 0x03
    4d30:	22 83       	std	Z+2, r18	; 0x02
    4d32:	60 81       	ld	r22, Z
    4d34:	71 81       	ldd	r23, Z+1	; 0x01
    4d36:	86 0f       	add	r24, r22
    4d38:	97 1f       	adc	r25, r23
    4d3a:	82 17       	cp	r24, r18
    4d3c:	93 07       	cpc	r25, r19
    4d3e:	69 f4       	brne	.+26     	; 0x4d5a <free+0x94>
    4d40:	ec 01       	movw	r28, r24
    4d42:	28 81       	ld	r18, Y
    4d44:	39 81       	ldd	r19, Y+1	; 0x01
    4d46:	26 0f       	add	r18, r22
    4d48:	37 1f       	adc	r19, r23
    4d4a:	2e 5f       	subi	r18, 0xFE	; 254
    4d4c:	3f 4f       	sbci	r19, 0xFF	; 255
    4d4e:	31 83       	std	Z+1, r19	; 0x01
    4d50:	20 83       	st	Z, r18
    4d52:	8a 81       	ldd	r24, Y+2	; 0x02
    4d54:	9b 81       	ldd	r25, Y+3	; 0x03
    4d56:	93 83       	std	Z+3, r25	; 0x03
    4d58:	82 83       	std	Z+2, r24	; 0x02
    4d5a:	45 2b       	or	r20, r21
    4d5c:	29 f4       	brne	.+10     	; 0x4d68 <free+0xa2>
    4d5e:	f0 93 5e 08 	sts	0x085E, r31
    4d62:	e0 93 5d 08 	sts	0x085D, r30
    4d66:	42 c0       	rjmp	.+132    	; 0x4dec <free+0x126>
    4d68:	13 96       	adiw	r26, 0x03	; 3
    4d6a:	fc 93       	st	X, r31
    4d6c:	ee 93       	st	-X, r30
    4d6e:	12 97       	sbiw	r26, 0x02	; 2
    4d70:	ed 01       	movw	r28, r26
    4d72:	49 91       	ld	r20, Y+
    4d74:	59 91       	ld	r21, Y+
    4d76:	9e 01       	movw	r18, r28
    4d78:	24 0f       	add	r18, r20
    4d7a:	35 1f       	adc	r19, r21
    4d7c:	e2 17       	cp	r30, r18
    4d7e:	f3 07       	cpc	r31, r19
    4d80:	71 f4       	brne	.+28     	; 0x4d9e <free+0xd8>
    4d82:	80 81       	ld	r24, Z
    4d84:	91 81       	ldd	r25, Z+1	; 0x01
    4d86:	84 0f       	add	r24, r20
    4d88:	95 1f       	adc	r25, r21
    4d8a:	02 96       	adiw	r24, 0x02	; 2
    4d8c:	11 96       	adiw	r26, 0x01	; 1
    4d8e:	9c 93       	st	X, r25
    4d90:	8e 93       	st	-X, r24
    4d92:	82 81       	ldd	r24, Z+2	; 0x02
    4d94:	93 81       	ldd	r25, Z+3	; 0x03
    4d96:	13 96       	adiw	r26, 0x03	; 3
    4d98:	9c 93       	st	X, r25
    4d9a:	8e 93       	st	-X, r24
    4d9c:	12 97       	sbiw	r26, 0x02	; 2
    4d9e:	e0 e0       	ldi	r30, 0x00	; 0
    4da0:	f0 e0       	ldi	r31, 0x00	; 0
    4da2:	d8 01       	movw	r26, r16
    4da4:	12 96       	adiw	r26, 0x02	; 2
    4da6:	8d 91       	ld	r24, X+
    4da8:	9c 91       	ld	r25, X
    4daa:	13 97       	sbiw	r26, 0x03	; 3
    4dac:	00 97       	sbiw	r24, 0x00	; 0
    4dae:	19 f0       	breq	.+6      	; 0x4db6 <free+0xf0>
    4db0:	f8 01       	movw	r30, r16
    4db2:	8c 01       	movw	r16, r24
    4db4:	f6 cf       	rjmp	.-20     	; 0x4da2 <free+0xdc>
    4db6:	8d 91       	ld	r24, X+
    4db8:	9c 91       	ld	r25, X
    4dba:	98 01       	movw	r18, r16
    4dbc:	2e 5f       	subi	r18, 0xFE	; 254
    4dbe:	3f 4f       	sbci	r19, 0xFF	; 255
    4dc0:	82 0f       	add	r24, r18
    4dc2:	93 1f       	adc	r25, r19
    4dc4:	20 91 5b 08 	lds	r18, 0x085B
    4dc8:	30 91 5c 08 	lds	r19, 0x085C
    4dcc:	28 17       	cp	r18, r24
    4dce:	39 07       	cpc	r19, r25
    4dd0:	69 f4       	brne	.+26     	; 0x4dec <free+0x126>
    4dd2:	30 97       	sbiw	r30, 0x00	; 0
    4dd4:	29 f4       	brne	.+10     	; 0x4de0 <free+0x11a>
    4dd6:	10 92 5e 08 	sts	0x085E, r1
    4dda:	10 92 5d 08 	sts	0x085D, r1
    4dde:	02 c0       	rjmp	.+4      	; 0x4de4 <free+0x11e>
    4de0:	13 82       	std	Z+3, r1	; 0x03
    4de2:	12 82       	std	Z+2, r1	; 0x02
    4de4:	10 93 5c 08 	sts	0x085C, r17
    4de8:	00 93 5b 08 	sts	0x085B, r16
    4dec:	df 91       	pop	r29
    4dee:	cf 91       	pop	r28
    4df0:	1f 91       	pop	r17
    4df2:	0f 91       	pop	r16
    4df4:	08 95       	ret

00004df6 <__ftoa_engine>:
    4df6:	28 30       	cpi	r18, 0x08	; 8
    4df8:	08 f0       	brcs	.+2      	; 0x4dfc <__ftoa_engine+0x6>
    4dfa:	27 e0       	ldi	r18, 0x07	; 7
    4dfc:	33 27       	eor	r19, r19
    4dfe:	da 01       	movw	r26, r20
    4e00:	99 0f       	add	r25, r25
    4e02:	31 1d       	adc	r19, r1
    4e04:	87 fd       	sbrc	r24, 7
    4e06:	91 60       	ori	r25, 0x01	; 1
    4e08:	00 96       	adiw	r24, 0x00	; 0
    4e0a:	61 05       	cpc	r22, r1
    4e0c:	71 05       	cpc	r23, r1
    4e0e:	39 f4       	brne	.+14     	; 0x4e1e <__ftoa_engine+0x28>
    4e10:	32 60       	ori	r19, 0x02	; 2
    4e12:	2e 5f       	subi	r18, 0xFE	; 254
    4e14:	3d 93       	st	X+, r19
    4e16:	30 e3       	ldi	r19, 0x30	; 48
    4e18:	2a 95       	dec	r18
    4e1a:	e1 f7       	brne	.-8      	; 0x4e14 <__ftoa_engine+0x1e>
    4e1c:	08 95       	ret
    4e1e:	9f 3f       	cpi	r25, 0xFF	; 255
    4e20:	30 f0       	brcs	.+12     	; 0x4e2e <__ftoa_engine+0x38>
    4e22:	80 38       	cpi	r24, 0x80	; 128
    4e24:	71 05       	cpc	r23, r1
    4e26:	61 05       	cpc	r22, r1
    4e28:	09 f0       	breq	.+2      	; 0x4e2c <__ftoa_engine+0x36>
    4e2a:	3c 5f       	subi	r19, 0xFC	; 252
    4e2c:	3c 5f       	subi	r19, 0xFC	; 252
    4e2e:	3d 93       	st	X+, r19
    4e30:	91 30       	cpi	r25, 0x01	; 1
    4e32:	08 f0       	brcs	.+2      	; 0x4e36 <__ftoa_engine+0x40>
    4e34:	80 68       	ori	r24, 0x80	; 128
    4e36:	91 1d       	adc	r25, r1
    4e38:	df 93       	push	r29
    4e3a:	cf 93       	push	r28
    4e3c:	1f 93       	push	r17
    4e3e:	0f 93       	push	r16
    4e40:	ff 92       	push	r15
    4e42:	ef 92       	push	r14
    4e44:	19 2f       	mov	r17, r25
    4e46:	98 7f       	andi	r25, 0xF8	; 248
    4e48:	96 95       	lsr	r25
    4e4a:	e9 2f       	mov	r30, r25
    4e4c:	96 95       	lsr	r25
    4e4e:	96 95       	lsr	r25
    4e50:	e9 0f       	add	r30, r25
    4e52:	ff 27       	eor	r31, r31
    4e54:	e0 51       	subi	r30, 0x10	; 16
    4e56:	fb 4f       	sbci	r31, 0xFB	; 251
    4e58:	99 27       	eor	r25, r25
    4e5a:	33 27       	eor	r19, r19
    4e5c:	ee 24       	eor	r14, r14
    4e5e:	ff 24       	eor	r15, r15
    4e60:	a7 01       	movw	r20, r14
    4e62:	e7 01       	movw	r28, r14
    4e64:	05 90       	lpm	r0, Z+
    4e66:	08 94       	sec
    4e68:	07 94       	ror	r0
    4e6a:	28 f4       	brcc	.+10     	; 0x4e76 <__ftoa_engine+0x80>
    4e6c:	36 0f       	add	r19, r22
    4e6e:	e7 1e       	adc	r14, r23
    4e70:	f8 1e       	adc	r15, r24
    4e72:	49 1f       	adc	r20, r25
    4e74:	51 1d       	adc	r21, r1
    4e76:	66 0f       	add	r22, r22
    4e78:	77 1f       	adc	r23, r23
    4e7a:	88 1f       	adc	r24, r24
    4e7c:	99 1f       	adc	r25, r25
    4e7e:	06 94       	lsr	r0
    4e80:	a1 f7       	brne	.-24     	; 0x4e6a <__ftoa_engine+0x74>
    4e82:	05 90       	lpm	r0, Z+
    4e84:	07 94       	ror	r0
    4e86:	28 f4       	brcc	.+10     	; 0x4e92 <__ftoa_engine+0x9c>
    4e88:	e7 0e       	add	r14, r23
    4e8a:	f8 1e       	adc	r15, r24
    4e8c:	49 1f       	adc	r20, r25
    4e8e:	56 1f       	adc	r21, r22
    4e90:	c1 1d       	adc	r28, r1
    4e92:	77 0f       	add	r23, r23
    4e94:	88 1f       	adc	r24, r24
    4e96:	99 1f       	adc	r25, r25
    4e98:	66 1f       	adc	r22, r22
    4e9a:	06 94       	lsr	r0
    4e9c:	a1 f7       	brne	.-24     	; 0x4e86 <__ftoa_engine+0x90>
    4e9e:	05 90       	lpm	r0, Z+
    4ea0:	07 94       	ror	r0
    4ea2:	28 f4       	brcc	.+10     	; 0x4eae <__ftoa_engine+0xb8>
    4ea4:	f8 0e       	add	r15, r24
    4ea6:	49 1f       	adc	r20, r25
    4ea8:	56 1f       	adc	r21, r22
    4eaa:	c7 1f       	adc	r28, r23
    4eac:	d1 1d       	adc	r29, r1
    4eae:	88 0f       	add	r24, r24
    4eb0:	99 1f       	adc	r25, r25
    4eb2:	66 1f       	adc	r22, r22
    4eb4:	77 1f       	adc	r23, r23
    4eb6:	06 94       	lsr	r0
    4eb8:	a1 f7       	brne	.-24     	; 0x4ea2 <__ftoa_engine+0xac>
    4eba:	05 90       	lpm	r0, Z+
    4ebc:	07 94       	ror	r0
    4ebe:	20 f4       	brcc	.+8      	; 0x4ec8 <__ftoa_engine+0xd2>
    4ec0:	49 0f       	add	r20, r25
    4ec2:	56 1f       	adc	r21, r22
    4ec4:	c7 1f       	adc	r28, r23
    4ec6:	d8 1f       	adc	r29, r24
    4ec8:	99 0f       	add	r25, r25
    4eca:	66 1f       	adc	r22, r22
    4ecc:	77 1f       	adc	r23, r23
    4ece:	88 1f       	adc	r24, r24
    4ed0:	06 94       	lsr	r0
    4ed2:	a9 f7       	brne	.-22     	; 0x4ebe <__ftoa_engine+0xc8>
    4ed4:	84 91       	lpm	r24, Z
    4ed6:	10 95       	com	r17
    4ed8:	17 70       	andi	r17, 0x07	; 7
    4eda:	41 f0       	breq	.+16     	; 0x4eec <__ftoa_engine+0xf6>
    4edc:	d6 95       	lsr	r29
    4ede:	c7 95       	ror	r28
    4ee0:	57 95       	ror	r21
    4ee2:	47 95       	ror	r20
    4ee4:	f7 94       	ror	r15
    4ee6:	e7 94       	ror	r14
    4ee8:	1a 95       	dec	r17
    4eea:	c1 f7       	brne	.-16     	; 0x4edc <__ftoa_engine+0xe6>
    4eec:	e6 e9       	ldi	r30, 0x96	; 150
    4eee:	f4 e0       	ldi	r31, 0x04	; 4
    4ef0:	68 94       	set
    4ef2:	15 90       	lpm	r1, Z+
    4ef4:	15 91       	lpm	r17, Z+
    4ef6:	35 91       	lpm	r19, Z+
    4ef8:	65 91       	lpm	r22, Z+
    4efa:	95 91       	lpm	r25, Z+
    4efc:	05 90       	lpm	r0, Z+
    4efe:	7f e2       	ldi	r23, 0x2F	; 47
    4f00:	73 95       	inc	r23
    4f02:	e1 18       	sub	r14, r1
    4f04:	f1 0a       	sbc	r15, r17
    4f06:	43 0b       	sbc	r20, r19
    4f08:	56 0b       	sbc	r21, r22
    4f0a:	c9 0b       	sbc	r28, r25
    4f0c:	d0 09       	sbc	r29, r0
    4f0e:	c0 f7       	brcc	.-16     	; 0x4f00 <__ftoa_engine+0x10a>
    4f10:	e1 0c       	add	r14, r1
    4f12:	f1 1e       	adc	r15, r17
    4f14:	43 1f       	adc	r20, r19
    4f16:	56 1f       	adc	r21, r22
    4f18:	c9 1f       	adc	r28, r25
    4f1a:	d0 1d       	adc	r29, r0
    4f1c:	7e f4       	brtc	.+30     	; 0x4f3c <__ftoa_engine+0x146>
    4f1e:	70 33       	cpi	r23, 0x30	; 48
    4f20:	11 f4       	brne	.+4      	; 0x4f26 <__ftoa_engine+0x130>
    4f22:	8a 95       	dec	r24
    4f24:	e6 cf       	rjmp	.-52     	; 0x4ef2 <__ftoa_engine+0xfc>
    4f26:	e8 94       	clt
    4f28:	01 50       	subi	r16, 0x01	; 1
    4f2a:	30 f0       	brcs	.+12     	; 0x4f38 <__ftoa_engine+0x142>
    4f2c:	08 0f       	add	r16, r24
    4f2e:	0a f4       	brpl	.+2      	; 0x4f32 <__ftoa_engine+0x13c>
    4f30:	00 27       	eor	r16, r16
    4f32:	02 17       	cp	r16, r18
    4f34:	08 f4       	brcc	.+2      	; 0x4f38 <__ftoa_engine+0x142>
    4f36:	20 2f       	mov	r18, r16
    4f38:	23 95       	inc	r18
    4f3a:	02 2f       	mov	r16, r18
    4f3c:	7a 33       	cpi	r23, 0x3A	; 58
    4f3e:	28 f0       	brcs	.+10     	; 0x4f4a <__ftoa_engine+0x154>
    4f40:	79 e3       	ldi	r23, 0x39	; 57
    4f42:	7d 93       	st	X+, r23
    4f44:	2a 95       	dec	r18
    4f46:	e9 f7       	brne	.-6      	; 0x4f42 <__ftoa_engine+0x14c>
    4f48:	10 c0       	rjmp	.+32     	; 0x4f6a <__ftoa_engine+0x174>
    4f4a:	7d 93       	st	X+, r23
    4f4c:	2a 95       	dec	r18
    4f4e:	89 f6       	brne	.-94     	; 0x4ef2 <__ftoa_engine+0xfc>
    4f50:	06 94       	lsr	r0
    4f52:	97 95       	ror	r25
    4f54:	67 95       	ror	r22
    4f56:	37 95       	ror	r19
    4f58:	17 95       	ror	r17
    4f5a:	17 94       	ror	r1
    4f5c:	e1 18       	sub	r14, r1
    4f5e:	f1 0a       	sbc	r15, r17
    4f60:	43 0b       	sbc	r20, r19
    4f62:	56 0b       	sbc	r21, r22
    4f64:	c9 0b       	sbc	r28, r25
    4f66:	d0 09       	sbc	r29, r0
    4f68:	98 f0       	brcs	.+38     	; 0x4f90 <__ftoa_engine+0x19a>
    4f6a:	23 95       	inc	r18
    4f6c:	7e 91       	ld	r23, -X
    4f6e:	73 95       	inc	r23
    4f70:	7a 33       	cpi	r23, 0x3A	; 58
    4f72:	08 f0       	brcs	.+2      	; 0x4f76 <__ftoa_engine+0x180>
    4f74:	70 e3       	ldi	r23, 0x30	; 48
    4f76:	7c 93       	st	X, r23
    4f78:	20 13       	cpse	r18, r16
    4f7a:	b8 f7       	brcc	.-18     	; 0x4f6a <__ftoa_engine+0x174>
    4f7c:	7e 91       	ld	r23, -X
    4f7e:	70 61       	ori	r23, 0x10	; 16
    4f80:	7d 93       	st	X+, r23
    4f82:	30 f0       	brcs	.+12     	; 0x4f90 <__ftoa_engine+0x19a>
    4f84:	83 95       	inc	r24
    4f86:	71 e3       	ldi	r23, 0x31	; 49
    4f88:	7d 93       	st	X+, r23
    4f8a:	70 e3       	ldi	r23, 0x30	; 48
    4f8c:	2a 95       	dec	r18
    4f8e:	e1 f7       	brne	.-8      	; 0x4f88 <__ftoa_engine+0x192>
    4f90:	11 24       	eor	r1, r1
    4f92:	ef 90       	pop	r14
    4f94:	ff 90       	pop	r15
    4f96:	0f 91       	pop	r16
    4f98:	1f 91       	pop	r17
    4f9a:	cf 91       	pop	r28
    4f9c:	df 91       	pop	r29
    4f9e:	99 27       	eor	r25, r25
    4fa0:	87 fd       	sbrc	r24, 7
    4fa2:	90 95       	com	r25
    4fa4:	08 95       	ret

00004fa6 <strnlen_P>:
    4fa6:	fc 01       	movw	r30, r24
    4fa8:	05 90       	lpm	r0, Z+
    4faa:	61 50       	subi	r22, 0x01	; 1
    4fac:	70 40       	sbci	r23, 0x00	; 0
    4fae:	01 10       	cpse	r0, r1
    4fb0:	d8 f7       	brcc	.-10     	; 0x4fa8 <strnlen_P+0x2>
    4fb2:	80 95       	com	r24
    4fb4:	90 95       	com	r25
    4fb6:	8e 0f       	add	r24, r30
    4fb8:	9f 1f       	adc	r25, r31
    4fba:	08 95       	ret

00004fbc <strnlen>:
    4fbc:	fc 01       	movw	r30, r24
    4fbe:	61 50       	subi	r22, 0x01	; 1
    4fc0:	70 40       	sbci	r23, 0x00	; 0
    4fc2:	01 90       	ld	r0, Z+
    4fc4:	01 10       	cpse	r0, r1
    4fc6:	d8 f7       	brcc	.-10     	; 0x4fbe <strnlen+0x2>
    4fc8:	80 95       	com	r24
    4fca:	90 95       	com	r25
    4fcc:	8e 0f       	add	r24, r30
    4fce:	9f 1f       	adc	r25, r31
    4fd0:	08 95       	ret

00004fd2 <fputc>:
    4fd2:	0f 93       	push	r16
    4fd4:	1f 93       	push	r17
    4fd6:	cf 93       	push	r28
    4fd8:	df 93       	push	r29
    4fda:	fb 01       	movw	r30, r22
    4fdc:	23 81       	ldd	r18, Z+3	; 0x03
    4fde:	21 fd       	sbrc	r18, 1
    4fe0:	03 c0       	rjmp	.+6      	; 0x4fe8 <fputc+0x16>
    4fe2:	8f ef       	ldi	r24, 0xFF	; 255
    4fe4:	9f ef       	ldi	r25, 0xFF	; 255
    4fe6:	28 c0       	rjmp	.+80     	; 0x5038 <fputc+0x66>
    4fe8:	22 ff       	sbrs	r18, 2
    4fea:	16 c0       	rjmp	.+44     	; 0x5018 <fputc+0x46>
    4fec:	46 81       	ldd	r20, Z+6	; 0x06
    4fee:	57 81       	ldd	r21, Z+7	; 0x07
    4ff0:	24 81       	ldd	r18, Z+4	; 0x04
    4ff2:	35 81       	ldd	r19, Z+5	; 0x05
    4ff4:	42 17       	cp	r20, r18
    4ff6:	53 07       	cpc	r21, r19
    4ff8:	44 f4       	brge	.+16     	; 0x500a <fputc+0x38>
    4ffa:	a0 81       	ld	r26, Z
    4ffc:	b1 81       	ldd	r27, Z+1	; 0x01
    4ffe:	9d 01       	movw	r18, r26
    5000:	2f 5f       	subi	r18, 0xFF	; 255
    5002:	3f 4f       	sbci	r19, 0xFF	; 255
    5004:	31 83       	std	Z+1, r19	; 0x01
    5006:	20 83       	st	Z, r18
    5008:	8c 93       	st	X, r24
    500a:	26 81       	ldd	r18, Z+6	; 0x06
    500c:	37 81       	ldd	r19, Z+7	; 0x07
    500e:	2f 5f       	subi	r18, 0xFF	; 255
    5010:	3f 4f       	sbci	r19, 0xFF	; 255
    5012:	37 83       	std	Z+7, r19	; 0x07
    5014:	26 83       	std	Z+6, r18	; 0x06
    5016:	10 c0       	rjmp	.+32     	; 0x5038 <fputc+0x66>
    5018:	eb 01       	movw	r28, r22
    501a:	09 2f       	mov	r16, r25
    501c:	18 2f       	mov	r17, r24
    501e:	00 84       	ldd	r0, Z+8	; 0x08
    5020:	f1 85       	ldd	r31, Z+9	; 0x09
    5022:	e0 2d       	mov	r30, r0
    5024:	09 95       	icall
    5026:	89 2b       	or	r24, r25
    5028:	e1 f6       	brne	.-72     	; 0x4fe2 <fputc+0x10>
    502a:	8e 81       	ldd	r24, Y+6	; 0x06
    502c:	9f 81       	ldd	r25, Y+7	; 0x07
    502e:	01 96       	adiw	r24, 0x01	; 1
    5030:	9f 83       	std	Y+7, r25	; 0x07
    5032:	8e 83       	std	Y+6, r24	; 0x06
    5034:	81 2f       	mov	r24, r17
    5036:	90 2f       	mov	r25, r16
    5038:	df 91       	pop	r29
    503a:	cf 91       	pop	r28
    503c:	1f 91       	pop	r17
    503e:	0f 91       	pop	r16
    5040:	08 95       	ret

00005042 <sprintf>:
    5042:	0f 93       	push	r16
    5044:	1f 93       	push	r17
    5046:	cf 93       	push	r28
    5048:	df 93       	push	r29
    504a:	cd b7       	in	r28, 0x3d	; 61
    504c:	de b7       	in	r29, 0x3e	; 62
    504e:	2e 97       	sbiw	r28, 0x0e	; 14
    5050:	0f b6       	in	r0, 0x3f	; 63
    5052:	f8 94       	cli
    5054:	de bf       	out	0x3e, r29	; 62
    5056:	0f be       	out	0x3f, r0	; 63
    5058:	cd bf       	out	0x3d, r28	; 61
    505a:	0d 89       	ldd	r16, Y+21	; 0x15
    505c:	1e 89       	ldd	r17, Y+22	; 0x16
    505e:	86 e0       	ldi	r24, 0x06	; 6
    5060:	8c 83       	std	Y+4, r24	; 0x04
    5062:	1a 83       	std	Y+2, r17	; 0x02
    5064:	09 83       	std	Y+1, r16	; 0x01
    5066:	8f ef       	ldi	r24, 0xFF	; 255
    5068:	9f e7       	ldi	r25, 0x7F	; 127
    506a:	9e 83       	std	Y+6, r25	; 0x06
    506c:	8d 83       	std	Y+5, r24	; 0x05
    506e:	ae 01       	movw	r20, r28
    5070:	47 5e       	subi	r20, 0xE7	; 231
    5072:	5f 4f       	sbci	r21, 0xFF	; 255
    5074:	6f 89       	ldd	r22, Y+23	; 0x17
    5076:	78 8d       	ldd	r23, Y+24	; 0x18
    5078:	ce 01       	movw	r24, r28
    507a:	01 96       	adiw	r24, 0x01	; 1
    507c:	dc d9       	rcall	.-3144   	; 0x4436 <vfprintf>
    507e:	2f 81       	ldd	r18, Y+7	; 0x07
    5080:	38 85       	ldd	r19, Y+8	; 0x08
    5082:	f8 01       	movw	r30, r16
    5084:	e2 0f       	add	r30, r18
    5086:	f3 1f       	adc	r31, r19
    5088:	10 82       	st	Z, r1
    508a:	2e 96       	adiw	r28, 0x0e	; 14
    508c:	0f b6       	in	r0, 0x3f	; 63
    508e:	f8 94       	cli
    5090:	de bf       	out	0x3e, r29	; 62
    5092:	0f be       	out	0x3f, r0	; 63
    5094:	cd bf       	out	0x3d, r28	; 61
    5096:	df 91       	pop	r29
    5098:	cf 91       	pop	r28
    509a:	1f 91       	pop	r17
    509c:	0f 91       	pop	r16
    509e:	08 95       	ret

000050a0 <__ultoa_invert>:
    50a0:	fa 01       	movw	r30, r20
    50a2:	aa 27       	eor	r26, r26
    50a4:	28 30       	cpi	r18, 0x08	; 8
    50a6:	51 f1       	breq	.+84     	; 0x50fc <__ultoa_invert+0x5c>
    50a8:	20 31       	cpi	r18, 0x10	; 16
    50aa:	81 f1       	breq	.+96     	; 0x510c <__ultoa_invert+0x6c>
    50ac:	e8 94       	clt
    50ae:	6f 93       	push	r22
    50b0:	6e 7f       	andi	r22, 0xFE	; 254
    50b2:	6e 5f       	subi	r22, 0xFE	; 254
    50b4:	7f 4f       	sbci	r23, 0xFF	; 255
    50b6:	8f 4f       	sbci	r24, 0xFF	; 255
    50b8:	9f 4f       	sbci	r25, 0xFF	; 255
    50ba:	af 4f       	sbci	r26, 0xFF	; 255
    50bc:	b1 e0       	ldi	r27, 0x01	; 1
    50be:	3e d0       	rcall	.+124    	; 0x513c <__ultoa_invert+0x9c>
    50c0:	b4 e0       	ldi	r27, 0x04	; 4
    50c2:	3c d0       	rcall	.+120    	; 0x513c <__ultoa_invert+0x9c>
    50c4:	67 0f       	add	r22, r23
    50c6:	78 1f       	adc	r23, r24
    50c8:	89 1f       	adc	r24, r25
    50ca:	9a 1f       	adc	r25, r26
    50cc:	a1 1d       	adc	r26, r1
    50ce:	68 0f       	add	r22, r24
    50d0:	79 1f       	adc	r23, r25
    50d2:	8a 1f       	adc	r24, r26
    50d4:	91 1d       	adc	r25, r1
    50d6:	a1 1d       	adc	r26, r1
    50d8:	6a 0f       	add	r22, r26
    50da:	71 1d       	adc	r23, r1
    50dc:	81 1d       	adc	r24, r1
    50de:	91 1d       	adc	r25, r1
    50e0:	a1 1d       	adc	r26, r1
    50e2:	20 d0       	rcall	.+64     	; 0x5124 <__ultoa_invert+0x84>
    50e4:	09 f4       	brne	.+2      	; 0x50e8 <__ultoa_invert+0x48>
    50e6:	68 94       	set
    50e8:	3f 91       	pop	r19
    50ea:	2a e0       	ldi	r18, 0x0A	; 10
    50ec:	26 9f       	mul	r18, r22
    50ee:	11 24       	eor	r1, r1
    50f0:	30 19       	sub	r19, r0
    50f2:	30 5d       	subi	r19, 0xD0	; 208
    50f4:	31 93       	st	Z+, r19
    50f6:	de f6       	brtc	.-74     	; 0x50ae <__ultoa_invert+0xe>
    50f8:	cf 01       	movw	r24, r30
    50fa:	08 95       	ret
    50fc:	46 2f       	mov	r20, r22
    50fe:	47 70       	andi	r20, 0x07	; 7
    5100:	40 5d       	subi	r20, 0xD0	; 208
    5102:	41 93       	st	Z+, r20
    5104:	b3 e0       	ldi	r27, 0x03	; 3
    5106:	0f d0       	rcall	.+30     	; 0x5126 <__ultoa_invert+0x86>
    5108:	c9 f7       	brne	.-14     	; 0x50fc <__ultoa_invert+0x5c>
    510a:	f6 cf       	rjmp	.-20     	; 0x50f8 <__ultoa_invert+0x58>
    510c:	46 2f       	mov	r20, r22
    510e:	4f 70       	andi	r20, 0x0F	; 15
    5110:	40 5d       	subi	r20, 0xD0	; 208
    5112:	4a 33       	cpi	r20, 0x3A	; 58
    5114:	18 f0       	brcs	.+6      	; 0x511c <__ultoa_invert+0x7c>
    5116:	49 5d       	subi	r20, 0xD9	; 217
    5118:	31 fd       	sbrc	r19, 1
    511a:	40 52       	subi	r20, 0x20	; 32
    511c:	41 93       	st	Z+, r20
    511e:	02 d0       	rcall	.+4      	; 0x5124 <__ultoa_invert+0x84>
    5120:	a9 f7       	brne	.-22     	; 0x510c <__ultoa_invert+0x6c>
    5122:	ea cf       	rjmp	.-44     	; 0x50f8 <__ultoa_invert+0x58>
    5124:	b4 e0       	ldi	r27, 0x04	; 4
    5126:	a6 95       	lsr	r26
    5128:	97 95       	ror	r25
    512a:	87 95       	ror	r24
    512c:	77 95       	ror	r23
    512e:	67 95       	ror	r22
    5130:	ba 95       	dec	r27
    5132:	c9 f7       	brne	.-14     	; 0x5126 <__ultoa_invert+0x86>
    5134:	00 97       	sbiw	r24, 0x00	; 0
    5136:	61 05       	cpc	r22, r1
    5138:	71 05       	cpc	r23, r1
    513a:	08 95       	ret
    513c:	9b 01       	movw	r18, r22
    513e:	ac 01       	movw	r20, r24
    5140:	0a 2e       	mov	r0, r26
    5142:	06 94       	lsr	r0
    5144:	57 95       	ror	r21
    5146:	47 95       	ror	r20
    5148:	37 95       	ror	r19
    514a:	27 95       	ror	r18
    514c:	ba 95       	dec	r27
    514e:	c9 f7       	brne	.-14     	; 0x5142 <__ultoa_invert+0xa2>
    5150:	62 0f       	add	r22, r18
    5152:	73 1f       	adc	r23, r19
    5154:	84 1f       	adc	r24, r20
    5156:	95 1f       	adc	r25, r21
    5158:	a0 1d       	adc	r26, r0
    515a:	08 95       	ret

0000515c <__do_global_dtors>:
    515c:	12 e0       	ldi	r17, 0x02	; 2
    515e:	c9 ec       	ldi	r28, 0xC9	; 201
    5160:	d2 e0       	ldi	r29, 0x02	; 2
    5162:	03 c0       	rjmp	.+6      	; 0x516a <__do_global_dtors+0xe>
    5164:	fe 01       	movw	r30, r28
    5166:	11 dd       	rcall	.-1502   	; 0x4b8a <__tablejump2__>
    5168:	21 96       	adiw	r28, 0x01	; 1
    516a:	ca 3c       	cpi	r28, 0xCA	; 202
    516c:	d1 07       	cpc	r29, r17
    516e:	d1 f7       	brne	.-12     	; 0x5164 <__do_global_dtors+0x8>
    5170:	f8 94       	cli

00005172 <__stop_program>:
    5172:	ff cf       	rjmp	.-2      	; 0x5172 <__stop_program>
